
gcc/main.axf:     file format elf32-littlearm

Sections:
Idx Name          Size      VMA       LMA       File off  Algn
  0 .text         0000a6cc  00000000  00000000  00008000  2**2
                  CONTENTS, ALLOC, LOAD, READONLY, CODE
  1 .data         00000104  20000000  0000a6cc  00018000  2**2
                  CONTENTS, ALLOC, LOAD, DATA
  2 .bss          00004fc0  20000104  20000104  00018104  2**2
                  ALLOC
  3 .heap         00000080  200050c4  200050c4  00018104  2**0
                  ALLOC
  4 .stack        00000800  2000f800  2000f800  0001f800  2**0
                  ALLOC
  5 .comment      0000002b  00000000  00000000  00018104  2**0
                  CONTENTS, READONLY
  6 .ARM.attributes 0000002f  00000000  00000000  0001812f  2**0
                  CONTENTS, READONLY
  7 .debug_frame  000001bc  00000000  00000000  00018160  2**2
                  CONTENTS, READONLY, DEBUGGING

Disassembly of section .text:

00000000 <_text>:
       0:	20010000 	.word	0x20010000
       4:	000000f1 	.word	0x000000f1
       8:	00000561 	.word	0x00000561
       c:	00000563 	.word	0x00000563
      10:	00000565 	.word	0x00000565
      14:	00000565 	.word	0x00000565
      18:	00000565 	.word	0x00000565
	...
      2c:	00000565 	.word	0x00000565
      30:	00000565 	.word	0x00000565
      34:	00000000 	.word	0x00000000
      38:	00000565 	.word	0x00000565
      3c:	0000033d 	.word	0x0000033d
      40:	00000565 	.word	0x00000565
      44:	00000565 	.word	0x00000565
      48:	00000565 	.word	0x00000565
      4c:	00000565 	.word	0x00000565
      50:	00000565 	.word	0x00000565
      54:	00000565 	.word	0x00000565
      58:	00000565 	.word	0x00000565
      5c:	00000565 	.word	0x00000565
      60:	00000565 	.word	0x00000565
      64:	00000565 	.word	0x00000565
      68:	00000565 	.word	0x00000565
      6c:	00000565 	.word	0x00000565
      70:	00000565 	.word	0x00000565
      74:	00000565 	.word	0x00000565
      78:	00000565 	.word	0x00000565
      7c:	00000565 	.word	0x00000565
      80:	00000565 	.word	0x00000565
      84:	00000565 	.word	0x00000565
      88:	00000565 	.word	0x00000565
      8c:	00000565 	.word	0x00000565
      90:	00000565 	.word	0x00000565
      94:	00000565 	.word	0x00000565
      98:	00000565 	.word	0x00000565
      9c:	00000565 	.word	0x00000565
      a0:	00000565 	.word	0x00000565
      a4:	00000565 	.word	0x00000565
      a8:	00000565 	.word	0x00000565
      ac:	00000565 	.word	0x00000565
      b0:	00000565 	.word	0x00000565
      b4:	00000565 	.word	0x00000565
      b8:	00000565 	.word	0x00000565
      bc:	00000565 	.word	0x00000565
      c0:	00000565 	.word	0x00000565
      c4:	00000565 	.word	0x00000565
      c8:	00000565 	.word	0x00000565
      cc:	00000565 	.word	0x00000565
      d0:	00000565 	.word	0x00000565
      d4:	00000565 	.word	0x00000565
      d8:	00000565 	.word	0x00000565
      dc:	00000565 	.word	0x00000565
      e0:	00000565 	.word	0x00000565
      e4:	00000565 	.word	0x00000565
      e8:	00006c7d 	.word	0x00006c7d
      ec:	00000565 	.word	0x00000565

000000f0 <ResetHandler>:
      f0:	4812      	ldr	r0, [pc, #72]	; (13c <zero_loop+0x26>)
      f2:	4685      	mov	sp, r0
      f4:	4812      	ldr	r0, [pc, #72]	; (140 <zero_loop+0x2a>)
      f6:	4913      	ldr	r1, [pc, #76]	; (144 <zero_loop+0x2e>)
      f8:	6008      	str	r0, [r1, #0]
      fa:	4a0d      	ldr	r2, [pc, #52]	; (130 <zero_loop+0x1a>)
      fc:	4b0d      	ldr	r3, [pc, #52]	; (134 <zero_loop+0x1e>)
      fe:	e003      	b.n	108 <ResetHandler+0x18>
     100:	f852 1b04 	ldr.w	r1, [r2], #4
     104:	f843 1b04 	str.w	r1, [r3], #4
     108:	490b      	ldr	r1, [pc, #44]	; (138 <zero_loop+0x22>)
     10a:	428b      	cmp	r3, r1
     10c:	d3f8      	bcc.n	100 <ResetHandler+0x10>
     10e:	480e      	ldr	r0, [pc, #56]	; (148 <zero_loop+0x32>)
     110:	490e      	ldr	r1, [pc, #56]	; (14c <zero_loop+0x36>)
     112:	f04f 0200 	mov.w	r2, #0

00000116 <zero_loop>:
     116:	4288      	cmp	r0, r1
     118:	bfb8      	it	lt
     11a:	f840 2b04 	strlt.w	r2, [r0], #4
     11e:	dbfa      	blt.n	116 <zero_loop>
     120:	f04f 0000 	mov.w	r0, #0
     124:	f04f 0100 	mov.w	r1, #0
     128:	4a09      	ldr	r2, [pc, #36]	; (150 <zero_loop+0x3a>)
     12a:	4790      	blx	r2
     12c:	e7fe      	b.n	12c <zero_loop+0x16>
     12e:	bf00      	nop
     130:	0000a6cc 	.word	0x0000a6cc
     134:	20000000 	.word	0x20000000
     138:	20000104 	.word	0x20000104
     13c:	20010000 	.word	0x20010000
     140:	00000000 	.word	0x00000000
     144:	e000ed08 	.word	0xe000ed08
     148:	20000104 	.word	0x20000104
     14c:	200050c4 	.word	0x200050c4
     150:	00000465 	.word	0x00000465

00000154 <SetTextCGIHandler>:
     154:	b530      	push	{r4, r5, lr}
     156:	460d      	mov	r5, r1
     158:	b087      	sub	sp, #28
     15a:	4611      	mov	r1, r2
     15c:	4811      	ldr	r0, [pc, #68]	; (1a4 <SetTextCGIHandler+0x50>)
     15e:	462a      	mov	r2, r5
     160:	461c      	mov	r4, r3
     162:	f000 fbc5 	bl	8f0 <FindCGIParameter>
     166:	f1b0 3fff 	cmp.w	r0, #4294967295
     16a:	d018      	beq.n	19e <SetTextCGIHandler+0x4a>
     16c:	4669      	mov	r1, sp
     16e:	2218      	movs	r2, #24
     170:	f854 0020 	ldr.w	r0, [r4, r0, lsl #2]
     174:	f000 fc1a 	bl	9ac <DecodeFormString>
     178:	480b      	ldr	r0, [pc, #44]	; (1a8 <SetTextCGIHandler+0x54>)
     17a:	f000 fb01 	bl	780 <RIT128x96x4Enable>
     17e:	480b      	ldr	r0, [pc, #44]	; (1ac <SetTextCGIHandler+0x58>)
     180:	2100      	movs	r1, #0
     182:	2240      	movs	r2, #64	; 0x40
     184:	230c      	movs	r3, #12
     186:	f000 fa95 	bl	6b4 <RIT128x96x4StringDraw>
     18a:	4668      	mov	r0, sp
     18c:	2100      	movs	r1, #0
     18e:	2240      	movs	r2, #64	; 0x40
     190:	230c      	movs	r3, #12
     192:	f000 fa8f 	bl	6b4 <RIT128x96x4StringDraw>
     196:	f000 fb25 	bl	7e4 <RIT128x96x4Disable>
     19a:	4805      	ldr	r0, [pc, #20]	; (1b0 <SetTextCGIHandler+0x5c>)
     19c:	e000      	b.n	1a0 <SetTextCGIHandler+0x4c>
     19e:	4805      	ldr	r0, [pc, #20]	; (1b4 <SetTextCGIHandler+0x60>)
     1a0:	b007      	add	sp, #28
     1a2:	bd30      	pop	{r4, r5, pc}
     1a4:	0000873c 	.word	0x0000873c
     1a8:	000f4240 	.word	0x000f4240
     1ac:	00008745 	.word	0x00008745
     1b0:	00008730 	.word	0x00008730
     1b4:	00008724 	.word	0x00008724

000001b8 <ControlCGIHandler>:
     1b8:	e92d 47ff 	stmdb	sp!, {r0, r1, r2, r3, r4, r5, r6, r7, r8, r9, sl, lr}
     1bc:	460c      	mov	r4, r1
     1be:	4615      	mov	r5, r2
     1c0:	4698      	mov	r8, r3
     1c2:	ae04      	add	r6, sp, #16
     1c4:	2300      	movs	r3, #0
     1c6:	4611      	mov	r1, r2
     1c8:	4820      	ldr	r0, [pc, #128]	; (24c <ControlCGIHandler+0x94>)
     1ca:	4622      	mov	r2, r4
     1cc:	f806 3d01 	strb.w	r3, [r6, #-1]!
     1d0:	f000 fb8e 	bl	8f0 <FindCGIParameter>
     1d4:	4622      	mov	r2, r4
     1d6:	4629      	mov	r1, r5
     1d8:	4681      	mov	r9, r0
     1da:	481d      	ldr	r0, [pc, #116]	; (250 <ControlCGIHandler+0x98>)
     1dc:	f000 fb88 	bl	8f0 <FindCGIParameter>
     1e0:	4623      	mov	r3, r4
     1e2:	4629      	mov	r1, r5
     1e4:	4642      	mov	r2, r8
     1e6:	4682      	mov	sl, r0
     1e8:	481a      	ldr	r0, [pc, #104]	; (254 <ControlCGIHandler+0x9c>)
     1ea:	9600      	str	r6, [sp, #0]
     1ec:	f000 fc47 	bl	a7e <GetCGIParam>
     1f0:	4623      	mov	r3, r4
     1f2:	4607      	mov	r7, r0
     1f4:	4629      	mov	r1, r5
     1f6:	4818      	ldr	r0, [pc, #96]	; (258 <ControlCGIHandler+0xa0>)
     1f8:	4642      	mov	r2, r8
     1fa:	9600      	str	r6, [sp, #0]
     1fc:	f000 fc3f 	bl	a7e <GetCGIParam>
     200:	f89d 300f 	ldrb.w	r3, [sp, #15]
     204:	4604      	mov	r4, r0
     206:	b9eb      	cbnz	r3, 244 <ControlCGIHandler+0x8c>
     208:	2f00      	cmp	r7, #0
     20a:	db1b      	blt.n	244 <ControlCGIHandler+0x8c>
     20c:	2f64      	cmp	r7, #100	; 0x64
     20e:	dc19      	bgt.n	244 <ControlCGIHandler+0x8c>
     210:	28c7      	cmp	r0, #199	; 0xc7
     212:	dd17      	ble.n	244 <ControlCGIHandler+0x8c>
     214:	f644 6320 	movw	r3, #20000	; 0x4e20
     218:	4298      	cmp	r0, r3
     21a:	dc13      	bgt.n	244 <ControlCGIHandler+0x8c>
     21c:	f1b9 30ff 	subs.w	r0, r9, #4294967295
     220:	bf18      	it	ne
     222:	2001      	movne	r0, #1
     224:	f001 f946 	bl	14b4 <io_set_led>
     228:	4638      	mov	r0, r7
     22a:	f001 f977 	bl	151c <io_pwm_dutycycle>
     22e:	4620      	mov	r0, r4
     230:	f001 f952 	bl	14d8 <io_pwm_freq>
     234:	f1ba 30ff 	subs.w	r0, sl, #4294967295
     238:	bf18      	it	ne
     23a:	2001      	movne	r0, #1
     23c:	f001 f944 	bl	14c8 <io_set_pwm>
     240:	4806      	ldr	r0, [pc, #24]	; (25c <ControlCGIHandler+0xa4>)
     242:	e000      	b.n	246 <ControlCGIHandler+0x8e>
     244:	4806      	ldr	r0, [pc, #24]	; (260 <ControlCGIHandler+0xa8>)
     246:	b004      	add	sp, #16
     248:	e8bd 87f0 	ldmia.w	sp!, {r4, r5, r6, r7, r8, r9, sl, pc}
     24c:	0000874d 	.word	0x0000874d
     250:	00008753 	.word	0x00008753
     254:	00008759 	.word	0x00008759
     258:	00008766 	.word	0x00008766
     25c:	00008730 	.word	0x00008730
     260:	00008724 	.word	0x00008724

00000264 <SSIHandler>:
     264:	e92d 41f0 	stmdb	sp!, {r4, r5, r6, r7, r8, lr}
     268:	460c      	mov	r4, r1
     26a:	b086      	sub	sp, #24
     26c:	4615      	mov	r5, r2
     26e:	2804      	cmp	r0, #4
     270:	d833      	bhi.n	2da <SSIHandler+0x76>
     272:	e8df f000 	tbb	[pc, r0]
     276:	0803      	.short	0x0803
     278:	100d      	.short	0x100d
     27a:	19          	.byte	0x19
     27b:	00          	.byte	0x00
     27c:	4608      	mov	r0, r1
     27e:	4611      	mov	r1, r2
     280:	f001 f970 	bl	1564 <io_get_ledstate>
     284:	e02e      	b.n	2e4 <SSIHandler+0x80>
     286:	4608      	mov	r0, r1
     288:	4611      	mov	r1, r2
     28a:	f001 f991 	bl	15b0 <io_get_pwmstate>
     28e:	e029      	b.n	2e4 <SSIHandler+0x80>
     290:	f001 f9a6 	bl	15e0 <io_get_pwmfreq>
     294:	e001      	b.n	29a <SSIHandler+0x36>
     296:	f001 f9a9 	bl	15ec <io_get_pwmdutycycle>
     29a:	4603      	mov	r3, r0
     29c:	4629      	mov	r1, r5
     29e:	4620      	mov	r0, r4
     2a0:	4a13      	ldr	r2, [pc, #76]	; (2f0 <SSIHandler+0x8c>)
     2a2:	f006 febd 	bl	7020 <usnprintf>
     2a6:	e01d      	b.n	2e4 <SSIHandler+0x80>
     2a8:	f001 f992 	bl	15d0 <io_is_pwm_on>
     2ac:	4680      	mov	r8, r0
     2ae:	f001 f973 	bl	1598 <io_is_led_on>
     2b2:	4607      	mov	r7, r0
     2b4:	f001 f994 	bl	15e0 <io_get_pwmfreq>
     2b8:	4606      	mov	r6, r0
     2ba:	f001 f997 	bl	15ec <io_get_pwmdutycycle>
     2be:	4b0d      	ldr	r3, [pc, #52]	; (2f4 <SSIHandler+0x90>)
     2c0:	9003      	str	r0, [sp, #12]
     2c2:	9304      	str	r3, [sp, #16]
     2c4:	4620      	mov	r0, r4
     2c6:	4629      	mov	r1, r5
     2c8:	4a0b      	ldr	r2, [pc, #44]	; (2f8 <SSIHandler+0x94>)
     2ca:	4b0c      	ldr	r3, [pc, #48]	; (2fc <SSIHandler+0x98>)
     2cc:	f8cd 8000 	str.w	r8, [sp]
     2d0:	9701      	str	r7, [sp, #4]
     2d2:	9602      	str	r6, [sp, #8]
     2d4:	f006 fea4 	bl	7020 <usnprintf>
     2d8:	e004      	b.n	2e4 <SSIHandler+0x80>
     2da:	4608      	mov	r0, r1
     2dc:	4611      	mov	r1, r2
     2de:	4a08      	ldr	r2, [pc, #32]	; (300 <SSIHandler+0x9c>)
     2e0:	f006 fe9e 	bl	7020 <usnprintf>
     2e4:	4620      	mov	r0, r4
     2e6:	b006      	add	sp, #24
     2e8:	e8bd 41f0 	ldmia.w	sp!, {r4, r5, r6, r7, r8, lr}
     2ec:	f007 bece 	b.w	808c <strlen>
     2f0:	000087eb 	.word	0x000087eb
     2f4:	000087cf 	.word	0x000087cf
     2f8:	00008773 	.word	0x00008773
     2fc:	00008794 	.word	0x00008794
     300:	000087df 	.word	0x000087df

00000304 <DisplayIPAddress>:
     304:	b570      	push	{r4, r5, r6, lr}
     306:	b088      	sub	sp, #32
     308:	0a03      	lsrs	r3, r0, #8
     30a:	0c06      	lsrs	r6, r0, #16
     30c:	9003      	str	r0, [sp, #12]
     30e:	4614      	mov	r4, r2
     310:	b2c2      	uxtb	r2, r0
     312:	0e00      	lsrs	r0, r0, #24
     314:	460d      	mov	r5, r1
     316:	9001      	str	r0, [sp, #4]
     318:	b2f6      	uxtb	r6, r6
     31a:	a804      	add	r0, sp, #16
     31c:	4906      	ldr	r1, [pc, #24]	; (338 <DisplayIPAddress+0x34>)
     31e:	b2db      	uxtb	r3, r3
     320:	9600      	str	r6, [sp, #0]
     322:	f006 fe6f 	bl	7004 <usprintf>
     326:	a804      	add	r0, sp, #16
     328:	4629      	mov	r1, r5
     32a:	4622      	mov	r2, r4
     32c:	230f      	movs	r3, #15
     32e:	f000 f9c1 	bl	6b4 <RIT128x96x4StringDraw>
     332:	b008      	add	sp, #32
     334:	bd70      	pop	{r4, r5, r6, pc}
     336:	bf00      	nop
     338:	000087e2 	.word	0x000087e2

0000033c <SysTickIntHandler>:
     33c:	4b07      	ldr	r3, [pc, #28]	; (35c <SysTickIntHandler+0x20>)
     33e:	200a      	movs	r0, #10
     340:	f003 4270 	and.w	r2, r3, #4026531840	; 0xf0000000
     344:	f023 437f 	bic.w	r3, r3, #4278190080	; 0xff000000
     348:	f042 7200 	orr.w	r2, r2, #33554432	; 0x2000000
     34c:	f423 0370 	bic.w	r3, r3, #15728640	; 0xf00000
     350:	ea42 1343 	orr.w	r3, r2, r3, lsl #5
     354:	2201      	movs	r2, #1
     356:	601a      	str	r2, [r3, #0]
     358:	f006 bc82 	b.w	6c60 <lwIPTimer>
     35c:	20000108 	.word	0x20000108

00000360 <lwIPHostTimerHandler>:
     360:	b570      	push	{r4, r5, r6, lr}
     362:	f006 fd05 	bl	6d70 <lwIPLocalIPAddrGet>
     366:	4604      	mov	r4, r0
     368:	bb50      	cbnz	r0, 3c0 <lwIPHostTimerHandler+0x60>
     36a:	4d33      	ldr	r5, [pc, #204]	; (438 <lwIPHostTimerHandler+0xd8>)
     36c:	4833      	ldr	r0, [pc, #204]	; (43c <lwIPHostTimerHandler+0xdc>)
     36e:	f000 fa07 	bl	780 <RIT128x96x4Enable>
     372:	6829      	ldr	r1, [r5, #0]
     374:	290b      	cmp	r1, #11
     376:	dc0e      	bgt.n	396 <lwIPHostTimerHandler+0x36>
     378:	4831      	ldr	r0, [pc, #196]	; (440 <lwIPHostTimerHandler+0xe0>)
     37a:	2172      	movs	r1, #114	; 0x72
     37c:	2218      	movs	r2, #24
     37e:	230f      	movs	r3, #15
     380:	f000 f998 	bl	6b4 <RIT128x96x4StringDraw>
     384:	482f      	ldr	r0, [pc, #188]	; (444 <lwIPHostTimerHandler+0xe4>)
     386:	4621      	mov	r1, r4
     388:	2218      	movs	r2, #24
     38a:	230f      	movs	r3, #15
     38c:	f000 f992 	bl	6b4 <RIT128x96x4StringDraw>
     390:	482d      	ldr	r0, [pc, #180]	; (448 <lwIPHostTimerHandler+0xe8>)
     392:	6829      	ldr	r1, [r5, #0]
     394:	e001      	b.n	39a <lwIPHostTimerHandler+0x3a>
     396:	482d      	ldr	r0, [pc, #180]	; (44c <lwIPHostTimerHandler+0xec>)
     398:	3906      	subs	r1, #6
     39a:	2307      	movs	r3, #7
     39c:	2218      	movs	r2, #24
     39e:	f000 f989 	bl	6b4 <RIT128x96x4StringDraw>
     3a2:	682b      	ldr	r3, [r5, #0]
     3a4:	3304      	adds	r3, #4
     3a6:	2b72      	cmp	r3, #114	; 0x72
     3a8:	602b      	str	r3, [r5, #0]
     3aa:	dd40      	ble.n	42e <lwIPHostTimerHandler+0xce>
     3ac:	4b22      	ldr	r3, [pc, #136]	; (438 <lwIPHostTimerHandler+0xd8>)
     3ae:	2206      	movs	r2, #6
     3b0:	601a      	str	r2, [r3, #0]
     3b2:	4823      	ldr	r0, [pc, #140]	; (440 <lwIPHostTimerHandler+0xe0>)
     3b4:	2172      	movs	r1, #114	; 0x72
     3b6:	3212      	adds	r2, #18
     3b8:	230f      	movs	r3, #15
     3ba:	f000 f97b 	bl	6b4 <RIT128x96x4StringDraw>
     3be:	e036      	b.n	42e <lwIPHostTimerHandler+0xce>
     3c0:	4b23      	ldr	r3, [pc, #140]	; (450 <lwIPHostTimerHandler+0xf0>)
     3c2:	681a      	ldr	r2, [r3, #0]
     3c4:	4282      	cmp	r2, r0
     3c6:	d036      	beq.n	436 <lwIPHostTimerHandler+0xd6>
     3c8:	6018      	str	r0, [r3, #0]
     3ca:	481c      	ldr	r0, [pc, #112]	; (43c <lwIPHostTimerHandler+0xdc>)
     3cc:	f000 f9d8 	bl	780 <RIT128x96x4Enable>
     3d0:	4820      	ldr	r0, [pc, #128]	; (454 <lwIPHostTimerHandler+0xf4>)
     3d2:	2100      	movs	r1, #0
     3d4:	2210      	movs	r2, #16
     3d6:	230f      	movs	r3, #15
     3d8:	f000 f96c 	bl	6b4 <RIT128x96x4StringDraw>
     3dc:	481d      	ldr	r0, [pc, #116]	; (454 <lwIPHostTimerHandler+0xf4>)
     3de:	2100      	movs	r1, #0
     3e0:	2218      	movs	r2, #24
     3e2:	230f      	movs	r3, #15
     3e4:	f000 f966 	bl	6b4 <RIT128x96x4StringDraw>
     3e8:	481b      	ldr	r0, [pc, #108]	; (458 <lwIPHostTimerHandler+0xf8>)
     3ea:	2100      	movs	r1, #0
     3ec:	2210      	movs	r2, #16
     3ee:	230f      	movs	r3, #15
     3f0:	f000 f960 	bl	6b4 <RIT128x96x4StringDraw>
     3f4:	4819      	ldr	r0, [pc, #100]	; (45c <lwIPHostTimerHandler+0xfc>)
     3f6:	2100      	movs	r1, #0
     3f8:	2218      	movs	r2, #24
     3fa:	230f      	movs	r3, #15
     3fc:	f000 f95a 	bl	6b4 <RIT128x96x4StringDraw>
     400:	230f      	movs	r3, #15
     402:	4817      	ldr	r0, [pc, #92]	; (460 <lwIPHostTimerHandler+0x100>)
     404:	2100      	movs	r1, #0
     406:	2220      	movs	r2, #32
     408:	f000 f954 	bl	6b4 <RIT128x96x4StringDraw>
     40c:	2124      	movs	r1, #36	; 0x24
     40e:	2210      	movs	r2, #16
     410:	4620      	mov	r0, r4
     412:	f7ff ff77 	bl	304 <DisplayIPAddress>
     416:	f006 fcb1 	bl	6d7c <lwIPLocalNetMaskGet>
     41a:	2124      	movs	r1, #36	; 0x24
     41c:	2218      	movs	r2, #24
     41e:	f7ff ff71 	bl	304 <DisplayIPAddress>
     422:	f006 fcb1 	bl	6d88 <lwIPLocalGWAddrGet>
     426:	2124      	movs	r1, #36	; 0x24
     428:	2220      	movs	r2, #32
     42a:	f7ff ff6b 	bl	304 <DisplayIPAddress>
     42e:	e8bd 4070 	ldmia.w	sp!, {r4, r5, r6, lr}
     432:	f000 b9d7 	b.w	7e4 <RIT128x96x4Disable>
     436:	bd70      	pop	{r4, r5, r6, pc}
     438:	20000014 	.word	0x20000014
     43c:	000f4240 	.word	0x000f4240
     440:	000087ee 	.word	0x000087ee
     444:	000087f1 	.word	0x000087f1
     448:	000087f5 	.word	0x000087f5
     44c:	000087f4 	.word	0x000087f4
     450:	20000104 	.word	0x20000104
     454:	000087f7 	.word	0x000087f7
     458:	00008800 	.word	0x00008800
     45c:	00008807 	.word	0x00008807
     460:	0000880e 	.word	0x0000880e

00000464 <main>:
     464:	b57f      	push	{r0, r1, r2, r3, r4, r5, r6, lr}
     466:	4831      	ldr	r0, [pc, #196]	; (52c <main+0xc8>)
     468:	f007 f8a0 	bl	75ac <SysCtlClockSet>
     46c:	4830      	ldr	r0, [pc, #192]	; (530 <main+0xcc>)
     46e:	f000 f9ed 	bl	84c <RIT128x96x4Init>
     472:	2100      	movs	r1, #0
     474:	460a      	mov	r2, r1
     476:	230f      	movs	r3, #15
     478:	482e      	ldr	r0, [pc, #184]	; (534 <main+0xd0>)
     47a:	f000 f91b 	bl	6b4 <RIT128x96x4StringDraw>
     47e:	2235      	movs	r2, #53	; 0x35
     480:	230f      	movs	r3, #15
     482:	2100      	movs	r1, #0
     484:	482c      	ldr	r0, [pc, #176]	; (538 <main+0xd4>)
     486:	f000 f915 	bl	6b4 <RIT128x96x4StringDraw>
     48a:	482c      	ldr	r0, [pc, #176]	; (53c <main+0xd8>)
     48c:	f007 f87a 	bl	7584 <SysCtlPeripheralEnable>
     490:	482a      	ldr	r0, [pc, #168]	; (53c <main+0xd8>)
     492:	f007 f857 	bl	7544 <SysCtlPeripheralReset>
     496:	482a      	ldr	r0, [pc, #168]	; (540 <main+0xdc>)
     498:	f007 f874 	bl	7584 <SysCtlPeripheralEnable>
     49c:	210c      	movs	r1, #12
     49e:	4829      	ldr	r0, [pc, #164]	; (544 <main+0xe0>)
     4a0:	f006 ff4f 	bl	7342 <GPIOPinTypeEthernetLED>
     4a4:	f007 f92e 	bl	7704 <SysCtlClockGet>
     4a8:	2364      	movs	r3, #100	; 0x64
     4aa:	fbb0 f0f3 	udiv	r0, r0, r3
     4ae:	f007 fa31 	bl	7914 <SysTickPeriodSet>
     4b2:	f007 fa1f 	bl	78f4 <SysTickEnable>
     4b6:	f007 fa25 	bl	7904 <SysTickIntEnable>
     4ba:	f006 ff7a 	bl	73b2 <IntMasterEnable>
     4be:	a904      	add	r1, sp, #16
     4c0:	a805      	add	r0, sp, #20
     4c2:	f006 fe9b 	bl	71fc <FlashUserGet>
     4c6:	2223      	movs	r2, #35	; 0x23
     4c8:	4b1f      	ldr	r3, [pc, #124]	; (548 <main+0xe4>)
     4ca:	f88d 2009 	strb.w	r2, [sp, #9]
     4ce:	3222      	adds	r2, #34	; 0x22
     4d0:	9305      	str	r3, [sp, #20]
     4d2:	f88d 200a 	strb.w	r2, [sp, #10]
     4d6:	4b1d      	ldr	r3, [pc, #116]	; (54c <main+0xe8>)
     4d8:	3222      	adds	r2, #34	; 0x22
     4da:	f88d 200b 	strb.w	r2, [sp, #11]
     4de:	3222      	adds	r2, #34	; 0x22
     4e0:	2100      	movs	r1, #0
     4e2:	9304      	str	r3, [sp, #16]
     4e4:	f88d 200c 	strb.w	r2, [sp, #12]
     4e8:	2301      	movs	r3, #1
     4ea:	3222      	adds	r2, #34	; 0x22
     4ec:	a802      	add	r0, sp, #8
     4ee:	f88d 3008 	strb.w	r3, [sp, #8]
     4f2:	f88d 200d 	strb.w	r2, [sp, #13]
     4f6:	9300      	str	r3, [sp, #0]
     4f8:	460a      	mov	r2, r1
     4fa:	460b      	mov	r3, r1
     4fc:	f006 fb54 	bl	6ba8 <lwIPInit>
     500:	f001 f9c6 	bl	1890 <LocatorInit>
     504:	a802      	add	r0, sp, #8
     506:	f001 f9ef 	bl	18e8 <LocatorMACAddrSet>
     50a:	4811      	ldr	r0, [pc, #68]	; (550 <main+0xec>)
     50c:	f001 f9fc 	bl	1908 <LocatorAppTitleSet>
     510:	f000 ff50 	bl	13b4 <httpd_init>
     514:	2205      	movs	r2, #5
     516:	480f      	ldr	r0, [pc, #60]	; (554 <main+0xf0>)
     518:	490f      	ldr	r1, [pc, #60]	; (558 <main+0xf4>)
     51a:	f000 ff61 	bl	13e0 <http_set_ssi_handler>
     51e:	480f      	ldr	r0, [pc, #60]	; (55c <main+0xf8>)
     520:	2102      	movs	r1, #2
     522:	f000 ff6b 	bl	13fc <http_set_cgi_handlers>
     526:	f000 ff73 	bl	1410 <io_init>
     52a:	e7fe      	b.n	52a <main+0xc6>
     52c:	01c00380 	.word	0x01c00380
     530:	000f4240 	.word	0x000f4240
     534:	00008815 	.word	0x00008815
     538:	0000882b 	.word	0x0000882b
     53c:	20105000 	.word	0x20105000
     540:	20000020 	.word	0x20000020
     544:	40025000 	.word	0x40025000
     548:	00452301 	.word	0x00452301
     54c:	00ab8967 	.word	0x00ab8967
     550:	0000883c 	.word	0x0000883c
     554:	00000265 	.word	0x00000265
     558:	20000000 	.word	0x20000000
     55c:	00008894 	.word	0x00008894

00000560 <NmiHandler>:
     560:	e7fe      	b.n	560 <NmiHandler>

00000562 <FaultHandler>:
     562:	e7fe      	b.n	562 <FaultHandler>

00000564 <ADC0IntHandler>:
     564:	e7fe      	b.n	564 <ADC0IntHandler>
	...

00000568 <RITWriteCommand>:
     568:	b5f8      	push	{r3, r4, r5, r6, r7, lr}
     56a:	4e1d      	ldr	r6, [pc, #116]	; (5e0 <RITWriteCommand+0x78>)
     56c:	460d      	mov	r5, r1
     56e:	f026 427f 	bic.w	r2, r6, #4278190080	; 0xff000000
     572:	f006 4370 	and.w	r3, r6, #4026531840	; 0xf0000000
     576:	f422 0270 	bic.w	r2, r2, #15728640	; 0xf00000
     57a:	f043 7100 	orr.w	r1, r3, #33554432	; 0x2000000
     57e:	0152      	lsls	r2, r2, #5
     580:	4311      	orrs	r1, r2
     582:	6809      	ldr	r1, [r1, #0]
     584:	4607      	mov	r7, r0
     586:	b349      	cbz	r1, 5dc <RITWriteCommand+0x74>
     588:	f043 7300 	orr.w	r3, r3, #33554432	; 0x2000000
     58c:	f043 0304 	orr.w	r3, r3, #4
     590:	ea43 0202 	orr.w	r2, r3, r2
     594:	6813      	ldr	r3, [r2, #0]
     596:	b1fb      	cbz	r3, 5d8 <RITWriteCommand+0x70>
     598:	4812      	ldr	r0, [pc, #72]	; (5e4 <RITWriteCommand+0x7c>)
     59a:	f006 ffce 	bl	753a <SSIBusy>
     59e:	4604      	mov	r4, r0
     5a0:	2800      	cmp	r0, #0
     5a2:	d1f9      	bne.n	598 <RITWriteCommand+0x30>
     5a4:	f04f 2040 	mov.w	r0, #1073758208	; 0x40004000
     5a8:	2140      	movs	r1, #64	; 0x40
     5aa:	4622      	mov	r2, r4
     5ac:	f006 fec6 	bl	733c <GPIOPinWrite>
     5b0:	f006 4370 	and.w	r3, r6, #4026531840	; 0xf0000000
     5b4:	f043 7300 	orr.w	r3, r3, #33554432	; 0x2000000
     5b8:	f026 467f 	bic.w	r6, r6, #4278190080	; 0xff000000
     5bc:	f043 0304 	orr.w	r3, r3, #4
     5c0:	f426 0670 	bic.w	r6, r6, #15728640	; 0xf00000
     5c4:	ea43 1646 	orr.w	r6, r3, r6, lsl #5
     5c8:	6034      	str	r4, [r6, #0]
     5ca:	e005      	b.n	5d8 <RITWriteCommand+0x70>
     5cc:	4805      	ldr	r0, [pc, #20]	; (5e4 <RITWriteCommand+0x7c>)
     5ce:	f817 1b01 	ldrb.w	r1, [r7], #1
     5d2:	f006 ffa2 	bl	751a <SSIDataPut>
     5d6:	3d01      	subs	r5, #1
     5d8:	2d00      	cmp	r5, #0
     5da:	d1f7      	bne.n	5cc <RITWriteCommand+0x64>
     5dc:	bdf8      	pop	{r3, r4, r5, r6, r7, pc}
     5de:	bf00      	nop
     5e0:	20000114 	.word	0x20000114
     5e4:	40008000 	.word	0x40008000

000005e8 <RITWriteData>:
     5e8:	b570      	push	{r4, r5, r6, lr}
     5ea:	4d1d      	ldr	r5, [pc, #116]	; (660 <RITWriteData+0x78>)
     5ec:	460c      	mov	r4, r1
     5ee:	f025 427f 	bic.w	r2, r5, #4278190080	; 0xff000000
     5f2:	f005 4370 	and.w	r3, r5, #4026531840	; 0xf0000000
     5f6:	f422 0270 	bic.w	r2, r2, #15728640	; 0xf00000
     5fa:	f043 7100 	orr.w	r1, r3, #33554432	; 0x2000000
     5fe:	0152      	lsls	r2, r2, #5
     600:	4311      	orrs	r1, r2
     602:	6809      	ldr	r1, [r1, #0]
     604:	4606      	mov	r6, r0
     606:	b349      	cbz	r1, 65c <RITWriteData+0x74>
     608:	f043 7300 	orr.w	r3, r3, #33554432	; 0x2000000
     60c:	f043 0304 	orr.w	r3, r3, #4
     610:	ea43 0202 	orr.w	r2, r3, r2
     614:	6813      	ldr	r3, [r2, #0]
     616:	b9fb      	cbnz	r3, 658 <RITWriteData+0x70>
     618:	4812      	ldr	r0, [pc, #72]	; (664 <RITWriteData+0x7c>)
     61a:	f006 ff8e 	bl	753a <SSIBusy>
     61e:	2800      	cmp	r0, #0
     620:	d1fa      	bne.n	618 <RITWriteData+0x30>
     622:	2140      	movs	r1, #64	; 0x40
     624:	f04f 2040 	mov.w	r0, #1073758208	; 0x40004000
     628:	460a      	mov	r2, r1
     62a:	f006 fe87 	bl	733c <GPIOPinWrite>
     62e:	f005 4370 	and.w	r3, r5, #4026531840	; 0xf0000000
     632:	f043 7300 	orr.w	r3, r3, #33554432	; 0x2000000
     636:	f025 457f 	bic.w	r5, r5, #4278190080	; 0xff000000
     63a:	f043 0304 	orr.w	r3, r3, #4
     63e:	f425 0570 	bic.w	r5, r5, #15728640	; 0xf00000
     642:	ea43 1545 	orr.w	r5, r3, r5, lsl #5
     646:	2301      	movs	r3, #1
     648:	602b      	str	r3, [r5, #0]
     64a:	e005      	b.n	658 <RITWriteData+0x70>
     64c:	4805      	ldr	r0, [pc, #20]	; (664 <RITWriteData+0x7c>)
     64e:	f816 1b01 	ldrb.w	r1, [r6], #1
     652:	f006 ff62 	bl	751a <SSIDataPut>
     656:	3c01      	subs	r4, #1
     658:	2c00      	cmp	r4, #0
     65a:	d1f7      	bne.n	64c <RITWriteData+0x64>
     65c:	bd70      	pop	{r4, r5, r6, pc}
     65e:	bf00      	nop
     660:	20000114 	.word	0x20000114
     664:	40008000 	.word	0x40008000

00000668 <RIT128x96x4Clear>:
     668:	b538      	push	{r3, r4, r5, lr}
     66a:	4b0e      	ldr	r3, [pc, #56]	; (6a4 <RIT128x96x4Clear+0x3c>)
     66c:	2200      	movs	r2, #0
     66e:	601a      	str	r2, [r3, #0]
     670:	605a      	str	r2, [r3, #4]
     672:	480d      	ldr	r0, [pc, #52]	; (6a8 <RIT128x96x4Clear+0x40>)
     674:	2103      	movs	r1, #3
     676:	f7ff ff77 	bl	568 <RITWriteCommand>
     67a:	480c      	ldr	r0, [pc, #48]	; (6ac <RIT128x96x4Clear+0x44>)
     67c:	2103      	movs	r1, #3
     67e:	f7ff ff73 	bl	568 <RITWriteCommand>
     682:	480b      	ldr	r0, [pc, #44]	; (6b0 <RIT128x96x4Clear+0x48>)
     684:	2102      	movs	r1, #2
     686:	f7ff ff6f 	bl	568 <RITWriteCommand>
     68a:	2460      	movs	r4, #96	; 0x60
     68c:	e007      	b.n	69e <RIT128x96x4Clear+0x36>
     68e:	2108      	movs	r1, #8
     690:	4804      	ldr	r0, [pc, #16]	; (6a4 <RIT128x96x4Clear+0x3c>)
     692:	f7ff ffa9 	bl	5e8 <RITWriteData>
     696:	3d01      	subs	r5, #1
     698:	d1f9      	bne.n	68e <RIT128x96x4Clear+0x26>
     69a:	3c01      	subs	r4, #1
     69c:	d001      	beq.n	6a2 <RIT128x96x4Clear+0x3a>
     69e:	2508      	movs	r5, #8
     6a0:	e7f5      	b.n	68e <RIT128x96x4Clear+0x26>
     6a2:	bd38      	pop	{r3, r4, r5, pc}
     6a4:	2000010c 	.word	0x2000010c
     6a8:	00008a8b 	.word	0x00008a8b
     6ac:	000088a4 	.word	0x000088a4
     6b0:	00008a87 	.word	0x00008a87

000006b4 <RIT128x96x4StringDraw>:
     6b4:	e92d 43f8 	stmdb	sp!, {r3, r4, r5, r6, r7, r8, r9, lr}
     6b8:	4f2e      	ldr	r7, [pc, #184]	; (774 <RIT128x96x4StringDraw+0xc0>)
     6ba:	4698      	mov	r8, r3
     6bc:	2315      	movs	r3, #21
     6be:	703b      	strb	r3, [r7, #0]
     6c0:	084b      	lsrs	r3, r1, #1
     6c2:	4616      	mov	r6, r2
     6c4:	707b      	strb	r3, [r7, #1]
     6c6:	233f      	movs	r3, #63	; 0x3f
     6c8:	70bb      	strb	r3, [r7, #2]
     6ca:	b2f6      	uxtb	r6, r6
     6cc:	4605      	mov	r5, r0
     6ce:	460c      	mov	r4, r1
     6d0:	4638      	mov	r0, r7
     6d2:	2103      	movs	r1, #3
     6d4:	f7ff ff48 	bl	568 <RITWriteCommand>
     6d8:	2375      	movs	r3, #117	; 0x75
     6da:	707e      	strb	r6, [r7, #1]
     6dc:	3607      	adds	r6, #7
     6de:	703b      	strb	r3, [r7, #0]
     6e0:	4638      	mov	r0, r7
     6e2:	2103      	movs	r1, #3
     6e4:	70be      	strb	r6, [r7, #2]
     6e6:	f7ff ff3f 	bl	568 <RITWriteCommand>
     6ea:	4823      	ldr	r0, [pc, #140]	; (778 <RIT128x96x4StringDraw+0xc4>)
     6ec:	2102      	movs	r1, #2
     6ee:	f7ff ff3b 	bl	568 <RITWriteCommand>
     6f2:	ea4f 1908 	mov.w	r9, r8, lsl #4
     6f6:	e037      	b.n	768 <RIT128x96x4StringDraw+0xb4>
     6f8:	f003 037f 	and.w	r3, r3, #127	; 0x7f
     6fc:	2b1f      	cmp	r3, #31
     6fe:	d902      	bls.n	706 <RIT128x96x4StringDraw+0x52>
     700:	3b20      	subs	r3, #32
     702:	b2df      	uxtb	r7, r3
     704:	e000      	b.n	708 <RIT128x96x4StringDraw+0x54>
     706:	2700      	movs	r7, #0
     708:	4b1c      	ldr	r3, [pc, #112]	; (77c <RIT128x96x4StringDraw+0xc8>)
     70a:	eb07 0787 	add.w	r7, r7, r7, lsl #2
     70e:	19df      	adds	r7, r3, r7
     710:	2600      	movs	r6, #0
     712:	e025      	b.n	760 <RIT128x96x4StringDraw+0xac>
     714:	2000      	movs	r0, #0
     716:	f803 0b01 	strb.w	r0, [r3], #1
     71a:	fa52 f001 	asrs.w	r0, r2, r1
     71e:	f010 0f01 	tst.w	r0, #1
     722:	bf18      	it	ne
     724:	f803 9c01 	strbne.w	r9, [r3, #-1]
     728:	2e03      	cmp	r6, #3
     72a:	d80c      	bhi.n	746 <RIT128x96x4StringDraw+0x92>
     72c:	7878      	ldrb	r0, [r7, #1]
     72e:	4108      	asrs	r0, r1
     730:	f010 0f01 	tst.w	r0, #1
     734:	d007      	beq.n	746 <RIT128x96x4StringDraw+0x92>
     736:	f813 0c01 	ldrb.w	r0, [r3, #-1]
     73a:	f008 0e0f 	and.w	lr, r8, #15
     73e:	ea4e 0000 	orr.w	r0, lr, r0
     742:	f803 0c01 	strb.w	r0, [r3, #-1]
     746:	3101      	adds	r1, #1
     748:	2908      	cmp	r1, #8
     74a:	d1e3      	bne.n	714 <RIT128x96x4StringDraw+0x60>
     74c:	4809      	ldr	r0, [pc, #36]	; (774 <RIT128x96x4StringDraw+0xc0>)
     74e:	3402      	adds	r4, #2
     750:	f7ff ff4a 	bl	5e8 <RITWriteData>
     754:	2c80      	cmp	r4, #128	; 0x80
     756:	d00b      	beq.n	770 <RIT128x96x4StringDraw+0xbc>
     758:	3602      	adds	r6, #2
     75a:	3702      	adds	r7, #2
     75c:	2e06      	cmp	r6, #6
     75e:	d003      	beq.n	768 <RIT128x96x4StringDraw+0xb4>
     760:	783a      	ldrb	r2, [r7, #0]
     762:	4b04      	ldr	r3, [pc, #16]	; (774 <RIT128x96x4StringDraw+0xc0>)
     764:	2100      	movs	r1, #0
     766:	e7d5      	b.n	714 <RIT128x96x4StringDraw+0x60>
     768:	f815 3b01 	ldrb.w	r3, [r5], #1
     76c:	2b00      	cmp	r3, #0
     76e:	d1c3      	bne.n	6f8 <RIT128x96x4StringDraw+0x44>
     770:	e8bd 83f8 	ldmia.w	sp!, {r3, r4, r5, r6, r7, r8, r9, pc}
     774:	2000010c 	.word	0x2000010c
     778:	00008a89 	.word	0x00008a89
     77c:	000088a7 	.word	0x000088a7

00000780 <RIT128x96x4Enable>:
     780:	b513      	push	{r0, r1, r4, lr}
     782:	4604      	mov	r4, r0
     784:	4815      	ldr	r0, [pc, #84]	; (7dc <RIT128x96x4Enable+0x5c>)
     786:	f006 fec3 	bl	7510 <SSIDisable>
     78a:	f006 ffbb 	bl	7704 <SysCtlClockGet>
     78e:	2203      	movs	r2, #3
     790:	4601      	mov	r1, r0
     792:	2300      	movs	r3, #0
     794:	9400      	str	r4, [sp, #0]
     796:	4811      	ldr	r0, [pc, #68]	; (7dc <RIT128x96x4Enable+0x5c>)
     798:	2408      	movs	r4, #8
     79a:	9401      	str	r4, [sp, #4]
     79c:	f006 fe8e 	bl	74bc <SSIConfigSetExpClk>
     7a0:	f04f 2040 	mov.w	r0, #1073758208	; 0x40004000
     7a4:	4621      	mov	r1, r4
     7a6:	f006 fdf6 	bl	7396 <GPIOPinTypeSSI>
     7aa:	2204      	movs	r2, #4
     7ac:	230a      	movs	r3, #10
     7ae:	f04f 2040 	mov.w	r0, #1073758208	; 0x40004000
     7b2:	4621      	mov	r1, r4
     7b4:	f006 fd5b 	bl	726e <GPIOPadConfigSet>
     7b8:	4808      	ldr	r0, [pc, #32]	; (7dc <RIT128x96x4Enable+0x5c>)
     7ba:	f006 fea4 	bl	7506 <SSIEnable>
     7be:	4b08      	ldr	r3, [pc, #32]	; (7e0 <RIT128x96x4Enable+0x60>)
     7c0:	f003 4270 	and.w	r2, r3, #4026531840	; 0xf0000000
     7c4:	f023 437f 	bic.w	r3, r3, #4278190080	; 0xff000000
     7c8:	f042 7200 	orr.w	r2, r2, #33554432	; 0x2000000
     7cc:	f423 0370 	bic.w	r3, r3, #15728640	; 0xf00000
     7d0:	ea42 1343 	orr.w	r3, r2, r3, lsl #5
     7d4:	2201      	movs	r2, #1
     7d6:	601a      	str	r2, [r3, #0]
     7d8:	bd1c      	pop	{r2, r3, r4, pc}
     7da:	bf00      	nop
     7dc:	40008000 	.word	0x40008000
     7e0:	20000114 	.word	0x20000114

000007e4 <RIT128x96x4Disable>:
     7e4:	4b17      	ldr	r3, [pc, #92]	; (844 <__STACKSIZE__+0x44>)
     7e6:	b507      	push	{r0, r1, r2, lr}
     7e8:	f003 4270 	and.w	r2, r3, #4026531840	; 0xf0000000
     7ec:	f023 437f 	bic.w	r3, r3, #4278190080	; 0xff000000
     7f0:	f042 7200 	orr.w	r2, r2, #33554432	; 0x2000000
     7f4:	f423 0370 	bic.w	r3, r3, #15728640	; 0xf00000
     7f8:	ea42 1343 	orr.w	r3, r2, r3, lsl #5
     7fc:	2200      	movs	r2, #0
     7fe:	601a      	str	r2, [r3, #0]
     800:	4811      	ldr	r0, [pc, #68]	; (848 <__STACKSIZE__+0x48>)
     802:	f006 fe9a 	bl	753a <SSIBusy>
     806:	2800      	cmp	r0, #0
     808:	d1fa      	bne.n	800 <__STACKSIZE__>
     80a:	480f      	ldr	r0, [pc, #60]	; (848 <__STACKSIZE__+0x48>)
     80c:	a901      	add	r1, sp, #4
     80e:	f006 fe8a 	bl	7526 <SSIDataGetNonBlocking>
     812:	2800      	cmp	r0, #0
     814:	d1f9      	bne.n	80a <__STACKSIZE__+0xa>
     816:	480c      	ldr	r0, [pc, #48]	; (848 <__STACKSIZE__+0x48>)
     818:	f006 fe7a 	bl	7510 <SSIDisable>
     81c:	2108      	movs	r1, #8
     81e:	f04f 2040 	mov.w	r0, #1073758208	; 0x40004000
     822:	f006 fd9c 	bl	735e <GPIOPinTypeGPIOOutput>
     826:	2108      	movs	r1, #8
     828:	2204      	movs	r2, #4
     82a:	f04f 2040 	mov.w	r0, #1073758208	; 0x40004000
     82e:	230a      	movs	r3, #10
     830:	f006 fd1d 	bl	726e <GPIOPadConfigSet>
     834:	2108      	movs	r1, #8
     836:	f04f 2040 	mov.w	r0, #1073758208	; 0x40004000
     83a:	460a      	mov	r2, r1
     83c:	f006 fd7e 	bl	733c <GPIOPinWrite>
     840:	bd0e      	pop	{r1, r2, r3, pc}
     842:	bf00      	nop
     844:	20000114 	.word	0x20000114
     848:	40008000 	.word	0x40008000

0000084c <RIT128x96x4Init>:
     84c:	b538      	push	{r3, r4, r5, lr}
     84e:	4604      	mov	r4, r0
     850:	4823      	ldr	r0, [pc, #140]	; (8e0 <RIT128x96x4Init+0x94>)
     852:	f006 fe97 	bl	7584 <SysCtlPeripheralEnable>
     856:	4823      	ldr	r0, [pc, #140]	; (8e4 <RIT128x96x4Init+0x98>)
     858:	f006 fe94 	bl	7584 <SysCtlPeripheralEnable>
     85c:	4821      	ldr	r0, [pc, #132]	; (8e4 <RIT128x96x4Init+0x98>)
     85e:	f006 fe91 	bl	7584 <SysCtlPeripheralEnable>
     862:	f04f 2040 	mov.w	r0, #1073758208	; 0x40004000
     866:	212c      	movs	r1, #44	; 0x2c
     868:	f006 fd95 	bl	7396 <GPIOPinTypeSSI>
     86c:	2204      	movs	r2, #4
     86e:	230a      	movs	r3, #10
     870:	f04f 2040 	mov.w	r0, #1073758208	; 0x40004000
     874:	212c      	movs	r1, #44	; 0x2c
     876:	f006 fcfa 	bl	726e <GPIOPadConfigSet>
     87a:	f04f 2040 	mov.w	r0, #1073758208	; 0x40004000
     87e:	21c0      	movs	r1, #192	; 0xc0
     880:	f006 fd6d 	bl	735e <GPIOPinTypeGPIOOutput>
     884:	2308      	movs	r3, #8
     886:	f04f 2040 	mov.w	r0, #1073758208	; 0x40004000
     88a:	21c0      	movs	r1, #192	; 0xc0
     88c:	2204      	movs	r2, #4
     88e:	f006 fcee 	bl	726e <GPIOPadConfigSet>
     892:	21c0      	movs	r1, #192	; 0xc0
     894:	460a      	mov	r2, r1
     896:	f04f 2040 	mov.w	r0, #1073758208	; 0x40004000
     89a:	f006 fd4f 	bl	733c <GPIOPinWrite>
     89e:	4a12      	ldr	r2, [pc, #72]	; (8e8 <RIT128x96x4Init+0x9c>)
     8a0:	4620      	mov	r0, r4
     8a2:	f002 4370 	and.w	r3, r2, #4026531840	; 0xf0000000
     8a6:	f043 7300 	orr.w	r3, r3, #33554432	; 0x2000000
     8aa:	f022 427f 	bic.w	r2, r2, #4278190080	; 0xff000000
     8ae:	f422 0270 	bic.w	r2, r2, #15728640	; 0xf00000
     8b2:	f043 0304 	orr.w	r3, r3, #4
     8b6:	ea43 1342 	orr.w	r3, r3, r2, lsl #5
     8ba:	2201      	movs	r2, #1
     8bc:	601a      	str	r2, [r3, #0]
     8be:	f7ff ff5f 	bl	780 <RIT128x96x4Enable>
     8c2:	f7ff fed1 	bl	668 <RIT128x96x4Clear>
     8c6:	2400      	movs	r4, #0
     8c8:	4b08      	ldr	r3, [pc, #32]	; (8ec <RIT128x96x4Init+0xa0>)
     8ca:	1c60      	adds	r0, r4, #1
     8cc:	5d1d      	ldrb	r5, [r3, r4]
     8ce:	1818      	adds	r0, r3, r0
     8d0:	1e69      	subs	r1, r5, #1
     8d2:	3501      	adds	r5, #1
     8d4:	1964      	adds	r4, r4, r5
     8d6:	f7ff fe47 	bl	568 <RITWriteCommand>
     8da:	2c4e      	cmp	r4, #78	; 0x4e
     8dc:	d9f4      	bls.n	8c8 <RIT128x96x4Init+0x7c>
     8de:	bd38      	pop	{r3, r4, r5, pc}
     8e0:	10000010 	.word	0x10000010
     8e4:	20000001 	.word	0x20000001
     8e8:	20000114 	.word	0x20000114
     8ec:	00008a8e 	.word	0x00008a8e

000008f0 <FindCGIParameter>:
     8f0:	b5f8      	push	{r3, r4, r5, r6, r7, lr}
     8f2:	4604      	mov	r4, r0
     8f4:	4617      	mov	r7, r2
     8f6:	460e      	mov	r6, r1
     8f8:	2500      	movs	r5, #0
     8fa:	e006      	b.n	90a <FindCGIParameter+0x1a>
     8fc:	4620      	mov	r0, r4
     8fe:	f856 1b04 	ldr.w	r1, [r6], #4
     902:	f007 facb 	bl	7e9c <strcmp>
     906:	b120      	cbz	r0, 912 <FindCGIParameter+0x22>
     908:	3501      	adds	r5, #1
     90a:	42bd      	cmp	r5, r7
     90c:	dbf6      	blt.n	8fc <FindCGIParameter+0xc>
     90e:	f04f 35ff 	mov.w	r5, #4294967295
     912:	4628      	mov	r0, r5
     914:	bdf8      	pop	{r3, r4, r5, r6, r7, pc}

00000916 <IsValidHexDigit>:
     916:	f1a0 0330 	sub.w	r3, r0, #48	; 0x30
     91a:	b2db      	uxtb	r3, r3
     91c:	2b09      	cmp	r3, #9
     91e:	d90b      	bls.n	938 <IsValidHexDigit+0x22>
     920:	f1a0 0361 	sub.w	r3, r0, #97	; 0x61
     924:	b2db      	uxtb	r3, r3
     926:	2b05      	cmp	r3, #5
     928:	d908      	bls.n	93c <IsValidHexDigit+0x26>
     92a:	3841      	subs	r0, #65	; 0x41
     92c:	b2c0      	uxtb	r0, r0
     92e:	2805      	cmp	r0, #5
     930:	bf8c      	ite	hi
     932:	2000      	movhi	r0, #0
     934:	2001      	movls	r0, #1
     936:	4770      	bx	lr
     938:	2001      	movs	r0, #1
     93a:	4770      	bx	lr
     93c:	2001      	movs	r0, #1
     93e:	4770      	bx	lr

00000940 <HexDigit>:
     940:	4603      	mov	r3, r0
     942:	3830      	subs	r0, #48	; 0x30
     944:	b2c0      	uxtb	r0, r0
     946:	2809      	cmp	r0, #9
     948:	d911      	bls.n	96e <HexDigit+0x2e>
     94a:	f1a3 0261 	sub.w	r2, r3, #97	; 0x61
     94e:	b2d2      	uxtb	r2, r2
     950:	2a05      	cmp	r2, #5
     952:	d802      	bhi.n	95a <HexDigit+0x1a>
     954:	f1a3 0057 	sub.w	r0, r3, #87	; 0x57
     958:	e006      	b.n	968 <HexDigit+0x28>
     95a:	f1a3 0241 	sub.w	r2, r3, #65	; 0x41
     95e:	b2d2      	uxtb	r2, r2
     960:	2a05      	cmp	r2, #5
     962:	d803      	bhi.n	96c <HexDigit+0x2c>
     964:	f1a3 0037 	sub.w	r0, r3, #55	; 0x37
     968:	b2c0      	uxtb	r0, r0
     96a:	4770      	bx	lr
     96c:	20ff      	movs	r0, #255	; 0xff
     96e:	4770      	bx	lr

00000970 <DecodeHexEscape>:
     970:	b570      	push	{r4, r5, r6, lr}
     972:	7803      	ldrb	r3, [r0, #0]
     974:	4604      	mov	r4, r0
     976:	2b25      	cmp	r3, #37	; 0x25
     978:	460e      	mov	r6, r1
     97a:	d115      	bne.n	9a8 <DecodeHexEscape+0x38>
     97c:	7845      	ldrb	r5, [r0, #1]
     97e:	4628      	mov	r0, r5
     980:	f7ff ffc9 	bl	916 <IsValidHexDigit>
     984:	b188      	cbz	r0, 9aa <DecodeHexEscape+0x3a>
     986:	78a4      	ldrb	r4, [r4, #2]
     988:	4620      	mov	r0, r4
     98a:	f7ff ffc4 	bl	916 <IsValidHexDigit>
     98e:	b160      	cbz	r0, 9aa <DecodeHexEscape+0x3a>
     990:	4628      	mov	r0, r5
     992:	f7ff ffd5 	bl	940 <HexDigit>
     996:	4605      	mov	r5, r0
     998:	4620      	mov	r0, r4
     99a:	f7ff ffd1 	bl	940 <HexDigit>
     99e:	eb00 1005 	add.w	r0, r0, r5, lsl #4
     9a2:	7030      	strb	r0, [r6, #0]
     9a4:	2001      	movs	r0, #1
     9a6:	bd70      	pop	{r4, r5, r6, pc}
     9a8:	2000      	movs	r0, #0
     9aa:	bd70      	pop	{r4, r5, r6, pc}

000009ac <DecodeFormString>:
     9ac:	e92d 41f0 	stmdb	sp!, {r4, r5, r6, r7, r8, lr}
     9b0:	2600      	movs	r6, #0
     9b2:	4605      	mov	r5, r0
     9b4:	460c      	mov	r4, r1
     9b6:	4690      	mov	r8, r2
     9b8:	4637      	mov	r7, r6
     9ba:	e016      	b.n	9ea <DecodeFormString+0x3e>
     9bc:	2b25      	cmp	r3, #37	; 0x25
     9be:	d007      	beq.n	9d0 <DecodeFormString+0x24>
     9c0:	2b2b      	cmp	r3, #43	; 0x2b
     9c2:	f106 0201 	add.w	r2, r6, #1
     9c6:	f107 0701 	add.w	r7, r7, #1
     9ca:	d10c      	bne.n	9e6 <DecodeFormString+0x3a>
     9cc:	3b0b      	subs	r3, #11
     9ce:	e00a      	b.n	9e6 <DecodeFormString+0x3a>
     9d0:	7843      	ldrb	r3, [r0, #1]
     9d2:	b18b      	cbz	r3, 9f8 <DecodeFormString+0x4c>
     9d4:	7883      	ldrb	r3, [r0, #2]
     9d6:	b17b      	cbz	r3, 9f8 <DecodeFormString+0x4c>
     9d8:	19a1      	adds	r1, r4, r6
     9da:	f7ff ffc9 	bl	970 <DecodeHexEscape>
     9de:	b100      	cbz	r0, 9e2 <DecodeFormString+0x36>
     9e0:	3601      	adds	r6, #1
     9e2:	3703      	adds	r7, #3
     9e4:	e001      	b.n	9ea <DecodeFormString+0x3e>
     9e6:	55a3      	strb	r3, [r4, r6]
     9e8:	4616      	mov	r6, r2
     9ea:	5deb      	ldrb	r3, [r5, r7]
     9ec:	19e8      	adds	r0, r5, r7
     9ee:	b11b      	cbz	r3, 9f8 <DecodeFormString+0x4c>
     9f0:	f108 32ff 	add.w	r2, r8, #4294967295
     9f4:	4296      	cmp	r6, r2
     9f6:	d3e1      	bcc.n	9bc <DecodeFormString+0x10>
     9f8:	2300      	movs	r3, #0
     9fa:	55a3      	strb	r3, [r4, r6]
     9fc:	4630      	mov	r0, r6
     9fe:	e8bd 81f0 	ldmia.w	sp!, {r4, r5, r6, r7, r8, pc}

00000a02 <CheckDecimalParam>:
     a02:	2300      	movs	r3, #0
     a04:	b5f0      	push	{r4, r5, r6, r7, lr}
     a06:	461a      	mov	r2, r3
     a08:	461f      	mov	r7, r3
     a0a:	461d      	mov	r5, r3
     a0c:	461e      	mov	r6, r3
     a0e:	e02c      	b.n	a6a <CheckDecimalParam+0x68>
     a10:	b976      	cbnz	r6, a30 <CheckDecimalParam+0x2e>
     a12:	2c20      	cmp	r4, #32
     a14:	d028      	beq.n	a68 <CheckDecimalParam+0x66>
     a16:	2c09      	cmp	r4, #9
     a18:	d026      	beq.n	a68 <CheckDecimalParam+0x66>
     a1a:	2c2b      	cmp	r4, #43	; 0x2b
     a1c:	d001      	beq.n	a22 <CheckDecimalParam+0x20>
     a1e:	2c2d      	cmp	r4, #45	; 0x2d
     a20:	d105      	bne.n	a2e <CheckDecimalParam+0x2c>
     a22:	f1a4 042d 	sub.w	r4, r4, #45	; 0x2d
     a26:	4267      	negs	r7, r4
     a28:	eb47 0704 	adc.w	r7, r7, r4
     a2c:	3201      	adds	r2, #1
     a2e:	2601      	movs	r6, #1
     a30:	5c84      	ldrb	r4, [r0, r2]
     a32:	b99d      	cbnz	r5, a5c <CheckDecimalParam+0x5a>
     a34:	f1a4 0c30 	sub.w	ip, r4, #48	; 0x30
     a38:	fa5f fc8c 	uxtb.w	ip, ip
     a3c:	f1bc 0f09 	cmp.w	ip, #9
     a40:	d806      	bhi.n	a50 <CheckDecimalParam+0x4e>
     a42:	f04f 0c0a 	mov.w	ip, #10
     a46:	fb0c f303 	mul.w	r3, ip, r3
     a4a:	3b30      	subs	r3, #48	; 0x30
     a4c:	191b      	adds	r3, r3, r4
     a4e:	e00b      	b.n	a68 <CheckDecimalParam+0x66>
     a50:	2c20      	cmp	r4, #32
     a52:	d008      	beq.n	a66 <CheckDecimalParam+0x64>
     a54:	2c09      	cmp	r4, #9
     a56:	d006      	beq.n	a66 <CheckDecimalParam+0x64>
     a58:	4628      	mov	r0, r5
     a5a:	bdf0      	pop	{r4, r5, r6, r7, pc}
     a5c:	2c20      	cmp	r4, #32
     a5e:	d003      	beq.n	a68 <CheckDecimalParam+0x66>
     a60:	2c09      	cmp	r4, #9
     a62:	d001      	beq.n	a68 <CheckDecimalParam+0x66>
     a64:	e009      	b.n	a7a <CheckDecimalParam+0x78>
     a66:	2501      	movs	r5, #1
     a68:	3201      	adds	r2, #1
     a6a:	5c84      	ldrb	r4, [r0, r2]
     a6c:	2c00      	cmp	r4, #0
     a6e:	d1cf      	bne.n	a10 <CheckDecimalParam+0xe>
     a70:	b107      	cbz	r7, a74 <CheckDecimalParam+0x72>
     a72:	425b      	negs	r3, r3
     a74:	600b      	str	r3, [r1, #0]
     a76:	2001      	movs	r0, #1
     a78:	bdf0      	pop	{r4, r5, r6, r7, pc}
     a7a:	2000      	movs	r0, #0
     a7c:	bdf0      	pop	{r4, r5, r6, r7, pc}

00000a7e <GetCGIParam>:
     a7e:	b513      	push	{r0, r1, r4, lr}
     a80:	4614      	mov	r4, r2
     a82:	461a      	mov	r2, r3
     a84:	f7ff ff34 	bl	8f0 <FindCGIParameter>
     a88:	f1b0 3fff 	cmp.w	r0, #4294967295
     a8c:	d007      	beq.n	a9e <GetCGIParam+0x20>
     a8e:	f854 0020 	ldr.w	r0, [r4, r0, lsl #2]
     a92:	a901      	add	r1, sp, #4
     a94:	f7ff ffb5 	bl	a02 <CheckDecimalParam>
     a98:	b108      	cbz	r0, a9e <GetCGIParam+0x20>
     a9a:	9801      	ldr	r0, [sp, #4]
     a9c:	e003      	b.n	aa6 <GetCGIParam+0x28>
     a9e:	9b04      	ldr	r3, [sp, #16]
     aa0:	2201      	movs	r2, #1
     aa2:	701a      	strb	r2, [r3, #0]
     aa4:	2000      	movs	r0, #0
     aa6:	bd1c      	pop	{r2, r3, r4, pc}

00000aa8 <http_accept>:
     aa8:	b538      	push	{r3, r4, r5, lr}
     aaa:	f44f 70c0 	mov.w	r0, #384	; 0x180
     aae:	460d      	mov	r5, r1
     ab0:	f001 f8c6 	bl	1c40 <mem_malloc>
     ab4:	4601      	mov	r1, r0
     ab6:	b1d8      	cbz	r0, af0 <http_accept+0x48>
     ab8:	2400      	movs	r4, #0
     aba:	2303      	movs	r3, #3
     abc:	f8a0 317e 	strh.w	r3, [r0, #382]	; 0x17e
     ac0:	6004      	str	r4, [r0, #0]
     ac2:	6044      	str	r4, [r0, #4]
     ac4:	6084      	str	r4, [r0, #8]
     ac6:	61c4      	str	r4, [r0, #28]
     ac8:	6184      	str	r4, [r0, #24]
     aca:	f880 4020 	strb.w	r4, [r0, #32]
     ace:	4628      	mov	r0, r5
     ad0:	f001 fae5 	bl	209e <tcp_arg>
     ad4:	4628      	mov	r0, r5
     ad6:	4908      	ldr	r1, [pc, #32]	; (af8 <http_accept+0x50>)
     ad8:	f001 fae3 	bl	20a2 <tcp_recv>
     adc:	4628      	mov	r0, r5
     ade:	4907      	ldr	r1, [pc, #28]	; (afc <http_accept+0x54>)
     ae0:	f001 fae5 	bl	20ae <tcp_err>
     ae4:	4628      	mov	r0, r5
     ae6:	4906      	ldr	r1, [pc, #24]	; (b00 <http_accept+0x58>)
     ae8:	2204      	movs	r2, #4
     aea:	f001 fae5 	bl	20b8 <tcp_poll>
     aee:	e000      	b.n	af2 <http_accept+0x4a>
     af0:	24ff      	movs	r4, #255	; 0xff
     af2:	b260      	sxtb	r0, r4
     af4:	bd38      	pop	{r3, r4, r5, pc}
     af6:	bf00      	nop
     af8:	00001081 	.word	0x00001081
     afc:	00000b05 	.word	0x00000b05
     b00:	00000ff5 	.word	0x00000ff5

00000b04 <conn_err>:
     b04:	b510      	push	{r4, lr}
     b06:	4604      	mov	r4, r0
     b08:	b170      	cbz	r0, b28 <conn_err+0x24>
     b0a:	6800      	ldr	r0, [r0, #0]
     b0c:	b118      	cbz	r0, b16 <conn_err+0x12>
     b0e:	f000 fe5b 	bl	17c8 <fs_close>
     b12:	2300      	movs	r3, #0
     b14:	6023      	str	r3, [r4, #0]
     b16:	68a0      	ldr	r0, [r4, #8]
     b18:	b108      	cbz	r0, b1e <conn_err+0x1a>
     b1a:	f001 ffbf 	bl	2a9c <mem_free>
     b1e:	4620      	mov	r0, r4
     b20:	e8bd 4010 	ldmia.w	sp!, {r4, lr}
     b24:	f001 bfba 	b.w	2a9c <mem_free>
     b28:	bd10      	pop	{r4, pc}

00000b2a <close_conn>:
     b2a:	b570      	push	{r4, r5, r6, lr}
     b2c:	4605      	mov	r5, r0
     b2e:	460c      	mov	r4, r1
     b30:	2100      	movs	r1, #0
     b32:	f001 fab4 	bl	209e <tcp_arg>
     b36:	4628      	mov	r0, r5
     b38:	2100      	movs	r1, #0
     b3a:	f001 fab5 	bl	20a8 <tcp_sent>
     b3e:	4628      	mov	r0, r5
     b40:	2100      	movs	r1, #0
     b42:	f001 faae 	bl	20a2 <tcp_recv>
     b46:	b164      	cbz	r4, b62 <close_conn+0x38>
     b48:	6820      	ldr	r0, [r4, #0]
     b4a:	b118      	cbz	r0, b54 <close_conn+0x2a>
     b4c:	f000 fe3c 	bl	17c8 <fs_close>
     b50:	2300      	movs	r3, #0
     b52:	6023      	str	r3, [r4, #0]
     b54:	68a0      	ldr	r0, [r4, #8]
     b56:	b108      	cbz	r0, b5c <close_conn+0x32>
     b58:	f001 ffa0 	bl	2a9c <mem_free>
     b5c:	4620      	mov	r0, r4
     b5e:	f001 ff9d 	bl	2a9c <mem_free>
     b62:	4628      	mov	r0, r5
     b64:	e8bd 4070 	ldmia.w	sp!, {r4, r5, r6, lr}
     b68:	f004 bb06 	b.w	5178 <tcp_close>

00000b6c <send_data>:
     b6c:	e92d 4ff7 	stmdb	sp!, {r0, r1, r2, r4, r5, r6, r7, r8, r9, sl, fp, lr}
     b70:	4606      	mov	r6, r0
     b72:	460c      	mov	r4, r1
     b74:	2900      	cmp	r1, #0
     b76:	f000 823a 	beq.w	fee <send_data+0x482>
     b7a:	f8b1 317e 	ldrh.w	r3, [r1, #382]	; 0x17e
     b7e:	2b02      	cmp	r3, #2
     b80:	d84c      	bhi.n	c1c <send_data+0xb0>
     b82:	f8b0 706e 	ldrh.w	r7, [r0, #110]	; 0x6e
     b86:	f04f 0900 	mov.w	r9, #0
     b8a:	463d      	mov	r5, r7
     b8c:	46c8      	mov	r8, r9
     b8e:	e038      	b.n	c02 <send_data+0x96>
     b90:	335c      	adds	r3, #92	; 0x5c
     b92:	f854 0023 	ldr.w	r0, [r4, r3, lsl #2]
     b96:	f007 fa79 	bl	808c <strlen>
     b9a:	f8b4 517c 	ldrh.w	r5, [r4, #380]	; 0x17c
     b9e:	fa1f fa80 	uxth.w	sl, r0
     ba2:	ebc5 050a 	rsb	r5, r5, sl
     ba6:	42bd      	cmp	r5, r7
     ba8:	bfa8      	it	ge
     baa:	463d      	movge	r5, r7
     bac:	b2ad      	uxth	r5, r5
     bae:	f8b4 217e 	ldrh.w	r2, [r4, #382]	; 0x17e
     bb2:	f8b4 317c 	ldrh.w	r3, [r4, #380]	; 0x17c
     bb6:	325c      	adds	r2, #92	; 0x5c
     bb8:	f854 1022 	ldr.w	r1, [r4, r2, lsl #2]
     bbc:	4630      	mov	r0, r6
     bbe:	18c9      	adds	r1, r1, r3
     bc0:	462a      	mov	r2, r5
     bc2:	2300      	movs	r3, #0
     bc4:	f004 fab8 	bl	5138 <tcp_write>
     bc8:	f1b0 3fff 	cmp.w	r0, #4294967295
     bcc:	4680      	mov	r8, r0
     bce:	d102      	bne.n	bd6 <send_data+0x6a>
     bd0:	086d      	lsrs	r5, r5, #1
     bd2:	d1ec      	bne.n	bae <send_data+0x42>
     bd4:	e003      	b.n	bde <send_data+0x72>
     bd6:	2800      	cmp	r0, #0
     bd8:	bf08      	it	eq
     bda:	f04f 0901 	moveq.w	r9, #1
     bde:	f8b4 317c 	ldrh.w	r3, [r4, #380]	; 0x17c
     be2:	1b7f      	subs	r7, r7, r5
     be4:	18eb      	adds	r3, r5, r3
     be6:	b29b      	uxth	r3, r3
     be8:	4553      	cmp	r3, sl
     bea:	f8a4 317c 	strh.w	r3, [r4, #380]	; 0x17c
     bee:	b2bf      	uxth	r7, r7
     bf0:	d107      	bne.n	c02 <send_data+0x96>
     bf2:	f8b4 317e 	ldrh.w	r3, [r4, #382]	; 0x17e
     bf6:	2100      	movs	r1, #0
     bf8:	3301      	adds	r3, #1
     bfa:	f8a4 317e 	strh.w	r3, [r4, #382]	; 0x17e
     bfe:	f8a4 117c 	strh.w	r1, [r4, #380]	; 0x17c
     c02:	f8b4 317e 	ldrh.w	r3, [r4, #382]	; 0x17e
     c06:	b11f      	cbz	r7, c10 <send_data+0xa4>
     c08:	2b02      	cmp	r3, #2
     c0a:	d801      	bhi.n	c10 <send_data+0xa4>
     c0c:	2d00      	cmp	r5, #0
     c0e:	d1bf      	bne.n	b90 <send_data+0x24>
     c10:	2b02      	cmp	r3, #2
     c12:	f240 81e6 	bls.w	fe2 <send_data+0x476>
     c16:	6863      	ldr	r3, [r4, #4]
     c18:	b91b      	cbnz	r3, c22 <send_data+0xb6>
     c1a:	e1e2      	b.n	fe2 <send_data+0x476>
     c1c:	f04f 0900 	mov.w	r9, #0
     c20:	46c8      	mov	r8, r9
     c22:	69a3      	ldr	r3, [r4, #24]
     c24:	2b00      	cmp	r3, #0
     c26:	d129      	bne.n	c7c <send_data+0x110>
     c28:	68a3      	ldr	r3, [r4, #8]
     c2a:	b10b      	cbz	r3, c30 <send_data+0xc4>
     c2c:	69e5      	ldr	r5, [r4, #28]
     c2e:	e00c      	b.n	c4a <send_data+0xde>
     c30:	8f35      	ldrh	r5, [r6, #56]	; 0x38
     c32:	006d      	lsls	r5, r5, #1
     c34:	b2a8      	uxth	r0, r5
     c36:	f001 f803 	bl	1c40 <mem_malloc>
     c3a:	60a0      	str	r0, [r4, #8]
     c3c:	b108      	cbz	r0, c42 <send_data+0xd6>
     c3e:	61e5      	str	r5, [r4, #28]
     c40:	e003      	b.n	c4a <send_data+0xde>
     c42:	106d      	asrs	r5, r5, #1
     c44:	2d64      	cmp	r5, #100	; 0x64
     c46:	dcf5      	bgt.n	c34 <send_data+0xc8>
     c48:	e1d1      	b.n	fee <send_data+0x482>
     c4a:	6820      	ldr	r0, [r4, #0]
     c4c:	b150      	cbz	r0, c64 <send_data+0xf8>
     c4e:	68a1      	ldr	r1, [r4, #8]
     c50:	462a      	mov	r2, r5
     c52:	f000 fdbb 	bl	17cc <fs_read>
     c56:	2800      	cmp	r0, #0
     c58:	da0b      	bge.n	c72 <send_data+0x106>
     c5a:	6820      	ldr	r0, [r4, #0]
     c5c:	f000 fdb4 	bl	17c8 <fs_close>
     c60:	2300      	movs	r3, #0
     c62:	6023      	str	r3, [r4, #0]
     c64:	4630      	mov	r0, r6
     c66:	4621      	mov	r1, r4
     c68:	b003      	add	sp, #12
     c6a:	e8bd 4ff0 	ldmia.w	sp!, {r4, r5, r6, r7, r8, r9, sl, fp, lr}
     c6e:	f7ff bf5c 	b.w	b2a <close_conn>
     c72:	68a3      	ldr	r3, [r4, #8]
     c74:	61a0      	str	r0, [r4, #24]
     c76:	6063      	str	r3, [r4, #4]
     c78:	6160      	str	r0, [r4, #20]
     c7a:	60e3      	str	r3, [r4, #12]
     c7c:	f894 3021 	ldrb.w	r3, [r4, #33]	; 0x21
     c80:	f8b6 506e 	ldrh.w	r5, [r6, #110]	; 0x6e
     c84:	b9d3      	cbnz	r3, cbc <send_data+0x150>
     c86:	69a3      	ldr	r3, [r4, #24]
     c88:	429d      	cmp	r5, r3
     c8a:	bf28      	it	cs
     c8c:	b29d      	uxthcs	r5, r3
     c8e:	8f33      	ldrh	r3, [r6, #56]	; 0x38
     c90:	005b      	lsls	r3, r3, #1
     c92:	429d      	cmp	r5, r3
     c94:	bfc8      	it	gt
     c96:	b29d      	uxthgt	r5, r3
     c98:	6861      	ldr	r1, [r4, #4]
     c9a:	4630      	mov	r0, r6
     c9c:	f1b1 5f00 	cmp.w	r1, #536870912	; 0x20000000
     ca0:	bf34      	ite	cc
     ca2:	2300      	movcc	r3, #0
     ca4:	2301      	movcs	r3, #1
     ca6:	462a      	mov	r2, r5
     ca8:	f004 fa46 	bl	5138 <tcp_write>
     cac:	f1b0 3fff 	cmp.w	r0, #4294967295
     cb0:	f040 818c 	bne.w	fcc <send_data+0x460>
     cb4:	086d      	lsrs	r5, r5, #1
     cb6:	2d01      	cmp	r5, #1
     cb8:	d8ee      	bhi.n	c98 <send_data+0x12c>
     cba:	e18f      	b.n	fdc <send_data+0x470>
     cbc:	68e2      	ldr	r2, [r4, #12]
     cbe:	6863      	ldr	r3, [r4, #4]
     cc0:	429a      	cmp	r2, r3
     cc2:	f240 814e 	bls.w	f62 <send_data+0x3f6>
     cc6:	1ad3      	subs	r3, r2, r3
     cc8:	429d      	cmp	r5, r3
     cca:	bfa8      	it	ge
     ccc:	b29d      	uxthge	r5, r3
     cce:	8f33      	ldrh	r3, [r6, #56]	; 0x38
     cd0:	005b      	lsls	r3, r3, #1
     cd2:	429d      	cmp	r5, r3
     cd4:	bfc8      	it	gt
     cd6:	b29d      	uxthgt	r5, r3
     cd8:	2300      	movs	r3, #0
     cda:	4630      	mov	r0, r6
     cdc:	6861      	ldr	r1, [r4, #4]
     cde:	462a      	mov	r2, r5
     ce0:	f004 fa2a 	bl	5138 <tcp_write>
     ce4:	f1b0 3fff 	cmp.w	r0, #4294967295
     ce8:	4680      	mov	r8, r0
     cea:	d103      	bne.n	cf4 <send_data+0x188>
     cec:	086d      	lsrs	r5, r5, #1
     cee:	2d01      	cmp	r5, #1
     cf0:	d8f2      	bhi.n	cd8 <send_data+0x16c>
     cf2:	e008      	b.n	d06 <send_data+0x19a>
     cf4:	b938      	cbnz	r0, d06 <send_data+0x19a>
     cf6:	6863      	ldr	r3, [r4, #4]
     cf8:	f04f 0901 	mov.w	r9, #1
     cfc:	195b      	adds	r3, r3, r5
     cfe:	6063      	str	r3, [r4, #4]
     d00:	69a3      	ldr	r3, [r4, #24]
     d02:	1b5b      	subs	r3, r3, r5
     d04:	61a3      	str	r3, [r4, #24]
     d06:	f8b6 306e 	ldrh.w	r3, [r6, #110]	; 0x6e
     d0a:	2b00      	cmp	r3, #0
     d0c:	f040 8129 	bne.w	f62 <send_data+0x3f6>
     d10:	e164      	b.n	fdc <send_data+0x470>
     d12:	2b04      	cmp	r3, #4
     d14:	d8fd      	bhi.n	d12 <send_data+0x1a6>
     d16:	e8df f013 	tbh	[pc, r3, lsl #1]
     d1a:	0005      	.short	0x0005
     d1c:	0026000f 	.word	0x0026000f
     d20:	00db006b 	.word	0x00db006b
     d24:	68e3      	ldr	r3, [r4, #12]
     d26:	7819      	ldrb	r1, [r3, #0]
     d28:	293c      	cmp	r1, #60	; 0x3c
     d2a:	d16e      	bne.n	e0a <send_data+0x29e>
     d2c:	393b      	subs	r1, #59	; 0x3b
     d2e:	f884 10ef 	strb.w	r1, [r4, #239]	; 0xef
     d32:	f884 1022 	strb.w	r1, [r4, #34]	; 0x22
     d36:	e068      	b.n	e0a <send_data+0x29e>
     d38:	f894 3022 	ldrb.w	r3, [r4, #34]	; 0x22
     d3c:	2b05      	cmp	r3, #5
     d3e:	d104      	bne.n	d4a <send_data+0x1de>
     d40:	3b05      	subs	r3, #5
     d42:	f884 3022 	strb.w	r3, [r4, #34]	; 0x22
     d46:	3302      	adds	r3, #2
     d48:	e109      	b.n	f5e <send_data+0x3f2>
     d4a:	68e1      	ldr	r1, [r4, #12]
     d4c:	4898      	ldr	r0, [pc, #608]	; (fb0 <send_data+0x444>)
     d4e:	780f      	ldrb	r7, [r1, #0]
     d50:	5cc0      	ldrb	r0, [r0, r3]
     d52:	4287      	cmp	r7, r0
     d54:	d103      	bne.n	d5e <send_data+0x1f2>
     d56:	3301      	adds	r3, #1
     d58:	f884 3022 	strb.w	r3, [r4, #34]	; 0x22
     d5c:	e010      	b.n	d80 <send_data+0x214>
     d5e:	2300      	movs	r3, #0
     d60:	f884 30ef 	strb.w	r3, [r4, #239]	; 0xef
     d64:	e00c      	b.n	d80 <send_data+0x214>
     d66:	f894 3022 	ldrb.w	r3, [r4, #34]	; 0x22
     d6a:	b973      	cbnz	r3, d8a <send_data+0x21e>
     d6c:	68e1      	ldr	r1, [r4, #12]
     d6e:	7808      	ldrb	r0, [r1, #0]
     d70:	3809      	subs	r0, #9
     d72:	b2c7      	uxtb	r7, r0
     d74:	2f17      	cmp	r7, #23
     d76:	d808      	bhi.n	d8a <send_data+0x21e>
     d78:	4f8e      	ldr	r7, [pc, #568]	; (fb4 <send_data+0x448>)
     d7a:	b240      	sxtb	r0, r0
     d7c:	4087      	lsls	r7, r0
     d7e:	d504      	bpl.n	d8a <send_data+0x21e>
     d80:	3a01      	subs	r2, #1
     d82:	3101      	adds	r1, #1
     d84:	6162      	str	r2, [r4, #20]
     d86:	60e1      	str	r1, [r4, #12]
     d88:	e0eb      	b.n	f62 <send_data+0x3f6>
     d8a:	68e1      	ldr	r1, [r4, #12]
     d8c:	780a      	ldrb	r2, [r1, #0]
     d8e:	2a0d      	cmp	r2, #13
     d90:	d009      	beq.n	da6 <send_data+0x23a>
     d92:	d804      	bhi.n	d9e <send_data+0x232>
     d94:	f1a2 0009 	sub.w	r0, r2, #9
     d98:	2801      	cmp	r0, #1
     d9a:	d816      	bhi.n	dca <send_data+0x25e>
     d9c:	e003      	b.n	da6 <send_data+0x23a>
     d9e:	2a20      	cmp	r2, #32
     da0:	d001      	beq.n	da6 <send_data+0x23a>
     da2:	2a2d      	cmp	r2, #45	; 0x2d
     da4:	d111      	bne.n	dca <send_data+0x25e>
     da6:	b1d3      	cbz	r3, dde <send_data+0x272>
     da8:	2203      	movs	r2, #3
     daa:	f884 20ef 	strb.w	r2, [r4, #239]	; 0xef
     dae:	f884 3024 	strb.w	r3, [r4, #36]	; 0x24
     db2:	3a03      	subs	r2, #3
     db4:	18e3      	adds	r3, r4, r3
     db6:	f883 2025 	strb.w	r2, [r3, #37]	; 0x25
     dba:	780b      	ldrb	r3, [r1, #0]
     dbc:	2b2d      	cmp	r3, #45	; 0x2d
     dbe:	d101      	bne.n	dc4 <send_data+0x258>
     dc0:	3b2c      	subs	r3, #44	; 0x2c
     dc2:	e008      	b.n	dd6 <send_data+0x26a>
     dc4:	f884 2022 	strb.w	r2, [r4, #34]	; 0x22
     dc8:	e00b      	b.n	de2 <send_data+0x276>
     dca:	2b07      	cmp	r3, #7
     dcc:	d806      	bhi.n	ddc <send_data+0x270>
     dce:	18e1      	adds	r1, r4, r3
     dd0:	f881 2025 	strb.w	r2, [r1, #37]	; 0x25
     dd4:	3301      	adds	r3, #1
     dd6:	f884 3022 	strb.w	r3, [r4, #34]	; 0x22
     dda:	e002      	b.n	de2 <send_data+0x276>
     ddc:	2300      	movs	r3, #0
     dde:	f884 30ef 	strb.w	r3, [r4, #239]	; 0xef
     de2:	6963      	ldr	r3, [r4, #20]
     de4:	3b01      	subs	r3, #1
     de6:	6163      	str	r3, [r4, #20]
     de8:	68e3      	ldr	r3, [r4, #12]
     dea:	3301      	adds	r3, #1
     dec:	60e3      	str	r3, [r4, #12]
     dee:	e0b8      	b.n	f62 <send_data+0x3f6>
     df0:	f894 1022 	ldrb.w	r1, [r4, #34]	; 0x22
     df4:	b961      	cbnz	r1, e10 <send_data+0x2a4>
     df6:	68e3      	ldr	r3, [r4, #12]
     df8:	7818      	ldrb	r0, [r3, #0]
     dfa:	3809      	subs	r0, #9
     dfc:	b2c7      	uxtb	r7, r0
     dfe:	2f17      	cmp	r7, #23
     e00:	d806      	bhi.n	e10 <send_data+0x2a4>
     e02:	4f6c      	ldr	r7, [pc, #432]	; (fb4 <send_data+0x448>)
     e04:	b240      	sxtb	r0, r0
     e06:	4087      	lsls	r7, r0
     e08:	d502      	bpl.n	e10 <send_data+0x2a4>
     e0a:	3a01      	subs	r2, #1
     e0c:	6162      	str	r2, [r4, #20]
     e0e:	e7ec      	b.n	dea <send_data+0x27e>
     e10:	68e3      	ldr	r3, [r4, #12]
     e12:	4869      	ldr	r0, [pc, #420]	; (fb8 <send_data+0x44c>)
     e14:	f813 7b01 	ldrb.w	r7, [r3], #1
     e18:	5c40      	ldrb	r0, [r0, r1]
     e1a:	3a01      	subs	r2, #1
     e1c:	4287      	cmp	r7, r0
     e1e:	d153      	bne.n	ec8 <send_data+0x35c>
     e20:	2902      	cmp	r1, #2
     e22:	6162      	str	r2, [r4, #20]
     e24:	60e3      	str	r3, [r4, #12]
     e26:	d14b      	bne.n	ec0 <send_data+0x354>
     e28:	4b64      	ldr	r3, [pc, #400]	; (fbc <send_data+0x450>)
     e2a:	681b      	ldr	r3, [r3, #0]
     e2c:	b1eb      	cbz	r3, e6a <send_data+0x2fe>
     e2e:	4a64      	ldr	r2, [pc, #400]	; (fc0 <send_data+0x454>)
     e30:	6812      	ldr	r2, [r2, #0]
     e32:	b1d2      	cbz	r2, e6a <send_data+0x2fe>
     e34:	4963      	ldr	r1, [pc, #396]	; (fc4 <send_data+0x458>)
     e36:	f8d1 b000 	ldr.w	fp, [r1]
     e3a:	f1bb 0f00 	cmp.w	fp, #0
     e3e:	d014      	beq.n	e6a <send_data+0x2fe>
     e40:	4692      	mov	sl, r2
     e42:	2700      	movs	r7, #0
     e44:	e00f      	b.n	e66 <send_data+0x2fa>
     e46:	f85a 1b04 	ldr.w	r1, [sl], #4
     e4a:	f104 0025 	add.w	r0, r4, #37	; 0x25
     e4e:	9301      	str	r3, [sp, #4]
     e50:	f007 f824 	bl	7e9c <strcmp>
     e54:	9b01      	ldr	r3, [sp, #4]
     e56:	b928      	cbnz	r0, e64 <send_data+0x2f8>
     e58:	4638      	mov	r0, r7
     e5a:	f104 012e 	add.w	r1, r4, #46	; 0x2e
     e5e:	22c0      	movs	r2, #192	; 0xc0
     e60:	4798      	blx	r3
     e62:	e00e      	b.n	e82 <send_data+0x316>
     e64:	3701      	adds	r7, #1
     e66:	455f      	cmp	r7, fp
     e68:	dbed      	blt.n	e46 <send_data+0x2da>
     e6a:	f104 072e 	add.w	r7, r4, #46	; 0x2e
     e6e:	4638      	mov	r0, r7
     e70:	21c1      	movs	r1, #193	; 0xc1
     e72:	4a55      	ldr	r2, [pc, #340]	; (fc8 <send_data+0x45c>)
     e74:	f104 0325 	add.w	r3, r4, #37	; 0x25
     e78:	f006 f8d2 	bl	7020 <usnprintf>
     e7c:	4638      	mov	r0, r7
     e7e:	f007 f905 	bl	808c <strlen>
     e82:	2300      	movs	r3, #0
     e84:	f884 3022 	strb.w	r3, [r4, #34]	; 0x22
     e88:	3304      	adds	r3, #4
     e8a:	f884 30ef 	strb.w	r3, [r4, #239]	; 0xef
     e8e:	6862      	ldr	r2, [r4, #4]
     e90:	68e3      	ldr	r3, [r4, #12]
     e92:	f884 0023 	strb.w	r0, [r4, #35]	; 0x23
     e96:	4293      	cmp	r3, r2
     e98:	6123      	str	r3, [r4, #16]
     e9a:	d962      	bls.n	f62 <send_data+0x3f6>
     e9c:	1a9b      	subs	r3, r3, r2
     e9e:	429d      	cmp	r5, r3
     ea0:	bfc8      	it	gt
     ea2:	b29d      	uxthgt	r5, r3
     ea4:	2300      	movs	r3, #0
     ea6:	4630      	mov	r0, r6
     ea8:	6861      	ldr	r1, [r4, #4]
     eaa:	462a      	mov	r2, r5
     eac:	f004 f944 	bl	5138 <tcp_write>
     eb0:	f1b0 3fff 	cmp.w	r0, #4294967295
     eb4:	4680      	mov	r8, r0
     eb6:	d121      	bne.n	efc <send_data+0x390>
     eb8:	086d      	lsrs	r5, r5, #1
     eba:	2d01      	cmp	r5, #1
     ebc:	d8f2      	bhi.n	ea4 <send_data+0x338>
     ebe:	e050      	b.n	f62 <send_data+0x3f6>
     ec0:	3101      	adds	r1, #1
     ec2:	f884 1022 	strb.w	r1, [r4, #34]	; 0x22
     ec6:	e04c      	b.n	f62 <send_data+0x3f6>
     ec8:	60e3      	str	r3, [r4, #12]
     eca:	6162      	str	r2, [r4, #20]
     ecc:	2300      	movs	r3, #0
     ece:	e046      	b.n	f5e <send_data+0x3f2>
     ed0:	6922      	ldr	r2, [r4, #16]
     ed2:	6863      	ldr	r3, [r4, #4]
     ed4:	429a      	cmp	r2, r3
     ed6:	d91a      	bls.n	f0e <send_data+0x3a2>
     ed8:	1ad3      	subs	r3, r2, r3
     eda:	429d      	cmp	r5, r3
     edc:	bfc8      	it	gt
     ede:	b29d      	uxthgt	r5, r3
     ee0:	2300      	movs	r3, #0
     ee2:	4630      	mov	r0, r6
     ee4:	6861      	ldr	r1, [r4, #4]
     ee6:	462a      	mov	r2, r5
     ee8:	f004 f926 	bl	5138 <tcp_write>
     eec:	f1b0 3fff 	cmp.w	r0, #4294967295
     ef0:	4680      	mov	r8, r0
     ef2:	d103      	bne.n	efc <send_data+0x390>
     ef4:	086d      	lsrs	r5, r5, #1
     ef6:	2d01      	cmp	r5, #1
     ef8:	d8f2      	bhi.n	ee0 <send_data+0x374>
     efa:	e032      	b.n	f62 <send_data+0x3f6>
     efc:	2800      	cmp	r0, #0
     efe:	d130      	bne.n	f62 <send_data+0x3f6>
     f00:	6863      	ldr	r3, [r4, #4]
     f02:	195b      	adds	r3, r3, r5
     f04:	6063      	str	r3, [r4, #4]
     f06:	69a3      	ldr	r3, [r4, #24]
     f08:	1b5b      	subs	r3, r3, r5
     f0a:	61a3      	str	r3, [r4, #24]
     f0c:	e021      	b.n	f52 <send_data+0x3e6>
     f0e:	f894 3022 	ldrb.w	r3, [r4, #34]	; 0x22
     f12:	f894 2023 	ldrb.w	r2, [r4, #35]	; 0x23
     f16:	4293      	cmp	r3, r2
     f18:	d21e      	bcs.n	f58 <send_data+0x3ec>
     f1a:	1ad3      	subs	r3, r2, r3
     f1c:	429d      	cmp	r5, r3
     f1e:	bfc8      	it	gt
     f20:	b29d      	uxthgt	r5, r3
     f22:	f894 3022 	ldrb.w	r3, [r4, #34]	; 0x22
     f26:	f104 012e 	add.w	r1, r4, #46	; 0x2e
     f2a:	18c9      	adds	r1, r1, r3
     f2c:	4630      	mov	r0, r6
     f2e:	2301      	movs	r3, #1
     f30:	462a      	mov	r2, r5
     f32:	f004 f901 	bl	5138 <tcp_write>
     f36:	f1b0 3fff 	cmp.w	r0, #4294967295
     f3a:	4680      	mov	r8, r0
     f3c:	d103      	bne.n	f46 <send_data+0x3da>
     f3e:	086d      	lsrs	r5, r5, #1
     f40:	2d01      	cmp	r5, #1
     f42:	d8ee      	bhi.n	f22 <send_data+0x3b6>
     f44:	e00d      	b.n	f62 <send_data+0x3f6>
     f46:	b960      	cbnz	r0, f62 <send_data+0x3f6>
     f48:	f894 3022 	ldrb.w	r3, [r4, #34]	; 0x22
     f4c:	18eb      	adds	r3, r5, r3
     f4e:	f884 3022 	strb.w	r3, [r4, #34]	; 0x22
     f52:	f04f 0901 	mov.w	r9, #1
     f56:	e004      	b.n	f62 <send_data+0x3f6>
     f58:	2300      	movs	r3, #0
     f5a:	f884 3022 	strb.w	r3, [r4, #34]	; 0x22
     f5e:	f884 30ef 	strb.w	r3, [r4, #239]	; 0xef
     f62:	6962      	ldr	r2, [r4, #20]
     f64:	f894 30ef 	ldrb.w	r3, [r4, #239]	; 0xef
     f68:	b11a      	cbz	r2, f72 <send_data+0x406>
     f6a:	f1b8 0f00 	cmp.w	r8, #0
     f6e:	f43f aed0 	beq.w	d12 <send_data+0x1a6>
     f72:	2b04      	cmp	r3, #4
     f74:	d032      	beq.n	fdc <send_data+0x470>
     f76:	68e2      	ldr	r2, [r4, #12]
     f78:	6863      	ldr	r3, [r4, #4]
     f7a:	429a      	cmp	r2, r3
     f7c:	d92e      	bls.n	fdc <send_data+0x470>
     f7e:	f8b6 506e 	ldrh.w	r5, [r6, #110]	; 0x6e
     f82:	1ad3      	subs	r3, r2, r3
     f84:	429d      	cmp	r5, r3
     f86:	bfa8      	it	ge
     f88:	b29d      	uxthge	r5, r3
     f8a:	8f33      	ldrh	r3, [r6, #56]	; 0x38
     f8c:	005b      	lsls	r3, r3, #1
     f8e:	429d      	cmp	r5, r3
     f90:	bfc8      	it	gt
     f92:	b29d      	uxthgt	r5, r3
     f94:	2300      	movs	r3, #0
     f96:	4630      	mov	r0, r6
     f98:	6861      	ldr	r1, [r4, #4]
     f9a:	462a      	mov	r2, r5
     f9c:	f004 f8cc 	bl	5138 <tcp_write>
     fa0:	f1b0 3fff 	cmp.w	r0, #4294967295
     fa4:	d112      	bne.n	fcc <send_data+0x460>
     fa6:	086d      	lsrs	r5, r5, #1
     fa8:	2d01      	cmp	r5, #1
     faa:	d8f3      	bhi.n	f94 <send_data+0x428>
     fac:	e016      	b.n	fdc <send_data+0x470>
     fae:	bf00      	nop
     fb0:	00008af9 	.word	0x00008af9
     fb4:	c8000100 	.word	0xc8000100
     fb8:	00008aff 	.word	0x00008aff
     fbc:	20000118 	.word	0x20000118
     fc0:	2000011c 	.word	0x2000011c
     fc4:	20000128 	.word	0x20000128
     fc8:	00008add 	.word	0x00008add
     fcc:	b930      	cbnz	r0, fdc <send_data+0x470>
     fce:	6863      	ldr	r3, [r4, #4]
     fd0:	195b      	adds	r3, r3, r5
     fd2:	6063      	str	r3, [r4, #4]
     fd4:	69a3      	ldr	r3, [r4, #24]
     fd6:	1b5d      	subs	r5, r3, r5
     fd8:	61a5      	str	r5, [r4, #24]
     fda:	e002      	b.n	fe2 <send_data+0x476>
     fdc:	f1b9 0f00 	cmp.w	r9, #0
     fe0:	d005      	beq.n	fee <send_data+0x482>
     fe2:	4630      	mov	r0, r6
     fe4:	b003      	add	sp, #12
     fe6:	e8bd 4ff0 	ldmia.w	sp!, {r4, r5, r6, r7, r8, r9, sl, fp, lr}
     fea:	f002 be63 	b.w	3cb4 <tcp_output>
     fee:	b003      	add	sp, #12
     ff0:	e8bd 8ff0 	ldmia.w	sp!, {r4, r5, r6, r7, r8, r9, sl, fp, pc}

00000ff4 <http_poll>:
     ff4:	b508      	push	{r3, lr}
     ff6:	4603      	mov	r3, r0
     ff8:	b910      	cbnz	r0, 1000 <http_poll+0xc>
     ffa:	7c0a      	ldrb	r2, [r1, #16]
     ffc:	2a04      	cmp	r2, #4
     ffe:	d007      	beq.n	1010 <http_poll+0x1c>
    1000:	f893 2020 	ldrb.w	r2, [r3, #32]
    1004:	3201      	adds	r2, #1
    1006:	b2d2      	uxtb	r2, r2
    1008:	2a04      	cmp	r2, #4
    100a:	f883 2020 	strb.w	r2, [r3, #32]
    100e:	d105      	bne.n	101c <http_poll+0x28>
    1010:	4608      	mov	r0, r1
    1012:	2101      	movs	r1, #1
    1014:	f002 ffb4 	bl	3f80 <tcp_abandon>
    1018:	20fb      	movs	r0, #251	; 0xfb
    101a:	e006      	b.n	102a <http_poll+0x36>
    101c:	6818      	ldr	r0, [r3, #0]
    101e:	b120      	cbz	r0, 102a <http_poll+0x36>
    1020:	4608      	mov	r0, r1
    1022:	4619      	mov	r1, r3
    1024:	f7ff fda2 	bl	b6c <send_data>
    1028:	2000      	movs	r0, #0
    102a:	b240      	sxtb	r0, r0
    102c:	bd08      	pop	{r3, pc}
	...

00001030 <http_sent>:
    1030:	b538      	push	{r3, r4, r5, lr}
    1032:	460c      	mov	r4, r1
    1034:	4605      	mov	r5, r0
    1036:	b168      	cbz	r0, 1054 <http_sent+0x24>
    1038:	2100      	movs	r1, #0
    103a:	f880 1020 	strb.w	r1, [r0, #32]
    103e:	4620      	mov	r0, r4
    1040:	f001 f832 	bl	20a8 <tcp_sent>
    1044:	4620      	mov	r0, r4
    1046:	4629      	mov	r1, r5
    1048:	f7ff fd90 	bl	b6c <send_data>
    104c:	4620      	mov	r0, r4
    104e:	4902      	ldr	r1, [pc, #8]	; (1058 <http_sent+0x28>)
    1050:	f001 f82a 	bl	20a8 <tcp_sent>
    1054:	2000      	movs	r0, #0
    1056:	bd38      	pop	{r3, r4, r5, pc}
    1058:	00001031 	.word	0x00001031

0000105c <get_404_file>:
    105c:	b510      	push	{r4, lr}
    105e:	4604      	mov	r4, r0
    1060:	4805      	ldr	r0, [pc, #20]	; (1078 <get_404_file+0x1c>)
    1062:	6020      	str	r0, [r4, #0]
    1064:	f000 fac8 	bl	15f8 <fs_open>
    1068:	b928      	cbnz	r0, 1076 <get_404_file+0x1a>
    106a:	4804      	ldr	r0, [pc, #16]	; (107c <get_404_file+0x20>)
    106c:	6020      	str	r0, [r4, #0]
    106e:	f000 fac3 	bl	15f8 <fs_open>
    1072:	b900      	cbnz	r0, 1076 <get_404_file+0x1a>
    1074:	6020      	str	r0, [r4, #0]
    1076:	bd10      	pop	{r4, pc}
    1078:	00008b03 	.word	0x00008b03
    107c:	00008b0d 	.word	0x00008b0d

00001080 <http_recv>:
    1080:	e92d 4ff0 	stmdb	sp!, {r4, r5, r6, r7, r8, r9, sl, fp, lr}
    1084:	b085      	sub	sp, #20
    1086:	4604      	mov	r4, r0
    1088:	9100      	str	r1, [sp, #0]
    108a:	4615      	mov	r5, r2
    108c:	2b00      	cmp	r3, #0
    108e:	f040 8183 	bne.w	1398 <http_recv+0x318>
    1092:	2a00      	cmp	r2, #0
    1094:	f000 8184 	beq.w	13a0 <http_recv+0x320>
    1098:	2800      	cmp	r0, #0
    109a:	f000 817d 	beq.w	1398 <http_recv+0x318>
    109e:	4608      	mov	r0, r1
    10a0:	8911      	ldrh	r1, [r2, #8]
    10a2:	f003 faf3 	bl	468c <tcp_recved>
    10a6:	6823      	ldr	r3, [r4, #0]
    10a8:	2b00      	cmp	r3, #0
    10aa:	f040 8172 	bne.w	1392 <http_recv+0x312>
    10ae:	6868      	ldr	r0, [r5, #4]
    10b0:	4994      	ldr	r1, [pc, #592]	; (1304 <http_recv+0x284>)
    10b2:	1d06      	adds	r6, r0, #4
    10b4:	2204      	movs	r2, #4
    10b6:	9603      	str	r6, [sp, #12]
    10b8:	f007 f81a 	bl	80f0 <strncmp>
    10bc:	2800      	cmp	r0, #0
    10be:	f040 8164 	bne.w	138a <http_recv+0x30a>
    10c2:	8969      	ldrh	r1, [r5, #10]
    10c4:	2304      	movs	r3, #4
    10c6:	3905      	subs	r1, #5
    10c8:	e014      	b.n	10f4 <http_recv+0x74>
    10ca:	4632      	mov	r2, r6
    10cc:	f816 0b01 	ldrb.w	r0, [r6], #1
    10d0:	2820      	cmp	r0, #32
    10d2:	d10e      	bne.n	10f2 <http_recv+0x72>
    10d4:	7830      	ldrb	r0, [r6, #0]
    10d6:	2848      	cmp	r0, #72	; 0x48
    10d8:	d10b      	bne.n	10f2 <http_recv+0x72>
    10da:	7870      	ldrb	r0, [r6, #1]
    10dc:	2854      	cmp	r0, #84	; 0x54
    10de:	d108      	bne.n	10f2 <http_recv+0x72>
    10e0:	78b0      	ldrb	r0, [r6, #2]
    10e2:	2854      	cmp	r0, #84	; 0x54
    10e4:	d105      	bne.n	10f2 <http_recv+0x72>
    10e6:	78f0      	ldrb	r0, [r6, #3]
    10e8:	2850      	cmp	r0, #80	; 0x50
    10ea:	d102      	bne.n	10f2 <http_recv+0x72>
    10ec:	2100      	movs	r1, #0
    10ee:	7011      	strb	r1, [r2, #0]
    10f0:	e002      	b.n	10f8 <http_recv+0x78>
    10f2:	3301      	adds	r3, #1
    10f4:	428b      	cmp	r3, r1
    10f6:	dbe8      	blt.n	10ca <http_recv+0x4a>
    10f8:	896a      	ldrh	r2, [r5, #10]
    10fa:	3a05      	subs	r2, #5
    10fc:	4293      	cmp	r3, r2
    10fe:	f000 8144 	beq.w	138a <http_recv+0x30a>
    1102:	2300      	movs	r3, #0
    1104:	9803      	ldr	r0, [sp, #12]
    1106:	f884 3021 	strb.w	r3, [r4, #33]	; 0x21
    110a:	7803      	ldrb	r3, [r0, #0]
    110c:	2b2f      	cmp	r3, #47	; 0x2f
    110e:	d11c      	bne.n	114a <http_recv+0xca>
    1110:	7847      	ldrb	r7, [r0, #1]
    1112:	b9d7      	cbnz	r7, 114a <http_recv+0xca>
    1114:	f8df 8204 	ldr.w	r8, [pc, #516]	; 131c <http_recv+0x29c>
    1118:	ea4f 09c7 	mov.w	r9, r7, lsl #3
    111c:	f858 6037 	ldr.w	r6, [r8, r7, lsl #3]
    1120:	4630      	mov	r0, r6
    1122:	f000 fa69 	bl	15f8 <fs_open>
    1126:	9603      	str	r6, [sp, #12]
    1128:	b120      	cbz	r0, 1134 <http_recv+0xb4>
    112a:	eb08 0309 	add.w	r3, r8, r9
    112e:	4606      	mov	r6, r0
    1130:	791b      	ldrb	r3, [r3, #4]
    1132:	e094      	b.n	125e <http_recv+0x1de>
    1134:	3701      	adds	r7, #1
    1136:	2f05      	cmp	r7, #5
    1138:	d1ec      	bne.n	1114 <http_recv+0x94>
    113a:	a803      	add	r0, sp, #12
    113c:	f7ff ff8e 	bl	105c <get_404_file>
    1140:	2300      	movs	r3, #0
    1142:	4606      	mov	r6, r0
    1144:	f884 3021 	strb.w	r3, [r4, #33]	; 0x21
    1148:	e08f      	b.n	126a <http_recv+0x1ea>
    114a:	213f      	movs	r1, #63	; 0x3f
    114c:	f006 fe20 	bl	7d90 <strchr>
    1150:	4606      	mov	r6, r0
    1152:	b110      	cbz	r0, 115a <http_recv+0xda>
    1154:	2300      	movs	r3, #0
    1156:	f806 3b01 	strb.w	r3, [r6], #1
    115a:	4b6b      	ldr	r3, [pc, #428]	; (1308 <http_recv+0x288>)
    115c:	681f      	ldr	r7, [r3, #0]
    115e:	2f00      	cmp	r7, #0
    1160:	d068      	beq.n	1234 <http_recv+0x1b4>
    1162:	4b6a      	ldr	r3, [pc, #424]	; (130c <http_recv+0x28c>)
    1164:	f8d3 a000 	ldr.w	sl, [r3]
    1168:	f1ba 0f00 	cmp.w	sl, #0
    116c:	d062      	beq.n	1234 <http_recv+0x1b4>
    116e:	f04f 0900 	mov.w	r9, #0
    1172:	f8cd 9004 	str.w	r9, [sp, #4]
    1176:	46c8      	mov	r8, r9
    1178:	e04f      	b.n	121a <http_recv+0x19a>
    117a:	9803      	ldr	r0, [sp, #12]
    117c:	f85a 1009 	ldr.w	r1, [sl, r9]
    1180:	f006 fe8c 	bl	7e9c <strcmp>
    1184:	f109 0308 	add.w	r3, r9, #8
    1188:	2800      	cmp	r0, #0
    118a:	d143      	bne.n	1214 <http_recv+0x194>
    118c:	f8cd 8004 	str.w	r8, [sp, #4]
    1190:	2e00      	cmp	r6, #0
    1192:	d02f      	beq.n	11f4 <http_recv+0x174>
    1194:	7833      	ldrb	r3, [r6, #0]
    1196:	2b00      	cmp	r3, #0
    1198:	d02e      	beq.n	11f8 <http_recv+0x178>
    119a:	46a3      	mov	fp, r4
    119c:	46b2      	mov	sl, r6
    119e:	4680      	mov	r8, r0
    11a0:	e000      	b.n	11a4 <http_recv+0x124>
    11a2:	46ba      	mov	sl, r7
    11a4:	f8cb a0f0 	str.w	sl, [fp, #240]	; 0xf0
    11a8:	4650      	mov	r0, sl
    11aa:	2126      	movs	r1, #38	; 0x26
    11ac:	f006 fdf0 	bl	7d90 <strchr>
    11b0:	4607      	mov	r7, r0
    11b2:	b118      	cbz	r0, 11bc <http_recv+0x13c>
    11b4:	2300      	movs	r3, #0
    11b6:	f807 3b01 	strb.w	r3, [r7], #1
    11ba:	e007      	b.n	11cc <http_recv+0x14c>
    11bc:	4650      	mov	r0, sl
    11be:	2120      	movs	r1, #32
    11c0:	f006 fde6 	bl	7d90 <strchr>
    11c4:	b108      	cbz	r0, 11ca <http_recv+0x14a>
    11c6:	7007      	strb	r7, [r0, #0]
    11c8:	e000      	b.n	11cc <http_recv+0x14c>
    11ca:	4607      	mov	r7, r0
    11cc:	4650      	mov	r0, sl
    11ce:	213d      	movs	r1, #61	; 0x3d
    11d0:	f006 fdde 	bl	7d90 <strchr>
    11d4:	b110      	cbz	r0, 11dc <http_recv+0x15c>
    11d6:	2300      	movs	r3, #0
    11d8:	f800 3b01 	strb.w	r3, [r0], #1
    11dc:	f108 0801 	add.w	r8, r8, #1
    11e0:	f1b8 0f10 	cmp.w	r8, #16
    11e4:	f8cb 0130 	str.w	r0, [fp, #304]	; 0x130
    11e8:	d007      	beq.n	11fa <http_recv+0x17a>
    11ea:	f10b 0b04 	add.w	fp, fp, #4
    11ee:	2f00      	cmp	r7, #0
    11f0:	d1d7      	bne.n	11a2 <http_recv+0x122>
    11f2:	e002      	b.n	11fa <http_recv+0x17a>
    11f4:	46b0      	mov	r8, r6
    11f6:	e000      	b.n	11fa <http_recv+0x17a>
    11f8:	4698      	mov	r8, r3
    11fa:	4a44      	ldr	r2, [pc, #272]	; (130c <http_recv+0x28c>)
    11fc:	9801      	ldr	r0, [sp, #4]
    11fe:	6813      	ldr	r3, [r2, #0]
    1200:	4641      	mov	r1, r8
    1202:	444b      	add	r3, r9
    1204:	685f      	ldr	r7, [r3, #4]
    1206:	f104 02f0 	add.w	r2, r4, #240	; 0xf0
    120a:	f504 7398 	add.w	r3, r4, #304	; 0x130
    120e:	47b8      	blx	r7
    1210:	9003      	str	r0, [sp, #12]
    1212:	e006      	b.n	1222 <http_recv+0x1a2>
    1214:	f108 0801 	add.w	r8, r8, #1
    1218:	4699      	mov	r9, r3
    121a:	45b8      	cmp	r8, r7
    121c:	dbad      	blt.n	117a <http_recv+0xfa>
    121e:	f8cd 8004 	str.w	r8, [sp, #4]
    1222:	4a39      	ldr	r2, [pc, #228]	; (1308 <http_recv+0x288>)
    1224:	6813      	ldr	r3, [r2, #0]
    1226:	9a01      	ldr	r2, [sp, #4]
    1228:	429a      	cmp	r2, r3
    122a:	d103      	bne.n	1234 <http_recv+0x1b4>
    122c:	b116      	cbz	r6, 1234 <http_recv+0x1b4>
    122e:	233f      	movs	r3, #63	; 0x3f
    1230:	f806 3c01 	strb.w	r3, [r6, #-1]
    1234:	9803      	ldr	r0, [sp, #12]
    1236:	f000 f9df 	bl	15f8 <fs_open>
    123a:	4606      	mov	r6, r0
    123c:	b920      	cbnz	r0, 1248 <http_recv+0x1c8>
    123e:	a803      	add	r0, sp, #12
    1240:	f7ff ff0c 	bl	105c <get_404_file>
    1244:	4606      	mov	r6, r0
    1246:	e010      	b.n	126a <http_recv+0x1ea>
    1248:	2700      	movs	r7, #0
    124a:	f884 7021 	strb.w	r7, [r4, #33]	; 0x21
    124e:	4b30      	ldr	r3, [pc, #192]	; (1310 <http_recv+0x290>)
    1250:	9803      	ldr	r0, [sp, #12]
    1252:	59d9      	ldr	r1, [r3, r7]
    1254:	f007 f918 	bl	8488 <strstr>
    1258:	3704      	adds	r7, #4
    125a:	b118      	cbz	r0, 1264 <http_recv+0x1e4>
    125c:	2301      	movs	r3, #1
    125e:	f884 3021 	strb.w	r3, [r4, #33]	; 0x21
    1262:	e003      	b.n	126c <http_recv+0x1ec>
    1264:	2f10      	cmp	r7, #16
    1266:	d1f2      	bne.n	124e <http_recv+0x1ce>
    1268:	e000      	b.n	126c <http_recv+0x1ec>
    126a:	b196      	cbz	r6, 1292 <http_recv+0x212>
    126c:	2300      	movs	r3, #0
    126e:	f884 3022 	strb.w	r3, [r4, #34]	; 0x22
    1272:	6832      	ldr	r2, [r6, #0]
    1274:	6871      	ldr	r1, [r6, #4]
    1276:	f884 30ef 	strb.w	r3, [r4, #239]	; 0xef
    127a:	60e2      	str	r2, [r4, #12]
    127c:	6161      	str	r1, [r4, #20]
    127e:	6122      	str	r2, [r4, #16]
    1280:	6026      	str	r6, [r4, #0]
    1282:	6062      	str	r2, [r4, #4]
    1284:	61a1      	str	r1, [r4, #24]
    1286:	f884 3020 	strb.w	r3, [r4, #32]
    128a:	4628      	mov	r0, r5
    128c:	f001 fc99 	bl	2bc2 <pbuf_free>
    1290:	e004      	b.n	129c <http_recv+0x21c>
    1292:	6026      	str	r6, [r4, #0]
    1294:	6066      	str	r6, [r4, #4]
    1296:	61a6      	str	r6, [r4, #24]
    1298:	f884 6020 	strb.w	r6, [r4, #32]
    129c:	4b1d      	ldr	r3, [pc, #116]	; (1314 <http_recv+0x294>)
    129e:	9d03      	ldr	r5, [sp, #12]
    12a0:	6c1a      	ldr	r2, [r3, #64]	; 0x40
    12a2:	461f      	mov	r7, r3
    12a4:	f8c4 2174 	str.w	r2, [r4, #372]	; 0x174
    12a8:	b955      	cbnz	r5, 12c0 <http_recv+0x240>
    12aa:	6bda      	ldr	r2, [r3, #60]	; 0x3c
    12ac:	6c5b      	ldr	r3, [r3, #68]	; 0x44
    12ae:	f8c4 2170 	str.w	r2, [r4, #368]	; 0x170
    12b2:	f8c4 3178 	str.w	r3, [r4, #376]	; 0x178
    12b6:	f8a4 517e 	strh.w	r5, [r4, #382]	; 0x17e
    12ba:	f8a4 517c 	strh.w	r5, [r4, #380]	; 0x17c
    12be:	e05b      	b.n	1378 <http_recv+0x2f8>
    12c0:	4628      	mov	r0, r5
    12c2:	4915      	ldr	r1, [pc, #84]	; (1318 <http_recv+0x298>)
    12c4:	f007 f8e0 	bl	8488 <strstr>
    12c8:	b108      	cbz	r0, 12ce <http_recv+0x24e>
    12ca:	6bfb      	ldr	r3, [r7, #60]	; 0x3c
    12cc:	e000      	b.n	12d0 <http_recv+0x250>
    12ce:	6bbb      	ldr	r3, [r7, #56]	; 0x38
    12d0:	f8c4 3170 	str.w	r3, [r4, #368]	; 0x170
    12d4:	4628      	mov	r0, r5
    12d6:	213f      	movs	r1, #63	; 0x3f
    12d8:	f006 fd5a 	bl	7d90 <strchr>
    12dc:	4680      	mov	r8, r0
    12de:	b108      	cbz	r0, 12e4 <http_recv+0x264>
    12e0:	2300      	movs	r3, #0
    12e2:	7003      	strb	r3, [r0, #0]
    12e4:	4628      	mov	r0, r5
    12e6:	212e      	movs	r1, #46	; 0x2e
    12e8:	f006 fd52 	bl	7d90 <strchr>
    12ec:	2600      	movs	r6, #0
    12ee:	e004      	b.n	12fa <http_recv+0x27a>
    12f0:	1c46      	adds	r6, r0, #1
    12f2:	4630      	mov	r0, r6
    12f4:	212e      	movs	r1, #46	; 0x2e
    12f6:	f006 fd4b 	bl	7d90 <strchr>
    12fa:	2800      	cmp	r0, #0
    12fc:	d1f8      	bne.n	12f0 <http_recv+0x270>
    12fe:	4605      	mov	r5, r0
    1300:	e023      	b.n	134a <http_recv+0x2ca>
    1302:	bf00      	nop
    1304:	00008b16 	.word	0x00008b16
    1308:	20000120 	.word	0x20000120
    130c:	20000124 	.word	0x20000124
    1310:	20000018 	.word	0x20000018
    1314:	20000028 	.word	0x20000028
    1318:	00008b1b 	.word	0x00008b1b
    131c:	00008e44 	.word	0x00008e44
    1320:	f8df 908c 	ldr.w	r9, [pc, #140]	; 13b0 <http_recv+0x330>
    1324:	4631      	mov	r1, r6
    1326:	f859 0035 	ldr.w	r0, [r9, r5, lsl #3]
    132a:	ea4f 0ac5 	mov.w	sl, r5, lsl #3
    132e:	f006 fdb5 	bl	7e9c <strcmp>
    1332:	b938      	cbnz	r0, 1344 <http_recv+0x2c4>
    1334:	eb09 030a 	add.w	r3, r9, sl
    1338:	685b      	ldr	r3, [r3, #4]
    133a:	f857 3023 	ldr.w	r3, [r7, r3, lsl #2]
    133e:	f8c4 3178 	str.w	r3, [r4, #376]	; 0x178
    1342:	e004      	b.n	134e <http_recv+0x2ce>
    1344:	3501      	adds	r5, #1
    1346:	2d11      	cmp	r5, #17
    1348:	d001      	beq.n	134e <http_recv+0x2ce>
    134a:	2e00      	cmp	r6, #0
    134c:	d1e8      	bne.n	1320 <http_recv+0x2a0>
    134e:	f1b8 0f00 	cmp.w	r8, #0
    1352:	d002      	beq.n	135a <http_recv+0x2da>
    1354:	233f      	movs	r3, #63	; 0x3f
    1356:	f888 3000 	strb.w	r3, [r8]
    135a:	b91e      	cbnz	r6, 1364 <http_recv+0x2e4>
    135c:	2203      	movs	r2, #3
    135e:	f8a4 217e 	strh.w	r2, [r4, #382]	; 0x17e
    1362:	e009      	b.n	1378 <http_recv+0x2f8>
    1364:	2d11      	cmp	r5, #17
    1366:	bf04      	itt	eq
    1368:	6b7b      	ldreq	r3, [r7, #52]	; 0x34
    136a:	f8c4 3178 	streq.w	r3, [r4, #376]	; 0x178
    136e:	2300      	movs	r3, #0
    1370:	f8a4 317e 	strh.w	r3, [r4, #382]	; 0x17e
    1374:	f8a4 317c 	strh.w	r3, [r4, #380]	; 0x17c
    1378:	9800      	ldr	r0, [sp, #0]
    137a:	490c      	ldr	r1, [pc, #48]	; (13ac <http_recv+0x32c>)
    137c:	f000 fe94 	bl	20a8 <tcp_sent>
    1380:	9800      	ldr	r0, [sp, #0]
    1382:	4621      	mov	r1, r4
    1384:	f7ff fbf2 	bl	b6c <send_data>
    1388:	e006      	b.n	1398 <http_recv+0x318>
    138a:	4628      	mov	r0, r5
    138c:	f001 fc19 	bl	2bc2 <pbuf_free>
    1390:	e006      	b.n	13a0 <http_recv+0x320>
    1392:	4628      	mov	r0, r5
    1394:	f001 fc15 	bl	2bc2 <pbuf_free>
    1398:	2000      	movs	r0, #0
    139a:	b005      	add	sp, #20
    139c:	e8bd 8ff0 	ldmia.w	sp!, {r4, r5, r6, r7, r8, r9, sl, fp, pc}
    13a0:	9800      	ldr	r0, [sp, #0]
    13a2:	4621      	mov	r1, r4
    13a4:	f7ff fbc1 	bl	b2a <close_conn>
    13a8:	e7f6      	b.n	1398 <http_recv+0x318>
    13aa:	bf00      	nop
    13ac:	00001031 	.word	0x00001031
    13b0:	20000070 	.word	0x20000070

000013b4 <httpd_init>:
    13b4:	b510      	push	{r4, lr}
    13b6:	f002 febd 	bl	4134 <tcp_new>
    13ba:	2250      	movs	r2, #80	; 0x50
    13bc:	4604      	mov	r4, r0
    13be:	4906      	ldr	r1, [pc, #24]	; (13d8 <httpd_init+0x24>)
    13c0:	f000 fdee 	bl	1fa0 <tcp_bind>
    13c4:	21ff      	movs	r1, #255	; 0xff
    13c6:	4620      	mov	r0, r4
    13c8:	f001 faac 	bl	2924 <tcp_listen_with_backlog>
    13cc:	4903      	ldr	r1, [pc, #12]	; (13dc <httpd_init+0x28>)
    13ce:	e8bd 4010 	ldmia.w	sp!, {r4, lr}
    13d2:	f000 be6f 	b.w	20b4 <tcp_accept>
    13d6:	bf00      	nop
    13d8:	0000a5f8 	.word	0x0000a5f8
    13dc:	00000aa9 	.word	0x00000aa9

000013e0 <http_set_ssi_handler>:
    13e0:	4b03      	ldr	r3, [pc, #12]	; (13f0 <http_set_ssi_handler+0x10>)
    13e2:	6018      	str	r0, [r3, #0]
    13e4:	4b03      	ldr	r3, [pc, #12]	; (13f4 <http_set_ssi_handler+0x14>)
    13e6:	6019      	str	r1, [r3, #0]
    13e8:	4b03      	ldr	r3, [pc, #12]	; (13f8 <http_set_ssi_handler+0x18>)
    13ea:	601a      	str	r2, [r3, #0]
    13ec:	4770      	bx	lr
    13ee:	bf00      	nop
    13f0:	20000118 	.word	0x20000118
    13f4:	2000011c 	.word	0x2000011c
    13f8:	20000128 	.word	0x20000128

000013fc <http_set_cgi_handlers>:
    13fc:	4b02      	ldr	r3, [pc, #8]	; (1408 <http_set_cgi_handlers+0xc>)
    13fe:	6018      	str	r0, [r3, #0]
    1400:	4b02      	ldr	r3, [pc, #8]	; (140c <http_set_cgi_handlers+0x10>)
    1402:	6019      	str	r1, [r3, #0]
    1404:	4770      	bx	lr
    1406:	bf00      	nop
    1408:	20000124 	.word	0x20000124
    140c:	20000120 	.word	0x20000120

00001410 <io_init>:
    1410:	b570      	push	{r4, r5, r6, lr}
    1412:	4821      	ldr	r0, [pc, #132]	; (1498 <io_init+0x88>)
    1414:	f006 f8b6 	bl	7584 <SysCtlPeripheralEnable>
    1418:	2101      	movs	r1, #1
    141a:	4820      	ldr	r0, [pc, #128]	; (149c <io_init+0x8c>)
    141c:	f005 ff9f 	bl	735e <GPIOPinTypeGPIOOutput>
    1420:	2200      	movs	r2, #0
    1422:	2101      	movs	r1, #1
    1424:	481d      	ldr	r0, [pc, #116]	; (149c <io_init+0x8c>)
    1426:	f005 ff89 	bl	733c <GPIOPinWrite>
    142a:	481d      	ldr	r0, [pc, #116]	; (14a0 <io_init+0x90>)
    142c:	f006 f8aa 	bl	7584 <SysCtlPeripheralEnable>
    1430:	2102      	movs	r1, #2
    1432:	481c      	ldr	r0, [pc, #112]	; (14a4 <io_init+0x94>)
    1434:	f005 ffa1 	bl	737a <GPIOPinTypePWM>
    1438:	f04f 1010 	mov.w	r0, #1048592	; 0x100010
    143c:	f006 f8a2 	bl	7584 <SysCtlPeripheralEnable>
    1440:	2140      	movs	r1, #64	; 0x40
    1442:	2200      	movs	r2, #0
    1444:	4818      	ldr	r0, [pc, #96]	; (14a8 <io_init+0x98>)
    1446:	f005 fff7 	bl	7438 <PWMGenConfigure>
    144a:	f44f 1090 	mov.w	r0, #1179648	; 0x120000
    144e:	f006 fa47 	bl	78e0 <SysCtlPWMClockSet>
    1452:	f006 f957 	bl	7704 <SysCtlClockGet>
    1456:	4c15      	ldr	r4, [pc, #84]	; (14ac <io_init+0x9c>)
    1458:	0885      	lsrs	r5, r0, #2
    145a:	4e15      	ldr	r6, [pc, #84]	; (14b0 <io_init+0xa0>)
    145c:	f44f 72dc 	mov.w	r2, #440	; 0x1b8
    1460:	2332      	movs	r3, #50	; 0x32
    1462:	6022      	str	r2, [r4, #0]
    1464:	2140      	movs	r1, #64	; 0x40
    1466:	fbb5 f2f2 	udiv	r2, r5, r2
    146a:	480f      	ldr	r0, [pc, #60]	; (14a8 <io_init+0x98>)
    146c:	6033      	str	r3, [r6, #0]
    146e:	f005 fffd 	bl	746c <PWMGenPeriodSet>
    1472:	6832      	ldr	r2, [r6, #0]
    1474:	2364      	movs	r3, #100	; 0x64
    1476:	4355      	muls	r5, r2
    1478:	fbb5 f2f3 	udiv	r2, r5, r3
    147c:	6823      	ldr	r3, [r4, #0]
    147e:	2141      	movs	r1, #65	; 0x41
    1480:	4809      	ldr	r0, [pc, #36]	; (14a8 <io_init+0x98>)
    1482:	fbb2 f2f3 	udiv	r2, r2, r3
    1486:	f006 f800 	bl	748a <PWMPulseWidthSet>
    148a:	4807      	ldr	r0, [pc, #28]	; (14a8 <io_init+0x98>)
    148c:	2140      	movs	r1, #64	; 0x40
    148e:	e8bd 4070 	ldmia.w	sp!, {r4, r5, r6, lr}
    1492:	f005 bff5 	b.w	7480 <PWMGenEnable>
    1496:	bf00      	nop
    1498:	20000020 	.word	0x20000020
    149c:	40025000 	.word	0x40025000
    14a0:	20000040 	.word	0x20000040
    14a4:	40026000 	.word	0x40026000
    14a8:	40028000 	.word	0x40028000
    14ac:	20000130 	.word	0x20000130
    14b0:	2000012c 	.word	0x2000012c

000014b4 <io_set_led>:
    14b4:	1e02      	subs	r2, r0, #0
    14b6:	4803      	ldr	r0, [pc, #12]	; (14c4 <io_set_led+0x10>)
    14b8:	bf18      	it	ne
    14ba:	2201      	movne	r2, #1
    14bc:	2101      	movs	r1, #1
    14be:	f005 bf3d 	b.w	733c <GPIOPinWrite>
    14c2:	bf00      	nop
    14c4:	40025000 	.word	0x40025000

000014c8 <io_set_pwm>:
    14c8:	4602      	mov	r2, r0
    14ca:	4802      	ldr	r0, [pc, #8]	; (14d4 <io_set_pwm+0xc>)
    14cc:	2102      	movs	r1, #2
    14ce:	f005 bfed 	b.w	74ac <PWMOutputState>
    14d2:	bf00      	nop
    14d4:	40028000 	.word	0x40028000

000014d8 <io_pwm_freq>:
    14d8:	b570      	push	{r4, r5, r6, lr}
    14da:	4606      	mov	r6, r0
    14dc:	f006 f912 	bl	7704 <SysCtlClockGet>
    14e0:	4c0b      	ldr	r4, [pc, #44]	; (1510 <io_pwm_freq+0x38>)
    14e2:	0885      	lsrs	r5, r0, #2
    14e4:	fbb5 f2f6 	udiv	r2, r5, r6
    14e8:	2140      	movs	r1, #64	; 0x40
    14ea:	480a      	ldr	r0, [pc, #40]	; (1514 <io_pwm_freq+0x3c>)
    14ec:	6026      	str	r6, [r4, #0]
    14ee:	f005 ffbd 	bl	746c <PWMGenPeriodSet>
    14f2:	4b09      	ldr	r3, [pc, #36]	; (1518 <io_pwm_freq+0x40>)
    14f4:	4807      	ldr	r0, [pc, #28]	; (1514 <io_pwm_freq+0x3c>)
    14f6:	681a      	ldr	r2, [r3, #0]
    14f8:	2364      	movs	r3, #100	; 0x64
    14fa:	4355      	muls	r5, r2
    14fc:	fbb5 f2f3 	udiv	r2, r5, r3
    1500:	6823      	ldr	r3, [r4, #0]
    1502:	2141      	movs	r1, #65	; 0x41
    1504:	fbb2 f2f3 	udiv	r2, r2, r3
    1508:	e8bd 4070 	ldmia.w	sp!, {r4, r5, r6, lr}
    150c:	f005 bfbd 	b.w	748a <PWMPulseWidthSet>
    1510:	20000130 	.word	0x20000130
    1514:	40028000 	.word	0x40028000
    1518:	2000012c 	.word	0x2000012c

0000151c <io_pwm_dutycycle>:
    151c:	b570      	push	{r4, r5, r6, lr}
    151e:	4604      	mov	r4, r0
    1520:	f006 f8f0 	bl	7704 <SysCtlClockGet>
    1524:	4e0c      	ldr	r6, [pc, #48]	; (1558 <io_pwm_dutycycle+0x3c>)
    1526:	0885      	lsrs	r5, r0, #2
    1528:	6034      	str	r4, [r6, #0]
    152a:	4c0c      	ldr	r4, [pc, #48]	; (155c <io_pwm_dutycycle+0x40>)
    152c:	2140      	movs	r1, #64	; 0x40
    152e:	6822      	ldr	r2, [r4, #0]
    1530:	480b      	ldr	r0, [pc, #44]	; (1560 <io_pwm_dutycycle+0x44>)
    1532:	fbb5 f2f2 	udiv	r2, r5, r2
    1536:	f005 ff99 	bl	746c <PWMGenPeriodSet>
    153a:	6832      	ldr	r2, [r6, #0]
    153c:	2364      	movs	r3, #100	; 0x64
    153e:	4355      	muls	r5, r2
    1540:	fbb5 f2f3 	udiv	r2, r5, r3
    1544:	6823      	ldr	r3, [r4, #0]
    1546:	4806      	ldr	r0, [pc, #24]	; (1560 <io_pwm_dutycycle+0x44>)
    1548:	2141      	movs	r1, #65	; 0x41
    154a:	fbb2 f2f3 	udiv	r2, r2, r3
    154e:	e8bd 4070 	ldmia.w	sp!, {r4, r5, r6, lr}
    1552:	f005 bf9a 	b.w	748a <PWMPulseWidthSet>
    1556:	bf00      	nop
    1558:	2000012c 	.word	0x2000012c
    155c:	20000130 	.word	0x20000130
    1560:	40028000 	.word	0x40028000

00001564 <io_get_ledstate>:
    1564:	b570      	push	{r4, r5, r6, lr}
    1566:	4605      	mov	r5, r0
    1568:	460c      	mov	r4, r1
    156a:	4808      	ldr	r0, [pc, #32]	; (158c <io_get_ledstate+0x28>)
    156c:	2101      	movs	r1, #1
    156e:	f005 fee2 	bl	7336 <GPIOPinRead>
    1572:	b118      	cbz	r0, 157c <io_get_ledstate+0x18>
    1574:	4628      	mov	r0, r5
    1576:	4621      	mov	r1, r4
    1578:	4a05      	ldr	r2, [pc, #20]	; (1590 <io_get_ledstate+0x2c>)
    157a:	e002      	b.n	1582 <io_get_ledstate+0x1e>
    157c:	4a05      	ldr	r2, [pc, #20]	; (1594 <io_get_ledstate+0x30>)
    157e:	4628      	mov	r0, r5
    1580:	4621      	mov	r1, r4
    1582:	e8bd 4070 	ldmia.w	sp!, {r4, r5, r6, lr}
    1586:	f005 bd4b 	b.w	7020 <usnprintf>
    158a:	bf00      	nop
    158c:	40025000 	.word	0x40025000
    1590:	00008e6c 	.word	0x00008e6c
    1594:	00008e6f 	.word	0x00008e6f

00001598 <io_is_led_on>:
    1598:	2101      	movs	r1, #1
    159a:	b508      	push	{r3, lr}
    159c:	4803      	ldr	r0, [pc, #12]	; (15ac <io_is_led_on+0x14>)
    159e:	f005 feca 	bl	7336 <GPIOPinRead>
    15a2:	3800      	subs	r0, #0
    15a4:	bf18      	it	ne
    15a6:	2001      	movne	r0, #1
    15a8:	bd08      	pop	{r3, pc}
    15aa:	bf00      	nop
    15ac:	40025000 	.word	0x40025000

000015b0 <io_get_pwmstate>:
    15b0:	4b04      	ldr	r3, [pc, #16]	; (15c4 <io_get_pwmstate+0x14>)
    15b2:	681b      	ldr	r3, [r3, #0]
    15b4:	f013 0f02 	tst.w	r3, #2
    15b8:	bf14      	ite	ne
    15ba:	4a03      	ldrne	r2, [pc, #12]	; (15c8 <io_get_pwmstate+0x18>)
    15bc:	4a03      	ldreq	r2, [pc, #12]	; (15cc <io_get_pwmstate+0x1c>)
    15be:	f005 bd2f 	b.w	7020 <usnprintf>
    15c2:	bf00      	nop
    15c4:	40028008 	.word	0x40028008
    15c8:	00008e6c 	.word	0x00008e6c
    15cc:	00008e6f 	.word	0x00008e6f

000015d0 <io_is_pwm_on>:
    15d0:	4b02      	ldr	r3, [pc, #8]	; (15dc <io_is_pwm_on+0xc>)
    15d2:	6818      	ldr	r0, [r3, #0]
    15d4:	f3c0 0040 	ubfx	r0, r0, #1, #1
    15d8:	4770      	bx	lr
    15da:	bf00      	nop
    15dc:	40028008 	.word	0x40028008

000015e0 <io_get_pwmfreq>:
    15e0:	4b01      	ldr	r3, [pc, #4]	; (15e8 <io_get_pwmfreq+0x8>)
    15e2:	6818      	ldr	r0, [r3, #0]
    15e4:	4770      	bx	lr
    15e6:	bf00      	nop
    15e8:	20000130 	.word	0x20000130

000015ec <io_get_pwmdutycycle>:
    15ec:	4b01      	ldr	r3, [pc, #4]	; (15f4 <io_get_pwmdutycycle+0x8>)
    15ee:	6818      	ldr	r0, [r3, #0]
    15f0:	4770      	bx	lr
    15f2:	bf00      	nop
    15f4:	2000012c 	.word	0x2000012c

000015f8 <fs_open>:
    15f8:	b5f8      	push	{r3, r4, r5, r6, r7, lr}
    15fa:	4605      	mov	r5, r0
    15fc:	2010      	movs	r0, #16
    15fe:	f000 fb1f 	bl	1c40 <mem_malloc>
    1602:	4604      	mov	r4, r0
    1604:	2800      	cmp	r0, #0
    1606:	f000 80b7 	beq.w	1778 <fs_open+0x180>
    160a:	4628      	mov	r0, r5
    160c:	495e      	ldr	r1, [pc, #376]	; (1788 <fs_open+0x190>)
    160e:	2213      	movs	r2, #19
    1610:	f006 fd6e 	bl	80f0 <strncmp>
    1614:	4606      	mov	r6, r0
    1616:	b940      	cbnz	r0, 162a <fs_open+0x32>
    1618:	f7ff ffbe 	bl	1598 <io_is_led_on>
    161c:	f1d0 0001 	rsbs	r0, r0, #1
    1620:	bf38      	it	cc
    1622:	2000      	movcc	r0, #0
    1624:	f7ff ff46 	bl	14b4 <io_set_led>
    1628:	e00e      	b.n	1648 <fs_open+0x50>
    162a:	4628      	mov	r0, r5
    162c:	4957      	ldr	r1, [pc, #348]	; (178c <fs_open+0x194>)
    162e:	2212      	movs	r2, #18
    1630:	f006 fd5e 	bl	80f0 <strncmp>
    1634:	4606      	mov	r6, r0
    1636:	b958      	cbnz	r0, 1650 <fs_open+0x58>
    1638:	f7ff ffca 	bl	15d0 <io_is_pwm_on>
    163c:	f1d0 0001 	rsbs	r0, r0, #1
    1640:	bf38      	it	cc
    1642:	2000      	movcc	r0, #0
    1644:	f7ff ff40 	bl	14c8 <io_set_pwm>
    1648:	6026      	str	r6, [r4, #0]
    164a:	6066      	str	r6, [r4, #4]
    164c:	60a6      	str	r6, [r4, #8]
    164e:	e07f      	b.n	1750 <fs_open+0x158>
    1650:	4628      	mov	r0, r5
    1652:	494f      	ldr	r1, [pc, #316]	; (1790 <fs_open+0x198>)
    1654:	2210      	movs	r2, #16
    1656:	f006 fd4b 	bl	80f0 <strncmp>
    165a:	b9c8      	cbnz	r0, 1690 <fs_open+0x98>
    165c:	4b4d      	ldr	r3, [pc, #308]	; (1794 <fs_open+0x19c>)
    165e:	182a      	adds	r2, r5, r0
    1660:	7c12      	ldrb	r2, [r2, #16]
    1662:	2a26      	cmp	r2, #38	; 0x26
    1664:	d002      	beq.n	166c <fs_open+0x74>
    1666:	2a2b      	cmp	r2, #43	; 0x2b
    1668:	d002      	beq.n	1670 <fs_open+0x78>
    166a:	b912      	cbnz	r2, 1672 <fs_open+0x7a>
    166c:	2200      	movs	r2, #0
    166e:	e000      	b.n	1672 <fs_open+0x7a>
    1670:	2220      	movs	r2, #32
    1672:	705a      	strb	r2, [r3, #1]
    1674:	f813 2f01 	ldrb.w	r2, [r3, #1]!
    1678:	b112      	cbz	r2, 1680 <fs_open+0x88>
    167a:	3001      	adds	r0, #1
    167c:	2810      	cmp	r0, #16
    167e:	d1ee      	bne.n	165e <fs_open+0x66>
    1680:	2100      	movs	r1, #0
    1682:	220a      	movs	r2, #10
    1684:	4844      	ldr	r0, [pc, #272]	; (1798 <fs_open+0x1a0>)
    1686:	f005 fcd7 	bl	7038 <ustrtoul>
    168a:	f7ff ff25 	bl	14d8 <io_pwm_freq>
    168e:	e01e      	b.n	16ce <fs_open+0xd6>
    1690:	4628      	mov	r0, r5
    1692:	4942      	ldr	r1, [pc, #264]	; (179c <fs_open+0x1a4>)
    1694:	2215      	movs	r2, #21
    1696:	f006 fd2b 	bl	80f0 <strncmp>
    169a:	b9f0      	cbnz	r0, 16da <fs_open+0xe2>
    169c:	4b3d      	ldr	r3, [pc, #244]	; (1794 <fs_open+0x19c>)
    169e:	182a      	adds	r2, r5, r0
    16a0:	7d52      	ldrb	r2, [r2, #21]
    16a2:	2a26      	cmp	r2, #38	; 0x26
    16a4:	d002      	beq.n	16ac <fs_open+0xb4>
    16a6:	2a2b      	cmp	r2, #43	; 0x2b
    16a8:	d002      	beq.n	16b0 <fs_open+0xb8>
    16aa:	b912      	cbnz	r2, 16b2 <fs_open+0xba>
    16ac:	2200      	movs	r2, #0
    16ae:	e000      	b.n	16b2 <fs_open+0xba>
    16b0:	2220      	movs	r2, #32
    16b2:	705a      	strb	r2, [r3, #1]
    16b4:	f813 2f01 	ldrb.w	r2, [r3, #1]!
    16b8:	b112      	cbz	r2, 16c0 <fs_open+0xc8>
    16ba:	3001      	adds	r0, #1
    16bc:	2810      	cmp	r0, #16
    16be:	d1ee      	bne.n	169e <fs_open+0xa6>
    16c0:	2100      	movs	r1, #0
    16c2:	220a      	movs	r2, #10
    16c4:	4834      	ldr	r0, [pc, #208]	; (1798 <fs_open+0x1a0>)
    16c6:	f005 fcb7 	bl	7038 <ustrtoul>
    16ca:	f7ff ff27 	bl	151c <io_pwm_dutycycle>
    16ce:	2300      	movs	r3, #0
    16d0:	6023      	str	r3, [r4, #0]
    16d2:	6063      	str	r3, [r4, #4]
    16d4:	60a3      	str	r3, [r4, #8]
    16d6:	60e3      	str	r3, [r4, #12]
    16d8:	e04e      	b.n	1778 <fs_open+0x180>
    16da:	4628      	mov	r0, r5
    16dc:	4930      	ldr	r1, [pc, #192]	; (17a0 <fs_open+0x1a8>)
    16de:	220c      	movs	r2, #12
    16e0:	f006 fd06 	bl	80f0 <strncmp>
    16e4:	4606      	mov	r6, r0
    16e6:	b928      	cbnz	r0, 16f4 <fs_open+0xfc>
    16e8:	4d2e      	ldr	r5, [pc, #184]	; (17a4 <fs_open+0x1ac>)
    16ea:	2104      	movs	r1, #4
    16ec:	4628      	mov	r0, r5
    16ee:	f7ff ff39 	bl	1564 <io_get_ledstate>
    16f2:	e027      	b.n	1744 <fs_open+0x14c>
    16f4:	4628      	mov	r0, r5
    16f6:	492c      	ldr	r1, [pc, #176]	; (17a8 <fs_open+0x1b0>)
    16f8:	220c      	movs	r2, #12
    16fa:	f006 fcf9 	bl	80f0 <strncmp>
    16fe:	4606      	mov	r6, r0
    1700:	b928      	cbnz	r0, 170e <fs_open+0x116>
    1702:	4d2a      	ldr	r5, [pc, #168]	; (17ac <fs_open+0x1b4>)
    1704:	2104      	movs	r1, #4
    1706:	4628      	mov	r0, r5
    1708:	f7ff ff52 	bl	15b0 <io_get_pwmstate>
    170c:	e01a      	b.n	1744 <fs_open+0x14c>
    170e:	4628      	mov	r0, r5
    1710:	4927      	ldr	r1, [pc, #156]	; (17b0 <fs_open+0x1b8>)
    1712:	220e      	movs	r2, #14
    1714:	f006 fcec 	bl	80f0 <strncmp>
    1718:	4606      	mov	r6, r0
    171a:	b920      	cbnz	r0, 1726 <fs_open+0x12e>
    171c:	f7ff ff60 	bl	15e0 <io_get_pwmfreq>
    1720:	4d24      	ldr	r5, [pc, #144]	; (17b4 <fs_open+0x1bc>)
    1722:	4602      	mov	r2, r0
    1724:	e00a      	b.n	173c <fs_open+0x144>
    1726:	4628      	mov	r0, r5
    1728:	4923      	ldr	r1, [pc, #140]	; (17b8 <fs_open+0x1c0>)
    172a:	2213      	movs	r2, #19
    172c:	f006 fce0 	bl	80f0 <strncmp>
    1730:	4606      	mov	r6, r0
    1732:	b978      	cbnz	r0, 1754 <fs_open+0x15c>
    1734:	f7ff ff5a 	bl	15ec <io_get_pwmdutycycle>
    1738:	4d20      	ldr	r5, [pc, #128]	; (17bc <fs_open+0x1c4>)
    173a:	4602      	mov	r2, r0
    173c:	4628      	mov	r0, r5
    173e:	4920      	ldr	r1, [pc, #128]	; (17c0 <fs_open+0x1c8>)
    1740:	f005 fc60 	bl	7004 <usprintf>
    1744:	6025      	str	r5, [r4, #0]
    1746:	4628      	mov	r0, r5
    1748:	f006 fca0 	bl	808c <strlen>
    174c:	6060      	str	r0, [r4, #4]
    174e:	60a0      	str	r0, [r4, #8]
    1750:	60e6      	str	r6, [r4, #12]
    1752:	e011      	b.n	1778 <fs_open+0x180>
    1754:	4e1b      	ldr	r6, [pc, #108]	; (17c4 <fs_open+0x1cc>)
    1756:	68f7      	ldr	r7, [r6, #12]
    1758:	4628      	mov	r0, r5
    175a:	6871      	ldr	r1, [r6, #4]
    175c:	463a      	mov	r2, r7
    175e:	f006 fcc7 	bl	80f0 <strncmp>
    1762:	b928      	cbnz	r0, 1770 <fs_open+0x178>
    1764:	68b3      	ldr	r3, [r6, #8]
    1766:	6067      	str	r7, [r4, #4]
    1768:	6023      	str	r3, [r4, #0]
    176a:	60a7      	str	r7, [r4, #8]
    176c:	60e0      	str	r0, [r4, #12]
    176e:	e003      	b.n	1778 <fs_open+0x180>
    1770:	6836      	ldr	r6, [r6, #0]
    1772:	2e00      	cmp	r6, #0
    1774:	d1ef      	bne.n	1756 <fs_open+0x15e>
    1776:	e001      	b.n	177c <fs_open+0x184>
    1778:	4620      	mov	r0, r4
    177a:	bdf8      	pop	{r3, r4, r5, r6, r7, pc}
    177c:	4620      	mov	r0, r4
    177e:	f001 f98d 	bl	2a9c <mem_free>
    1782:	4634      	mov	r4, r6
    1784:	e7f8      	b.n	1778 <fs_open+0x180>
    1786:	bf00      	nop
    1788:	00008e73 	.word	0x00008e73
    178c:	00008e87 	.word	0x00008e87
    1790:	00008e9a 	.word	0x00008e9a
    1794:	20000133 	.word	0x20000133
    1798:	20000134 	.word	0x20000134
    179c:	00008eab 	.word	0x00008eab
    17a0:	00008ec1 	.word	0x00008ec1
    17a4:	20000144 	.word	0x20000144
    17a8:	00008ece 	.word	0x00008ece
    17ac:	20000148 	.word	0x20000148
    17b0:	00008edb 	.word	0x00008edb
    17b4:	2000014c 	.word	0x2000014c
    17b8:	00008eea 	.word	0x00008eea
    17bc:	2000015c 	.word	0x2000015c
    17c0:	000087eb 	.word	0x000087eb
    17c4:	0000a5d8 	.word	0x0000a5d8

000017c8 <fs_close>:
    17c8:	f001 b968 	b.w	2a9c <mem_free>

000017cc <fs_read>:
    17cc:	b538      	push	{r3, r4, r5, lr}
    17ce:	4604      	mov	r4, r0
    17d0:	68e3      	ldr	r3, [r4, #12]
    17d2:	4608      	mov	r0, r1
    17d4:	2b01      	cmp	r3, #1
    17d6:	d102      	bne.n	17de <fs_read+0x12>
    17d8:	3b01      	subs	r3, #1
    17da:	60e3      	str	r3, [r4, #12]
    17dc:	e010      	b.n	1800 <fs_read+0x34>
    17de:	6861      	ldr	r1, [r4, #4]
    17e0:	68a3      	ldr	r3, [r4, #8]
    17e2:	4299      	cmp	r1, r3
    17e4:	d00c      	beq.n	1800 <fs_read+0x34>
    17e6:	1acd      	subs	r5, r1, r3
    17e8:	6821      	ldr	r1, [r4, #0]
    17ea:	42aa      	cmp	r2, r5
    17ec:	bfb8      	it	lt
    17ee:	4615      	movlt	r5, r2
    17f0:	1949      	adds	r1, r1, r5
    17f2:	462a      	mov	r2, r5
    17f4:	f006 f89c 	bl	7930 <memcpy>
    17f8:	68a3      	ldr	r3, [r4, #8]
    17fa:	195b      	adds	r3, r3, r5
    17fc:	60a3      	str	r3, [r4, #8]
    17fe:	e001      	b.n	1804 <fs_read+0x38>
    1800:	f04f 35ff 	mov.w	r5, #4294967295
    1804:	4628      	mov	r0, r5
    1806:	bd38      	pop	{r3, r4, r5, pc}

00001808 <LocatorReceive>:
    1808:	e92d 41f0 	stmdb	sp!, {r4, r5, r6, r7, r8, lr}
    180c:	4610      	mov	r0, r2
    180e:	461f      	mov	r7, r3
    1810:	6853      	ldr	r3, [r2, #4]
    1812:	8952      	ldrh	r2, [r2, #10]
    1814:	460d      	mov	r5, r1
    1816:	2a04      	cmp	r2, #4
    1818:	f8bd 6018 	ldrh.w	r6, [sp, #24]
    181c:	d130      	bne.n	1880 <LocatorReceive+0x78>
    181e:	781a      	ldrb	r2, [r3, #0]
    1820:	2aff      	cmp	r2, #255	; 0xff
    1822:	d12d      	bne.n	1880 <LocatorReceive+0x78>
    1824:	785a      	ldrb	r2, [r3, #1]
    1826:	2a04      	cmp	r2, #4
    1828:	d12a      	bne.n	1880 <LocatorReceive+0x78>
    182a:	789a      	ldrb	r2, [r3, #2]
    182c:	2a02      	cmp	r2, #2
    182e:	d127      	bne.n	1880 <LocatorReceive+0x78>
    1830:	78db      	ldrb	r3, [r3, #3]
    1832:	2bfb      	cmp	r3, #251	; 0xfb
    1834:	d124      	bne.n	1880 <LocatorReceive+0x78>
    1836:	f001 f9c4 	bl	2bc2 <pbuf_free>
    183a:	2000      	movs	r0, #0
    183c:	2154      	movs	r1, #84	; 0x54
    183e:	4602      	mov	r2, r0
    1840:	f001 fc1c 	bl	307c <pbuf_alloc>
    1844:	4604      	mov	r4, r0
    1846:	2800      	cmp	r0, #0
    1848:	d01e      	beq.n	1888 <LocatorReceive+0x80>
    184a:	4a10      	ldr	r2, [pc, #64]	; (188c <LocatorReceive+0x84>)
    184c:	2300      	movs	r3, #0
    184e:	f882 3053 	strb.w	r3, [r2, #83]	; 0x53
    1852:	5cd1      	ldrb	r1, [r2, r3]
    1854:	f892 0053 	ldrb.w	r0, [r2, #83]	; 0x53
    1858:	3301      	adds	r3, #1
    185a:	1a41      	subs	r1, r0, r1
    185c:	2b53      	cmp	r3, #83	; 0x53
    185e:	f882 1053 	strb.w	r1, [r2, #83]	; 0x53
    1862:	d1f6      	bne.n	1852 <LocatorReceive+0x4a>
    1864:	6861      	ldr	r1, [r4, #4]
    1866:	3b53      	subs	r3, #83	; 0x53
    1868:	5cd0      	ldrb	r0, [r2, r3]
    186a:	54c8      	strb	r0, [r1, r3]
    186c:	3301      	adds	r3, #1
    186e:	2b54      	cmp	r3, #84	; 0x54
    1870:	d1fa      	bne.n	1868 <LocatorReceive+0x60>
    1872:	4628      	mov	r0, r5
    1874:	4621      	mov	r1, r4
    1876:	463a      	mov	r2, r7
    1878:	4633      	mov	r3, r6
    187a:	f002 f8c5 	bl	3a08 <udp_sendto>
    187e:	4620      	mov	r0, r4
    1880:	e8bd 41f0 	ldmia.w	sp!, {r4, r5, r6, r7, r8, lr}
    1884:	f001 b99d 	b.w	2bc2 <pbuf_free>
    1888:	e8bd 81f0 	ldmia.w	sp!, {r4, r5, r6, r7, r8, pc}
    188c:	2000016c 	.word	0x2000016c

00001890 <LocatorInit>:
    1890:	b570      	push	{r4, r5, r6, lr}
    1892:	2200      	movs	r2, #0
    1894:	4b11      	ldr	r3, [pc, #68]	; (18dc <LocatorInit+0x4c>)
    1896:	2500      	movs	r5, #0
    1898:	549d      	strb	r5, [r3, r2]
    189a:	3201      	adds	r2, #1
    189c:	2a54      	cmp	r2, #84	; 0x54
    189e:	d1f9      	bne.n	1894 <LocatorInit+0x4>
    18a0:	705a      	strb	r2, [r3, #1]
    18a2:	21fe      	movs	r1, #254	; 0xfe
    18a4:	3a52      	subs	r2, #82	; 0x52
    18a6:	7019      	strb	r1, [r3, #0]
    18a8:	709a      	strb	r2, [r3, #2]
    18aa:	725d      	strb	r5, [r3, #9]
    18ac:	729d      	strb	r5, [r3, #10]
    18ae:	72dd      	strb	r5, [r3, #11]
    18b0:	731d      	strb	r5, [r3, #12]
    18b2:	735d      	strb	r5, [r3, #13]
    18b4:	739d      	strb	r5, [r3, #14]
    18b6:	f001 f815 	bl	28e4 <udp_new>
    18ba:	462a      	mov	r2, r5
    18bc:	4604      	mov	r4, r0
    18be:	4908      	ldr	r1, [pc, #32]	; (18e0 <LocatorInit+0x50>)
    18c0:	f000 fc5e 	bl	2180 <udp_recv>
    18c4:	2217      	movs	r2, #23
    18c6:	4620      	mov	r0, r4
    18c8:	4906      	ldr	r1, [pc, #24]	; (18e4 <LocatorInit+0x54>)
    18ca:	f000 fc07 	bl	20dc <udp_bind>
    18ce:	4905      	ldr	r1, [pc, #20]	; (18e4 <LocatorInit+0x54>)
    18d0:	4620      	mov	r0, r4
    18d2:	2217      	movs	r2, #23
    18d4:	e8bd 4070 	ldmia.w	sp!, {r4, r5, r6, lr}
    18d8:	f000 bc2e 	b.w	2138 <udp_connect>
    18dc:	2000016c 	.word	0x2000016c
    18e0:	00001809 	.word	0x00001809
    18e4:	0000a5f8 	.word	0x0000a5f8

000018e8 <LocatorMACAddrSet>:
    18e8:	7802      	ldrb	r2, [r0, #0]
    18ea:	4b06      	ldr	r3, [pc, #24]	; (1904 <LocatorMACAddrSet+0x1c>)
    18ec:	725a      	strb	r2, [r3, #9]
    18ee:	7842      	ldrb	r2, [r0, #1]
    18f0:	729a      	strb	r2, [r3, #10]
    18f2:	7882      	ldrb	r2, [r0, #2]
    18f4:	72da      	strb	r2, [r3, #11]
    18f6:	78c2      	ldrb	r2, [r0, #3]
    18f8:	731a      	strb	r2, [r3, #12]
    18fa:	7902      	ldrb	r2, [r0, #4]
    18fc:	735a      	strb	r2, [r3, #13]
    18fe:	7942      	ldrb	r2, [r0, #5]
    1900:	739a      	strb	r2, [r3, #14]
    1902:	4770      	bx	lr
    1904:	2000016c 	.word	0x2000016c

00001908 <LocatorAppTitleSet>:
    1908:	4a09      	ldr	r2, [pc, #36]	; (1930 <LocatorAppTitleSet+0x28>)
    190a:	2300      	movs	r3, #0
    190c:	e004      	b.n	1918 <LocatorAppTitleSet+0x10>
    190e:	3301      	adds	r3, #1
    1910:	2b40      	cmp	r3, #64	; 0x40
    1912:	f802 1f01 	strb.w	r1, [r2, #1]!
    1916:	d008      	beq.n	192a <LocatorAppTitleSet+0x22>
    1918:	5cc1      	ldrb	r1, [r0, r3]
    191a:	2900      	cmp	r1, #0
    191c:	d1f7      	bne.n	190e <LocatorAppTitleSet+0x6>
    191e:	e004      	b.n	192a <LocatorAppTitleSet+0x22>
    1920:	4a04      	ldr	r2, [pc, #16]	; (1934 <LocatorAppTitleSet+0x2c>)
    1922:	2100      	movs	r1, #0
    1924:	18d2      	adds	r2, r2, r3
    1926:	74d1      	strb	r1, [r2, #19]
    1928:	3301      	adds	r3, #1
    192a:	2b3f      	cmp	r3, #63	; 0x3f
    192c:	d9f8      	bls.n	1920 <LocatorAppTitleSet+0x18>
    192e:	4770      	bx	lr
    1930:	2000017e 	.word	0x2000017e
    1934:	2000016c 	.word	0x2000016c

00001938 <dhcp_set_state>:
    1938:	7c83      	ldrb	r3, [r0, #18]
    193a:	428b      	cmp	r3, r1
    193c:	d002      	beq.n	1944 <dhcp_set_state+0xc>
    193e:	2300      	movs	r3, #0
    1940:	7481      	strb	r1, [r0, #18]
    1942:	74c3      	strb	r3, [r0, #19]
    1944:	4770      	bx	lr

00001946 <dhcp_option>:
    1946:	8b83      	ldrh	r3, [r0, #28]
    1948:	b510      	push	{r4, lr}
    194a:	6984      	ldr	r4, [r0, #24]
    194c:	18e4      	adds	r4, r4, r3
    194e:	f884 10f0 	strb.w	r1, [r4, #240]	; 0xf0
    1952:	6981      	ldr	r1, [r0, #24]
    1954:	3301      	adds	r3, #1
    1956:	b29b      	uxth	r3, r3
    1958:	18c9      	adds	r1, r1, r3
    195a:	3301      	adds	r3, #1
    195c:	f881 20f0 	strb.w	r2, [r1, #240]	; 0xf0
    1960:	8383      	strh	r3, [r0, #28]
    1962:	bd10      	pop	{r4, pc}

00001964 <dhcp_option_byte>:
    1964:	8b83      	ldrh	r3, [r0, #28]
    1966:	6982      	ldr	r2, [r0, #24]
    1968:	18d2      	adds	r2, r2, r3
    196a:	3301      	adds	r3, #1
    196c:	f882 10f0 	strb.w	r1, [r2, #240]	; 0xf0
    1970:	8383      	strh	r3, [r0, #28]
    1972:	4770      	bx	lr

00001974 <dhcp_option_short>:
    1974:	8b83      	ldrh	r3, [r0, #28]
    1976:	6982      	ldr	r2, [r0, #24]
    1978:	b510      	push	{r4, lr}
    197a:	18d2      	adds	r2, r2, r3
    197c:	0a0c      	lsrs	r4, r1, #8
    197e:	f882 40f0 	strb.w	r4, [r2, #240]	; 0xf0
    1982:	6982      	ldr	r2, [r0, #24]
    1984:	3301      	adds	r3, #1
    1986:	b29b      	uxth	r3, r3
    1988:	18d2      	adds	r2, r2, r3
    198a:	3301      	adds	r3, #1
    198c:	f882 10f0 	strb.w	r1, [r2, #240]	; 0xf0
    1990:	8383      	strh	r3, [r0, #28]
    1992:	bd10      	pop	{r4, pc}

00001994 <dhcp_option_long>:
    1994:	8b83      	ldrh	r3, [r0, #28]
    1996:	6982      	ldr	r2, [r0, #24]
    1998:	b510      	push	{r4, lr}
    199a:	18d2      	adds	r2, r2, r3
    199c:	0e0c      	lsrs	r4, r1, #24
    199e:	f882 40f0 	strb.w	r4, [r2, #240]	; 0xf0
    19a2:	6982      	ldr	r2, [r0, #24]
    19a4:	3301      	adds	r3, #1
    19a6:	b29b      	uxth	r3, r3
    19a8:	18d2      	adds	r2, r2, r3
    19aa:	0c0c      	lsrs	r4, r1, #16
    19ac:	f882 40f0 	strb.w	r4, [r2, #240]	; 0xf0
    19b0:	6982      	ldr	r2, [r0, #24]
    19b2:	3301      	adds	r3, #1
    19b4:	b29b      	uxth	r3, r3
    19b6:	18d2      	adds	r2, r2, r3
    19b8:	0a0c      	lsrs	r4, r1, #8
    19ba:	f882 40f0 	strb.w	r4, [r2, #240]	; 0xf0
    19be:	6982      	ldr	r2, [r0, #24]
    19c0:	3301      	adds	r3, #1
    19c2:	b29b      	uxth	r3, r3
    19c4:	18d2      	adds	r2, r2, r3
    19c6:	3301      	adds	r3, #1
    19c8:	f882 10f0 	strb.w	r1, [r2, #240]	; 0xf0
    19cc:	8383      	strh	r3, [r0, #28]
    19ce:	bd10      	pop	{r4, pc}

000019d0 <dhcp_option_trailer>:
    19d0:	b188      	cbz	r0, 19f6 <dhcp_option_trailer+0x26>
    19d2:	8b83      	ldrh	r3, [r0, #28]
    19d4:	6982      	ldr	r2, [r0, #24]
    19d6:	21ff      	movs	r1, #255	; 0xff
    19d8:	18d2      	adds	r2, r2, r3
    19da:	e002      	b.n	19e2 <dhcp_option_trailer+0x12>
    19dc:	6982      	ldr	r2, [r0, #24]
    19de:	2100      	movs	r1, #0
    19e0:	18d2      	adds	r2, r2, r3
    19e2:	3301      	adds	r3, #1
    19e4:	f882 10f0 	strb.w	r1, [r2, #240]	; 0xf0
    19e8:	8383      	strh	r3, [r0, #28]
    19ea:	8b83      	ldrh	r3, [r0, #28]
    19ec:	2b43      	cmp	r3, #67	; 0x43
    19ee:	d9f5      	bls.n	19dc <dhcp_option_trailer+0xc>
    19f0:	f013 0f03 	tst.w	r3, #3
    19f4:	d1f2      	bne.n	19dc <dhcp_option_trailer+0xc>
    19f6:	4770      	bx	lr

000019f8 <dhcp_get_option_ptr>:
    19f8:	b5f0      	push	{r4, r5, r6, r7, lr}
    19fa:	68c4      	ldr	r4, [r0, #12]
    19fc:	4603      	mov	r3, r0
    19fe:	2c00      	cmp	r4, #0
    1a00:	d03b      	beq.n	1a7a <dhcp_get_option_ptr+0x82>
    1a02:	8a06      	ldrh	r6, [r0, #16]
    1a04:	2e00      	cmp	r6, #0
    1a06:	d03a      	beq.n	1a7e <dhcp_get_option_ptr+0x86>
    1a08:	2200      	movs	r2, #0
    1a0a:	4615      	mov	r5, r2
    1a0c:	e00e      	b.n	1a2c <dhcp_get_option_ptr+0x34>
    1a0e:	2f34      	cmp	r7, #52	; 0x34
    1a10:	d104      	bne.n	1a1c <dhcp_get_option_ptr+0x24>
    1a12:	3202      	adds	r2, #2
    1a14:	b292      	uxth	r2, r2
    1a16:	5ca5      	ldrb	r5, [r4, r2]
    1a18:	3201      	adds	r2, #1
    1a1a:	e006      	b.n	1a2a <dhcp_get_option_ptr+0x32>
    1a1c:	428f      	cmp	r7, r1
    1a1e:	d033      	beq.n	1a88 <dhcp_get_option_ptr+0x90>
    1a20:	3201      	adds	r2, #1
    1a22:	b292      	uxth	r2, r2
    1a24:	5ca0      	ldrb	r0, [r4, r2]
    1a26:	3201      	adds	r2, #1
    1a28:	1812      	adds	r2, r2, r0
    1a2a:	b292      	uxth	r2, r2
    1a2c:	42b2      	cmp	r2, r6
    1a2e:	d203      	bcs.n	1a38 <dhcp_get_option_ptr+0x40>
    1a30:	5ca7      	ldrb	r7, [r4, r2]
    1a32:	18a0      	adds	r0, r4, r2
    1a34:	2fff      	cmp	r7, #255	; 0xff
    1a36:	d1ea      	bne.n	1a0e <dhcp_get_option_ptr+0x16>
    1a38:	2d00      	cmp	r5, #0
    1a3a:	d022      	beq.n	1a82 <dhcp_get_option_ptr+0x8a>
    1a3c:	2d01      	cmp	r5, #1
    1a3e:	689a      	ldr	r2, [r3, #8]
    1a40:	d102      	bne.n	1a48 <dhcp_get_option_ptr+0x50>
    1a42:	326c      	adds	r2, #108	; 0x6c
    1a44:	2480      	movs	r4, #128	; 0x80
    1a46:	e006      	b.n	1a56 <dhcp_get_option_ptr+0x5e>
    1a48:	2d02      	cmp	r5, #2
    1a4a:	d102      	bne.n	1a52 <dhcp_get_option_ptr+0x5a>
    1a4c:	322c      	adds	r2, #44	; 0x2c
    1a4e:	2440      	movs	r4, #64	; 0x40
    1a50:	e001      	b.n	1a56 <dhcp_get_option_ptr+0x5e>
    1a52:	322c      	adds	r2, #44	; 0x2c
    1a54:	24c0      	movs	r4, #192	; 0xc0
    1a56:	2300      	movs	r3, #0
    1a58:	e009      	b.n	1a6e <dhcp_get_option_ptr+0x76>
    1a5a:	428d      	cmp	r5, r1
    1a5c:	d014      	beq.n	1a88 <dhcp_get_option_ptr+0x90>
    1a5e:	3301      	adds	r3, #1
    1a60:	b29b      	uxth	r3, r3
    1a62:	5cd0      	ldrb	r0, [r2, r3]
    1a64:	3301      	adds	r3, #1
    1a66:	181b      	adds	r3, r3, r0
    1a68:	b29b      	uxth	r3, r3
    1a6a:	42a3      	cmp	r3, r4
    1a6c:	d20b      	bcs.n	1a86 <dhcp_get_option_ptr+0x8e>
    1a6e:	5cd5      	ldrb	r5, [r2, r3]
    1a70:	18d0      	adds	r0, r2, r3
    1a72:	2dff      	cmp	r5, #255	; 0xff
    1a74:	d1f1      	bne.n	1a5a <dhcp_get_option_ptr+0x62>
    1a76:	2000      	movs	r0, #0
    1a78:	bdf0      	pop	{r4, r5, r6, r7, pc}
    1a7a:	4620      	mov	r0, r4
    1a7c:	bdf0      	pop	{r4, r5, r6, r7, pc}
    1a7e:	4630      	mov	r0, r6
    1a80:	bdf0      	pop	{r4, r5, r6, r7, pc}
    1a82:	4628      	mov	r0, r5
    1a84:	bdf0      	pop	{r4, r5, r6, r7, pc}
    1a86:	2000      	movs	r0, #0
    1a88:	bdf0      	pop	{r4, r5, r6, r7, pc}

00001a8a <dhcp_get_option_long>:
    1a8a:	4603      	mov	r3, r0
    1a8c:	7840      	ldrb	r0, [r0, #1]
    1a8e:	f813 2b01 	ldrb.w	r2, [r3], #1
    1a92:	0400      	lsls	r0, r0, #16
    1a94:	ea40 6002 	orr.w	r0, r0, r2, lsl #24
    1a98:	785a      	ldrb	r2, [r3, #1]
    1a9a:	789b      	ldrb	r3, [r3, #2]
    1a9c:	ea40 2002 	orr.w	r0, r0, r2, lsl #8
    1aa0:	4318      	orrs	r0, r3
    1aa2:	4770      	bx	lr

00001aa4 <tcp_accept_null>:
    1aa4:	f06f 0004 	mvn.w	r0, #4
    1aa8:	4770      	bx	lr
	...

00001aac <tcp_new_port>:
    1aac:	4b15      	ldr	r3, [pc, #84]	; (1b04 <tcp_new_port+0x58>)
    1aae:	b570      	push	{r4, r5, r6, lr}
    1ab0:	681d      	ldr	r5, [r3, #0]
    1ab2:	4b15      	ldr	r3, [pc, #84]	; (1b08 <tcp_new_port+0x5c>)
    1ab4:	681c      	ldr	r4, [r3, #0]
    1ab6:	4b15      	ldr	r3, [pc, #84]	; (1b0c <tcp_new_port+0x60>)
    1ab8:	6819      	ldr	r1, [r3, #0]
    1aba:	4b15      	ldr	r3, [pc, #84]	; (1b10 <tcp_new_port+0x64>)
    1abc:	8818      	ldrh	r0, [r3, #0]
    1abe:	461a      	mov	r2, r3
    1ac0:	3001      	adds	r0, #1
    1ac2:	b280      	uxth	r0, r0
    1ac4:	b203      	sxth	r3, r0
    1ac6:	ea30 0023 	bics.w	r0, r0, r3, asr #32
    1aca:	bf28      	it	cs
    1acc:	f44f 5080 	movcs.w	r0, #4096	; 0x1000
    1ad0:	462b      	mov	r3, r5
    1ad2:	e003      	b.n	1adc <tcp_new_port+0x30>
    1ad4:	8b1e      	ldrh	r6, [r3, #24]
    1ad6:	4286      	cmp	r6, r0
    1ad8:	d0f2      	beq.n	1ac0 <tcp_new_port+0x14>
    1ada:	68db      	ldr	r3, [r3, #12]
    1adc:	2b00      	cmp	r3, #0
    1ade:	d1f9      	bne.n	1ad4 <tcp_new_port+0x28>
    1ae0:	4623      	mov	r3, r4
    1ae2:	e003      	b.n	1aec <tcp_new_port+0x40>
    1ae4:	8b1e      	ldrh	r6, [r3, #24]
    1ae6:	4286      	cmp	r6, r0
    1ae8:	d0ea      	beq.n	1ac0 <tcp_new_port+0x14>
    1aea:	68db      	ldr	r3, [r3, #12]
    1aec:	2b00      	cmp	r3, #0
    1aee:	d1f9      	bne.n	1ae4 <tcp_new_port+0x38>
    1af0:	460b      	mov	r3, r1
    1af2:	e003      	b.n	1afc <tcp_new_port+0x50>
    1af4:	8b1e      	ldrh	r6, [r3, #24]
    1af6:	4286      	cmp	r6, r0
    1af8:	d0e2      	beq.n	1ac0 <tcp_new_port+0x14>
    1afa:	68db      	ldr	r3, [r3, #12]
    1afc:	2b00      	cmp	r3, #0
    1afe:	d1f9      	bne.n	1af4 <tcp_new_port+0x48>
    1b00:	8010      	strh	r0, [r2, #0]
    1b02:	bd70      	pop	{r4, r5, r6, pc}
    1b04:	20003224 	.word	0x20003224
    1b08:	200034bc 	.word	0x200034bc
    1b0c:	200001e4 	.word	0x200001e4
    1b10:	200000fc 	.word	0x200000fc

00001b14 <autoip_start_probing>:
    1b14:	6a43      	ldr	r3, [r0, #36]	; 0x24
    1b16:	2201      	movs	r2, #1
    1b18:	711a      	strb	r2, [r3, #4]
    1b1a:	3a01      	subs	r2, #1
    1b1c:	715a      	strb	r2, [r3, #5]
    1b1e:	f890 102e 	ldrb.w	r1, [r0, #46]	; 0x2e
    1b22:	f890 2030 	ldrb.w	r2, [r0, #48]	; 0x30
    1b26:	0409      	lsls	r1, r1, #16
    1b28:	ea41 6102 	orr.w	r1, r1, r2, lsl #24
    1b2c:	f890 202f 	ldrb.w	r2, [r0, #47]	; 0x2f
    1b30:	4311      	orrs	r1, r2
    1b32:	f890 202d 	ldrb.w	r2, [r0, #45]	; 0x2d
    1b36:	ea41 2102 	orr.w	r1, r1, r2, lsl #8
    1b3a:	6a42      	ldr	r2, [r0, #36]	; 0x24
    1b3c:	b102      	cbz	r2, 1b40 <autoip_start_probing+0x2c>
    1b3e:	7a52      	ldrb	r2, [r2, #9]
    1b40:	1852      	adds	r2, r2, r1
    1b42:	210a      	movs	r1, #10
    1b44:	fbb2 f0f1 	udiv	r0, r2, r1
    1b48:	fb01 2210 	mls	r2, r1, r0, r2
    1b4c:	80da      	strh	r2, [r3, #6]
    1b4e:	7a5a      	ldrb	r2, [r3, #9]
    1b50:	428a      	cmp	r2, r1
    1b52:	bf84      	itt	hi
    1b54:	f44f 7216 	movhi.w	r2, #600	; 0x258
    1b58:	80da      	strhhi	r2, [r3, #6]
    1b5a:	4770      	bx	lr

00001b5c <stellarisif_init>:
    1b5c:	226c      	movs	r2, #108	; 0x6c
    1b5e:	b538      	push	{r3, r4, r5, lr}
    1b60:	f880 2032 	strb.w	r2, [r0, #50]	; 0x32
    1b64:	3201      	adds	r2, #1
    1b66:	f880 2033 	strb.w	r2, [r0, #51]	; 0x33
    1b6a:	4a1e      	ldr	r2, [pc, #120]	; (1be4 <stellarisif_init+0x88>)
    1b6c:	4b1e      	ldr	r3, [pc, #120]	; (1be8 <stellarisif_init+0x8c>)
    1b6e:	6142      	str	r2, [r0, #20]
    1b70:	4a1e      	ldr	r2, [pc, #120]	; (1bec <stellarisif_init+0x90>)
    1b72:	2500      	movs	r5, #0
    1b74:	f100 012b 	add.w	r1, r0, #43	; 0x2b
    1b78:	6182      	str	r2, [r0, #24]
    1b7a:	61c3      	str	r3, [r0, #28]
    1b7c:	6019      	str	r1, [r3, #0]
    1b7e:	655d      	str	r5, [r3, #84]	; 0x54
    1b80:	659d      	str	r5, [r3, #88]	; 0x58
    1b82:	65dd      	str	r5, [r3, #92]	; 0x5c
    1b84:	2306      	movs	r3, #6
    1b86:	4604      	mov	r4, r0
    1b88:	f880 302a 	strb.w	r3, [r0, #42]	; 0x2a
    1b8c:	4818      	ldr	r0, [pc, #96]	; (1bf0 <stellarisif_init+0x94>)
    1b8e:	f005 faec 	bl	716a <EthernetMACAddrGet>
    1b92:	f240 53dc 	movw	r3, #1500	; 0x5dc
    1b96:	8523      	strh	r3, [r4, #40]	; 0x28
    1b98:	2332      	movs	r3, #50	; 0x32
    1b9a:	f884 3031 	strb.w	r3, [r4, #49]	; 0x31
    1b9e:	217f      	movs	r1, #127	; 0x7f
    1ba0:	4813      	ldr	r0, [pc, #76]	; (1bf0 <stellarisif_init+0x94>)
    1ba2:	f005 fb0b 	bl	71bc <EthernetIntDisable>
    1ba6:	4629      	mov	r1, r5
    1ba8:	4811      	ldr	r0, [pc, #68]	; (1bf0 <stellarisif_init+0x94>)
    1baa:	f005 fb0c 	bl	71c6 <EthernetIntStatus>
    1bae:	4601      	mov	r1, r0
    1bb0:	480f      	ldr	r0, [pc, #60]	; (1bf0 <stellarisif_init+0x94>)
    1bb2:	f005 fb0e 	bl	71d2 <EthernetIntClear>
    1bb6:	f005 fda5 	bl	7704 <SysCtlClockGet>
    1bba:	4601      	mov	r1, r0
    1bbc:	480c      	ldr	r0, [pc, #48]	; (1bf0 <stellarisif_init+0x94>)
    1bbe:	f005 fa95 	bl	70ec <EthernetInitExpClk>
    1bc2:	f240 2116 	movw	r1, #534	; 0x216
    1bc6:	480a      	ldr	r0, [pc, #40]	; (1bf0 <stellarisif_init+0x94>)
    1bc8:	f005 fa9a 	bl	7100 <EthernetConfigSet>
    1bcc:	4808      	ldr	r0, [pc, #32]	; (1bf0 <stellarisif_init+0x94>)
    1bce:	f005 fae0 	bl	7192 <EthernetEnable>
    1bd2:	203a      	movs	r0, #58	; 0x3a
    1bd4:	f005 fbf8 	bl	73c8 <IntEnable>
    1bd8:	4805      	ldr	r0, [pc, #20]	; (1bf0 <stellarisif_init+0x94>)
    1bda:	2105      	movs	r1, #5
    1bdc:	f005 faea 	bl	71b4 <EthernetIntEnable>
    1be0:	4628      	mov	r0, r5
    1be2:	bd38      	pop	{r3, r4, r5, pc}
    1be4:	00003629 	.word	0x00003629
    1be8:	2000344c 	.word	0x2000344c
    1bec:	00006abd 	.word	0x00006abd
    1bf0:	40048000 	.word	0x40048000

00001bf4 <mem_init>:
    1bf4:	4b0c      	ldr	r3, [pc, #48]	; (1c28 <mem_init+0x34>)
    1bf6:	4a0d      	ldr	r2, [pc, #52]	; (1c2c <mem_init+0x38>)
    1bf8:	f023 0303 	bic.w	r3, r3, #3
    1bfc:	2100      	movs	r1, #0
    1bfe:	6013      	str	r3, [r2, #0]
    1c00:	480b      	ldr	r0, [pc, #44]	; (1c30 <mem_init+0x3c>)
    1c02:	f44f 5240 	mov.w	r2, #12288	; 0x3000
    1c06:	8059      	strh	r1, [r3, #2]
    1c08:	7119      	strb	r1, [r3, #4]
    1c0a:	1899      	adds	r1, r3, r2
    1c0c:	6001      	str	r1, [r0, #0]
    1c0e:	2001      	movs	r0, #1
    1c10:	804a      	strh	r2, [r1, #2]
    1c12:	801a      	strh	r2, [r3, #0]
    1c14:	7108      	strb	r0, [r1, #4]
    1c16:	800a      	strh	r2, [r1, #0]
    1c18:	4906      	ldr	r1, [pc, #24]	; (1c34 <mem_init+0x40>)
    1c1a:	7008      	strb	r0, [r1, #0]
    1c1c:	4906      	ldr	r1, [pc, #24]	; (1c38 <mem_init+0x44>)
    1c1e:	600b      	str	r3, [r1, #0]
    1c20:	4b06      	ldr	r3, [pc, #24]	; (1c3c <mem_init+0x48>)
    1c22:	f8a3 2090 	strh.w	r2, [r3, #144]	; 0x90
    1c26:	4770      	bx	lr
    1c28:	20000210 	.word	0x20000210
    1c2c:	200001e8 	.word	0x200001e8
    1c30:	2000323c 	.word	0x2000323c
    1c34:	20003238 	.word	0x20003238
    1c38:	200034b8 	.word	0x200034b8
    1c3c:	20003244 	.word	0x20003244

00001c40 <mem_malloc>:
    1c40:	e92d 43f0 	stmdb	sp!, {r4, r5, r6, r7, r8, r9, lr}
    1c44:	2800      	cmp	r0, #0
    1c46:	d078      	beq.n	1d3a <mem_malloc+0xfa>
    1c48:	3003      	adds	r0, #3
    1c4a:	f64f 73fc 	movw	r3, #65532	; 0xfffc
    1c4e:	ea00 0303 	and.w	r3, r0, r3
    1c52:	2b0b      	cmp	r3, #11
    1c54:	d903      	bls.n	1c5e <mem_malloc+0x1e>
    1c56:	f5b3 5f40 	cmp.w	r3, #12288	; 0x3000
    1c5a:	d86d      	bhi.n	1d38 <mem_malloc+0xf8>
    1c5c:	e000      	b.n	1c60 <mem_malloc+0x20>
    1c5e:	230c      	movs	r3, #12
    1c60:	4a37      	ldr	r2, [pc, #220]	; (1d40 <mem_malloc+0x100>)
    1c62:	4e38      	ldr	r6, [pc, #224]	; (1d44 <mem_malloc+0x104>)
    1c64:	6811      	ldr	r1, [r2, #0]
    1c66:	6834      	ldr	r4, [r6, #0]
    1c68:	b28d      	uxth	r5, r1
    1c6a:	1b64      	subs	r4, r4, r5
    1c6c:	b2a4      	uxth	r4, r4
    1c6e:	4694      	mov	ip, r2
    1c70:	e055      	b.n	1d1e <mem_malloc+0xde>
    1c72:	1908      	adds	r0, r1, r4
    1c74:	f890 9004 	ldrb.w	r9, [r0, #4]
    1c78:	f1b9 0f00 	cmp.w	r9, #0
    1c7c:	d14e      	bne.n	1d1c <mem_malloc+0xdc>
    1c7e:	5b0f      	ldrh	r7, [r1, r4]
    1c80:	f1a7 0208 	sub.w	r2, r7, #8
    1c84:	1b12      	subs	r2, r2, r4
    1c86:	429a      	cmp	r2, r3
    1c88:	d348      	bcc.n	1d1c <mem_malloc+0xdc>
    1c8a:	f103 0814 	add.w	r8, r3, #20
    1c8e:	4542      	cmp	r2, r8
    1c90:	4a2d      	ldr	r2, [pc, #180]	; (1d48 <mem_malloc+0x108>)
    1c92:	d320      	bcc.n	1cd6 <mem_malloc+0x96>
    1c94:	f103 0508 	add.w	r5, r3, #8
    1c98:	1965      	adds	r5, r4, r5
    1c9a:	b2ad      	uxth	r5, r5
    1c9c:	eb01 0805 	add.w	r8, r1, r5
    1ca0:	534f      	strh	r7, [r1, r5]
    1ca2:	f8a8 4002 	strh.w	r4, [r8, #2]
    1ca6:	8005      	strh	r5, [r0, #0]
    1ca8:	2401      	movs	r4, #1
    1caa:	f888 9004 	strb.w	r9, [r8, #4]
    1cae:	7104      	strb	r4, [r0, #4]
    1cb0:	5b4c      	ldrh	r4, [r1, r5]
    1cb2:	f5b4 5f40 	cmp.w	r4, #12288	; 0x3000
    1cb6:	bf1c      	itt	ne
    1cb8:	1909      	addne	r1, r1, r4
    1cba:	804d      	strhne	r5, [r1, #2]
    1cbc:	f8b2 1092 	ldrh.w	r1, [r2, #146]	; 0x92
    1cc0:	3108      	adds	r1, #8
    1cc2:	185b      	adds	r3, r3, r1
    1cc4:	b29b      	uxth	r3, r3
    1cc6:	f8a2 3092 	strh.w	r3, [r2, #146]	; 0x92
    1cca:	f8b2 2094 	ldrh.w	r2, [r2, #148]	; 0x94
    1cce:	429a      	cmp	r2, r3
    1cd0:	d211      	bcs.n	1cf6 <mem_malloc+0xb6>
    1cd2:	4a1d      	ldr	r2, [pc, #116]	; (1d48 <mem_malloc+0x108>)
    1cd4:	e00d      	b.n	1cf2 <mem_malloc+0xb2>
    1cd6:	2301      	movs	r3, #1
    1cd8:	7103      	strb	r3, [r0, #4]
    1cda:	f8b2 3092 	ldrh.w	r3, [r2, #146]	; 0x92
    1cde:	f8b2 1094 	ldrh.w	r1, [r2, #148]	; 0x94
    1ce2:	18eb      	adds	r3, r5, r3
    1ce4:	18fb      	adds	r3, r7, r3
    1ce6:	1a1b      	subs	r3, r3, r0
    1ce8:	b29b      	uxth	r3, r3
    1cea:	4299      	cmp	r1, r3
    1cec:	f8a2 3092 	strh.w	r3, [r2, #146]	; 0x92
    1cf0:	d201      	bcs.n	1cf6 <mem_malloc+0xb6>
    1cf2:	f8a2 3094 	strh.w	r3, [r2, #148]	; 0x94
    1cf6:	6833      	ldr	r3, [r6, #0]
    1cf8:	4298      	cmp	r0, r3
    1cfa:	d10c      	bne.n	1d16 <mem_malloc+0xd6>
    1cfc:	4b13      	ldr	r3, [pc, #76]	; (1d4c <mem_malloc+0x10c>)
    1cfe:	f8dc 2000 	ldr.w	r2, [ip]
    1d02:	6819      	ldr	r1, [r3, #0]
    1d04:	4603      	mov	r3, r0
    1d06:	e001      	b.n	1d0c <mem_malloc+0xcc>
    1d08:	881b      	ldrh	r3, [r3, #0]
    1d0a:	18d3      	adds	r3, r2, r3
    1d0c:	791c      	ldrb	r4, [r3, #4]
    1d0e:	b10c      	cbz	r4, 1d14 <mem_malloc+0xd4>
    1d10:	428b      	cmp	r3, r1
    1d12:	d1f9      	bne.n	1d08 <mem_malloc+0xc8>
    1d14:	6033      	str	r3, [r6, #0]
    1d16:	3008      	adds	r0, #8
    1d18:	e8bd 83f0 	ldmia.w	sp!, {r4, r5, r6, r7, r8, r9, pc}
    1d1c:	8804      	ldrh	r4, [r0, #0]
    1d1e:	f5c3 5240 	rsb	r2, r3, #12288	; 0x3000
    1d22:	4294      	cmp	r4, r2
    1d24:	dba5      	blt.n	1c72 <mem_malloc+0x32>
    1d26:	4b08      	ldr	r3, [pc, #32]	; (1d48 <mem_malloc+0x108>)
    1d28:	2000      	movs	r0, #0
    1d2a:	f8b3 2096 	ldrh.w	r2, [r3, #150]	; 0x96
    1d2e:	3201      	adds	r2, #1
    1d30:	f8a3 2096 	strh.w	r2, [r3, #150]	; 0x96
    1d34:	e8bd 83f0 	ldmia.w	sp!, {r4, r5, r6, r7, r8, r9, pc}
    1d38:	2000      	movs	r0, #0
    1d3a:	e8bd 83f0 	ldmia.w	sp!, {r4, r5, r6, r7, r8, r9, pc}
    1d3e:	bf00      	nop
    1d40:	200001e8 	.word	0x200001e8
    1d44:	200034b8 	.word	0x200034b8
    1d48:	20003244 	.word	0x20003244
    1d4c:	2000323c 	.word	0x2000323c

00001d50 <memp_init>:
    1d50:	b570      	push	{r4, r5, r6, lr}
    1d52:	4b16      	ldr	r3, [pc, #88]	; (1dac <memp_init+0x5c>)
    1d54:	2200      	movs	r2, #0
    1d56:	4916      	ldr	r1, [pc, #88]	; (1db0 <memp_init+0x60>)
    1d58:	2000      	movs	r0, #0
    1d5a:	f8a3 009c 	strh.w	r0, [r3, #156]	; 0x9c
    1d5e:	f8a3 009e 	strh.w	r0, [r3, #158]	; 0x9e
    1d62:	f8a3 00a0 	strh.w	r0, [r3, #160]	; 0xa0
    1d66:	5a88      	ldrh	r0, [r1, r2]
    1d68:	3202      	adds	r2, #2
    1d6a:	f8a3 009a 	strh.w	r0, [r3, #154]	; 0x9a
    1d6e:	330a      	adds	r3, #10
    1d70:	2a10      	cmp	r2, #16
    1d72:	460c      	mov	r4, r1
    1d74:	d1ef      	bne.n	1d56 <memp_init+0x6>
    1d76:	4b0f      	ldr	r3, [pc, #60]	; (1db4 <memp_init+0x64>)
    1d78:	4a0f      	ldr	r2, [pc, #60]	; (1db8 <memp_init+0x68>)
    1d7a:	f023 0103 	bic.w	r1, r3, #3
    1d7e:	2300      	movs	r3, #0
    1d80:	2000      	movs	r0, #0
    1d82:	f842 0b04 	str.w	r0, [r2], #4
    1d86:	5ae5      	ldrh	r5, [r4, r3]
    1d88:	e009      	b.n	1d9e <memp_init+0x4e>
    1d8a:	f852 6c04 	ldr.w	r6, [r2, #-4]
    1d8e:	3001      	adds	r0, #1
    1d90:	600e      	str	r6, [r1, #0]
    1d92:	4e0a      	ldr	r6, [pc, #40]	; (1dbc <memp_init+0x6c>)
    1d94:	f842 1c04 	str.w	r1, [r2, #-4]
    1d98:	5af6      	ldrh	r6, [r6, r3]
    1d9a:	b280      	uxth	r0, r0
    1d9c:	1989      	adds	r1, r1, r6
    1d9e:	42a8      	cmp	r0, r5
    1da0:	d1f3      	bne.n	1d8a <memp_init+0x3a>
    1da2:	3302      	adds	r3, #2
    1da4:	2b10      	cmp	r3, #16
    1da6:	d1eb      	bne.n	1d80 <memp_init+0x30>
    1da8:	bd70      	pop	{r4, r5, r6, pc}
    1daa:	bf00      	nop
    1dac:	20003244 	.word	0x20003244
    1db0:	0000a602 	.word	0x0000a602
    1db4:	200034c7 	.word	0x200034c7
    1db8:	20005098 	.word	0x20005098
    1dbc:	0000a612 	.word	0x0000a612

00001dc0 <lwip_init>:
    1dc0:	b510      	push	{r4, lr}
    1dc2:	f7ff ff17 	bl	1bf4 <mem_init>
    1dc6:	e8bd 4010 	ldmia.w	sp!, {r4, lr}
    1dca:	f7ff bfc1 	b.w	1d50 <memp_init>

00001dce <netif_set_gw>:
    1dce:	b101      	cbz	r1, 1dd2 <netif_set_gw+0x4>
    1dd0:	6809      	ldr	r1, [r1, #0]
    1dd2:	60c1      	str	r1, [r0, #12]
    1dd4:	4770      	bx	lr

00001dd6 <netif_set_netmask>:
    1dd6:	b101      	cbz	r1, 1dda <netif_set_netmask+0x4>
    1dd8:	6809      	ldr	r1, [r1, #0]
    1dda:	6081      	str	r1, [r0, #8]
    1ddc:	4770      	bx	lr
	...

00001de0 <netif_set_default>:
    1de0:	4b01      	ldr	r3, [pc, #4]	; (1de8 <netif_set_default+0x8>)
    1de2:	6018      	str	r0, [r3, #0]
    1de4:	4770      	bx	lr
    1de6:	bf00      	nop
    1de8:	20000200 	.word	0x20000200

00001dec <netif_set_down>:
    1dec:	f890 3031 	ldrb.w	r3, [r0, #49]	; 0x31
    1df0:	f013 0f01 	tst.w	r3, #1
    1df4:	bf1c      	itt	ne
    1df6:	f023 0301 	bicne.w	r3, r3, #1
    1dfa:	f880 3031 	strbne.w	r3, [r0, #49]	; 0x31
    1dfe:	4770      	bx	lr

00001e00 <netif_is_up>:
    1e00:	f890 0031 	ldrb.w	r0, [r0, #49]	; 0x31
    1e04:	f000 0001 	and.w	r0, r0, #1
    1e08:	4770      	bx	lr

00001e0a <pbuf_header>:
    1e0a:	b510      	push	{r4, lr}
    1e0c:	2900      	cmp	r1, #0
    1e0e:	d02a      	beq.n	1e66 <pbuf_header+0x5c>
    1e10:	2800      	cmp	r0, #0
    1e12:	d02d      	beq.n	1e70 <pbuf_header+0x66>
    1e14:	2900      	cmp	r1, #0
    1e16:	da05      	bge.n	1e24 <pbuf_header+0x1a>
    1e18:	424a      	negs	r2, r1
    1e1a:	8943      	ldrh	r3, [r0, #10]
    1e1c:	b292      	uxth	r2, r2
    1e1e:	4293      	cmp	r3, r2
    1e20:	d201      	bcs.n	1e26 <pbuf_header+0x1c>
    1e22:	e022      	b.n	1e6a <pbuf_header+0x60>
    1e24:	b28a      	uxth	r2, r1
    1e26:	7b04      	ldrb	r4, [r0, #12]
    1e28:	6843      	ldr	r3, [r0, #4]
    1e2a:	b10c      	cbz	r4, 1e30 <pbuf_header+0x26>
    1e2c:	2c03      	cmp	r4, #3
    1e2e:	d107      	bne.n	1e40 <pbuf_header+0x36>
    1e30:	1a5a      	subs	r2, r3, r1
    1e32:	f100 0410 	add.w	r4, r0, #16
    1e36:	42a2      	cmp	r2, r4
    1e38:	6042      	str	r2, [r0, #4]
    1e3a:	d20c      	bcs.n	1e56 <pbuf_header+0x4c>
    1e3c:	6043      	str	r3, [r0, #4]
    1e3e:	e014      	b.n	1e6a <pbuf_header+0x60>
    1e40:	3c01      	subs	r4, #1
    1e42:	b2a4      	uxth	r4, r4
    1e44:	2c01      	cmp	r4, #1
    1e46:	d810      	bhi.n	1e6a <pbuf_header+0x60>
    1e48:	2900      	cmp	r1, #0
    1e4a:	da0e      	bge.n	1e6a <pbuf_header+0x60>
    1e4c:	8944      	ldrh	r4, [r0, #10]
    1e4e:	4294      	cmp	r4, r2
    1e50:	d30d      	bcc.n	1e6e <pbuf_header+0x64>
    1e52:	1a5b      	subs	r3, r3, r1
    1e54:	6043      	str	r3, [r0, #4]
    1e56:	8943      	ldrh	r3, [r0, #10]
    1e58:	18cb      	adds	r3, r1, r3
    1e5a:	8143      	strh	r3, [r0, #10]
    1e5c:	8903      	ldrh	r3, [r0, #8]
    1e5e:	18c9      	adds	r1, r1, r3
    1e60:	8101      	strh	r1, [r0, #8]
    1e62:	2000      	movs	r0, #0
    1e64:	bd10      	pop	{r4, pc}
    1e66:	4608      	mov	r0, r1
    1e68:	bd10      	pop	{r4, pc}
    1e6a:	2001      	movs	r0, #1
    1e6c:	bd10      	pop	{r4, pc}
    1e6e:	2001      	movs	r0, #1
    1e70:	bd10      	pop	{r4, pc}

00001e72 <pbuf_clen>:
    1e72:	4603      	mov	r3, r0
    1e74:	2000      	movs	r0, #0
    1e76:	e002      	b.n	1e7e <pbuf_clen+0xc>
    1e78:	3001      	adds	r0, #1
    1e7a:	681b      	ldr	r3, [r3, #0]
    1e7c:	b2c0      	uxtb	r0, r0
    1e7e:	2b00      	cmp	r3, #0
    1e80:	d1fa      	bne.n	1e78 <pbuf_clen+0x6>
    1e82:	4770      	bx	lr

00001e84 <pbuf_cat>:
    1e84:	b510      	push	{r4, lr}
    1e86:	b168      	cbz	r0, 1ea4 <pbuf_cat+0x20>
    1e88:	b921      	cbnz	r1, 1e94 <pbuf_cat+0x10>
    1e8a:	e00b      	b.n	1ea4 <pbuf_cat+0x20>
    1e8c:	8904      	ldrh	r4, [r0, #8]
    1e8e:	191b      	adds	r3, r3, r4
    1e90:	8103      	strh	r3, [r0, #8]
    1e92:	4610      	mov	r0, r2
    1e94:	6802      	ldr	r2, [r0, #0]
    1e96:	890b      	ldrh	r3, [r1, #8]
    1e98:	2a00      	cmp	r2, #0
    1e9a:	d1f7      	bne.n	1e8c <pbuf_cat+0x8>
    1e9c:	8902      	ldrh	r2, [r0, #8]
    1e9e:	6001      	str	r1, [r0, #0]
    1ea0:	189b      	adds	r3, r3, r2
    1ea2:	8103      	strh	r3, [r0, #8]
    1ea4:	bd10      	pop	{r4, pc}

00001ea6 <pbuf_copy>:
    1ea6:	e92d 41f0 	stmdb	sp!, {r4, r5, r6, r7, r8, lr}
    1eaa:	460c      	mov	r4, r1
    1eac:	4605      	mov	r5, r0
    1eae:	2800      	cmp	r0, #0
    1eb0:	d039      	beq.n	1f26 <pbuf_copy+0x80>
    1eb2:	2900      	cmp	r1, #0
    1eb4:	d037      	beq.n	1f26 <pbuf_copy+0x80>
    1eb6:	8902      	ldrh	r2, [r0, #8]
    1eb8:	890b      	ldrh	r3, [r1, #8]
    1eba:	429a      	cmp	r2, r3
    1ebc:	d333      	bcc.n	1f26 <pbuf_copy+0x80>
    1ebe:	2600      	movs	r6, #0
    1ec0:	4637      	mov	r7, r6
    1ec2:	896b      	ldrh	r3, [r5, #10]
    1ec4:	f8b4 800a 	ldrh.w	r8, [r4, #10]
    1ec8:	1bdb      	subs	r3, r3, r7
    1eca:	ebc6 0808 	rsb	r8, r6, r8
    1ece:	4543      	cmp	r3, r8
    1ed0:	6868      	ldr	r0, [r5, #4]
    1ed2:	6861      	ldr	r1, [r4, #4]
    1ed4:	bfb4      	ite	lt
    1ed6:	fa1f f883 	uxthlt.w	r8, r3
    1eda:	fa1f f888 	uxthge.w	r8, r8
    1ede:	19c0      	adds	r0, r0, r7
    1ee0:	1989      	adds	r1, r1, r6
    1ee2:	4642      	mov	r2, r8
    1ee4:	f005 fd24 	bl	7930 <memcpy>
    1ee8:	4447      	add	r7, r8
    1eea:	896b      	ldrh	r3, [r5, #10]
    1eec:	b2bf      	uxth	r7, r7
    1eee:	42bb      	cmp	r3, r7
    1ef0:	4446      	add	r6, r8
    1ef2:	8963      	ldrh	r3, [r4, #10]
    1ef4:	b2b6      	uxth	r6, r6
    1ef6:	bf04      	itt	eq
    1ef8:	682d      	ldreq	r5, [r5, #0]
    1efa:	2700      	moveq	r7, #0
    1efc:	42b3      	cmp	r3, r6
    1efe:	bf9c      	itt	ls
    1f00:	6824      	ldrls	r4, [r4, #0]
    1f02:	2600      	movls	r6, #0
    1f04:	b12c      	cbz	r4, 1f12 <pbuf_copy+0x6c>
    1f06:	8962      	ldrh	r2, [r4, #10]
    1f08:	8923      	ldrh	r3, [r4, #8]
    1f0a:	429a      	cmp	r2, r3
    1f0c:	d101      	bne.n	1f12 <pbuf_copy+0x6c>
    1f0e:	6823      	ldr	r3, [r4, #0]
    1f10:	b95b      	cbnz	r3, 1f2a <pbuf_copy+0x84>
    1f12:	b12d      	cbz	r5, 1f20 <pbuf_copy+0x7a>
    1f14:	896a      	ldrh	r2, [r5, #10]
    1f16:	892b      	ldrh	r3, [r5, #8]
    1f18:	429a      	cmp	r2, r3
    1f1a:	d101      	bne.n	1f20 <pbuf_copy+0x7a>
    1f1c:	682b      	ldr	r3, [r5, #0]
    1f1e:	b923      	cbnz	r3, 1f2a <pbuf_copy+0x84>
    1f20:	2c00      	cmp	r4, #0
    1f22:	d1ce      	bne.n	1ec2 <pbuf_copy+0x1c>
    1f24:	e002      	b.n	1f2c <pbuf_copy+0x86>
    1f26:	24f6      	movs	r4, #246	; 0xf6
    1f28:	e000      	b.n	1f2c <pbuf_copy+0x86>
    1f2a:	24f7      	movs	r4, #247	; 0xf7
    1f2c:	b260      	sxtb	r0, r4
    1f2e:	e8bd 81f0 	ldmia.w	sp!, {r4, r5, r6, r7, r8, pc}

00001f32 <pbuf_copy_partial>:
    1f32:	e92d 43f8 	stmdb	sp!, {r3, r4, r5, r6, r7, r8, r9, lr}
    1f36:	460d      	mov	r5, r1
    1f38:	4614      	mov	r4, r2
    1f3a:	2800      	cmp	r0, #0
    1f3c:	d02a      	beq.n	1f94 <pbuf_copy_partial+0x62>
    1f3e:	2900      	cmp	r1, #0
    1f40:	d02a      	beq.n	1f98 <pbuf_copy_partial+0x66>
    1f42:	2600      	movs	r6, #0
    1f44:	4607      	mov	r7, r0
    1f46:	46b1      	mov	r9, r6
    1f48:	e020      	b.n	1f8c <pbuf_copy_partial+0x5a>
    1f4a:	b12b      	cbz	r3, 1f58 <pbuf_copy_partial+0x26>
    1f4c:	897a      	ldrh	r2, [r7, #10]
    1f4e:	4293      	cmp	r3, r2
    1f50:	d302      	bcc.n	1f58 <pbuf_copy_partial+0x26>
    1f52:	1a9b      	subs	r3, r3, r2
    1f54:	b29b      	uxth	r3, r3
    1f56:	e018      	b.n	1f8a <pbuf_copy_partial+0x58>
    1f58:	f8b7 800a 	ldrh.w	r8, [r7, #10]
    1f5c:	6879      	ldr	r1, [r7, #4]
    1f5e:	ebc3 0808 	rsb	r8, r3, r8
    1f62:	fa1f f888 	uxth.w	r8, r8
    1f66:	45a0      	cmp	r8, r4
    1f68:	bf28      	it	cs
    1f6a:	46a0      	movcs	r8, r4
    1f6c:	eb05 0009 	add.w	r0, r5, r9
    1f70:	18c9      	adds	r1, r1, r3
    1f72:	4642      	mov	r2, r8
    1f74:	4446      	add	r6, r8
    1f76:	44c1      	add	r9, r8
    1f78:	ebc8 0404 	rsb	r4, r8, r4
    1f7c:	f005 fcd8 	bl	7930 <memcpy>
    1f80:	b2b6      	uxth	r6, r6
    1f82:	fa1f f989 	uxth.w	r9, r9
    1f86:	b2a4      	uxth	r4, r4
    1f88:	2300      	movs	r3, #0
    1f8a:	683f      	ldr	r7, [r7, #0]
    1f8c:	b12c      	cbz	r4, 1f9a <pbuf_copy_partial+0x68>
    1f8e:	2f00      	cmp	r7, #0
    1f90:	d1db      	bne.n	1f4a <pbuf_copy_partial+0x18>
    1f92:	e002      	b.n	1f9a <pbuf_copy_partial+0x68>
    1f94:	4606      	mov	r6, r0
    1f96:	e000      	b.n	1f9a <pbuf_copy_partial+0x68>
    1f98:	460e      	mov	r6, r1
    1f9a:	4630      	mov	r0, r6
    1f9c:	e8bd 83f8 	ldmia.w	sp!, {r3, r4, r5, r6, r7, r8, r9, pc}

00001fa0 <tcp_bind>:
    1fa0:	7c03      	ldrb	r3, [r0, #16]
    1fa2:	b570      	push	{r4, r5, r6, lr}
    1fa4:	4604      	mov	r4, r0
    1fa6:	460d      	mov	r5, r1
    1fa8:	2b00      	cmp	r3, #0
    1faa:	d150      	bne.n	204e <tcp_bind+0xae>
    1fac:	b912      	cbnz	r2, 1fb4 <tcp_bind+0x14>
    1fae:	f7ff fd7d 	bl	1aac <tcp_new_port>
    1fb2:	4602      	mov	r2, r0
    1fb4:	4b28      	ldr	r3, [pc, #160]	; (2058 <tcp_bind+0xb8>)
    1fb6:	681b      	ldr	r3, [r3, #0]
    1fb8:	e00d      	b.n	1fd6 <tcp_bind+0x36>
    1fba:	8b19      	ldrh	r1, [r3, #24]
    1fbc:	4291      	cmp	r1, r2
    1fbe:	d109      	bne.n	1fd4 <tcp_bind+0x34>
    1fc0:	6818      	ldr	r0, [r3, #0]
    1fc2:	2800      	cmp	r0, #0
    1fc4:	d045      	beq.n	2052 <tcp_bind+0xb2>
    1fc6:	2d00      	cmp	r5, #0
    1fc8:	d043      	beq.n	2052 <tcp_bind+0xb2>
    1fca:	6829      	ldr	r1, [r5, #0]
    1fcc:	2900      	cmp	r1, #0
    1fce:	d040      	beq.n	2052 <tcp_bind+0xb2>
    1fd0:	4288      	cmp	r0, r1
    1fd2:	d03e      	beq.n	2052 <tcp_bind+0xb2>
    1fd4:	68db      	ldr	r3, [r3, #12]
    1fd6:	2b00      	cmp	r3, #0
    1fd8:	d1ef      	bne.n	1fba <tcp_bind+0x1a>
    1fda:	4b20      	ldr	r3, [pc, #128]	; (205c <tcp_bind+0xbc>)
    1fdc:	681b      	ldr	r3, [r3, #0]
    1fde:	e00d      	b.n	1ffc <tcp_bind+0x5c>
    1fe0:	8b19      	ldrh	r1, [r3, #24]
    1fe2:	4291      	cmp	r1, r2
    1fe4:	d109      	bne.n	1ffa <tcp_bind+0x5a>
    1fe6:	6818      	ldr	r0, [r3, #0]
    1fe8:	2800      	cmp	r0, #0
    1fea:	d032      	beq.n	2052 <tcp_bind+0xb2>
    1fec:	2d00      	cmp	r5, #0
    1fee:	d030      	beq.n	2052 <tcp_bind+0xb2>
    1ff0:	6829      	ldr	r1, [r5, #0]
    1ff2:	2900      	cmp	r1, #0
    1ff4:	d02d      	beq.n	2052 <tcp_bind+0xb2>
    1ff6:	4288      	cmp	r0, r1
    1ff8:	d02b      	beq.n	2052 <tcp_bind+0xb2>
    1ffa:	68db      	ldr	r3, [r3, #12]
    1ffc:	2b00      	cmp	r3, #0
    1ffe:	d1ef      	bne.n	1fe0 <tcp_bind+0x40>
    2000:	4917      	ldr	r1, [pc, #92]	; (2060 <tcp_bind+0xc0>)
    2002:	680b      	ldr	r3, [r1, #0]
    2004:	e00a      	b.n	201c <tcp_bind+0x7c>
    2006:	8b18      	ldrh	r0, [r3, #24]
    2008:	4290      	cmp	r0, r2
    200a:	d106      	bne.n	201a <tcp_bind+0x7a>
    200c:	681e      	ldr	r6, [r3, #0]
    200e:	b306      	cbz	r6, 2052 <tcp_bind+0xb2>
    2010:	b1fd      	cbz	r5, 2052 <tcp_bind+0xb2>
    2012:	6828      	ldr	r0, [r5, #0]
    2014:	b1e8      	cbz	r0, 2052 <tcp_bind+0xb2>
    2016:	4286      	cmp	r6, r0
    2018:	d01b      	beq.n	2052 <tcp_bind+0xb2>
    201a:	68db      	ldr	r3, [r3, #12]
    201c:	2b00      	cmp	r3, #0
    201e:	d1f2      	bne.n	2006 <tcp_bind+0x66>
    2020:	4b10      	ldr	r3, [pc, #64]	; (2064 <tcp_bind+0xc4>)
    2022:	681b      	ldr	r3, [r3, #0]
    2024:	e007      	b.n	2036 <tcp_bind+0x96>
    2026:	8b18      	ldrh	r0, [r3, #24]
    2028:	4290      	cmp	r0, r2
    202a:	d103      	bne.n	2034 <tcp_bind+0x94>
    202c:	6828      	ldr	r0, [r5, #0]
    202e:	681e      	ldr	r6, [r3, #0]
    2030:	4286      	cmp	r6, r0
    2032:	d00e      	beq.n	2052 <tcp_bind+0xb2>
    2034:	68db      	ldr	r3, [r3, #12]
    2036:	2b00      	cmp	r3, #0
    2038:	d1f5      	bne.n	2026 <tcp_bind+0x86>
    203a:	b115      	cbz	r5, 2042 <tcp_bind+0xa2>
    203c:	682b      	ldr	r3, [r5, #0]
    203e:	b103      	cbz	r3, 2042 <tcp_bind+0xa2>
    2040:	6023      	str	r3, [r4, #0]
    2042:	680b      	ldr	r3, [r1, #0]
    2044:	8322      	strh	r2, [r4, #24]
    2046:	60e3      	str	r3, [r4, #12]
    2048:	600c      	str	r4, [r1, #0]
    204a:	2000      	movs	r0, #0
    204c:	e002      	b.n	2054 <tcp_bind+0xb4>
    204e:	20f3      	movs	r0, #243	; 0xf3
    2050:	e000      	b.n	2054 <tcp_bind+0xb4>
    2052:	20f5      	movs	r0, #245	; 0xf5
    2054:	b240      	sxtb	r0, r0
    2056:	bd70      	pop	{r4, r5, r6, pc}
    2058:	200001e4 	.word	0x200001e4
    205c:	20003224 	.word	0x20003224
    2060:	20000208 	.word	0x20000208
    2064:	200034bc 	.word	0x200034bc

00002068 <tcp_update_rcv_ann_wnd>:
    2068:	b530      	push	{r4, r5, lr}
    206a:	6a42      	ldr	r2, [r0, #36]	; 0x24
    206c:	8d04      	ldrh	r4, [r0, #40]	; 0x28
    206e:	6ac3      	ldr	r3, [r0, #44]	; 0x2c
    2070:	8f05      	ldrh	r5, [r0, #56]	; 0x38
    2072:	18a1      	adds	r1, r4, r2
    2074:	f5b5 6f80 	cmp.w	r5, #1024	; 0x400
    2078:	bf94      	ite	ls
    207a:	195d      	addls	r5, r3, r5
    207c:	f503 6580 	addhi.w	r5, r3, #1024	; 0x400
    2080:	42a9      	cmp	r1, r5
    2082:	db02      	blt.n	208a <tcp_update_rcv_ann_wnd+0x22>
    2084:	8544      	strh	r4, [r0, #42]	; 0x2a
    2086:	1ac8      	subs	r0, r1, r3
    2088:	bd30      	pop	{r4, r5, pc}
    208a:	429a      	cmp	r2, r3
    208c:	dd03      	ble.n	2096 <tcp_update_rcv_ann_wnd+0x2e>
    208e:	2300      	movs	r3, #0
    2090:	8543      	strh	r3, [r0, #42]	; 0x2a
    2092:	2000      	movs	r0, #0
    2094:	bd30      	pop	{r4, r5, pc}
    2096:	1a9b      	subs	r3, r3, r2
    2098:	8543      	strh	r3, [r0, #42]	; 0x2a
    209a:	2000      	movs	r0, #0
    209c:	bd30      	pop	{r4, r5, pc}

0000209e <tcp_arg>:
    209e:	6141      	str	r1, [r0, #20]
    20a0:	4770      	bx	lr

000020a2 <tcp_recv>:
    20a2:	f8c0 1088 	str.w	r1, [r0, #136]	; 0x88
    20a6:	4770      	bx	lr

000020a8 <tcp_sent>:
    20a8:	f8c0 1084 	str.w	r1, [r0, #132]	; 0x84
    20ac:	4770      	bx	lr

000020ae <tcp_err>:
    20ae:	f8c0 1094 	str.w	r1, [r0, #148]	; 0x94
    20b2:	4770      	bx	lr

000020b4 <tcp_accept>:
    20b4:	61c1      	str	r1, [r0, #28]
    20b6:	4770      	bx	lr

000020b8 <tcp_poll>:
    20b8:	f8c0 1090 	str.w	r1, [r0, #144]	; 0x90
    20bc:	f880 2035 	strb.w	r2, [r0, #53]	; 0x35
    20c0:	4770      	bx	lr
	...

000020c4 <tcp_next_iss>:
    20c4:	4b03      	ldr	r3, [pc, #12]	; (20d4 <tcp_next_iss+0x10>)
    20c6:	4a04      	ldr	r2, [pc, #16]	; (20d8 <tcp_next_iss+0x14>)
    20c8:	6810      	ldr	r0, [r2, #0]
    20ca:	681a      	ldr	r2, [r3, #0]
    20cc:	1880      	adds	r0, r0, r2
    20ce:	6018      	str	r0, [r3, #0]
    20d0:	4770      	bx	lr
    20d2:	bf00      	nop
    20d4:	200000f8 	.word	0x200000f8
    20d8:	20003240 	.word	0x20003240

000020dc <udp_bind>:
    20dc:	b570      	push	{r4, r5, r6, lr}
    20de:	4e15      	ldr	r6, [pc, #84]	; (2134 <udp_bind+0x58>)
    20e0:	2400      	movs	r4, #0
    20e2:	6835      	ldr	r5, [r6, #0]
    20e4:	462b      	mov	r3, r5
    20e6:	e003      	b.n	20f0 <udp_bind+0x14>
    20e8:	4298      	cmp	r0, r3
    20ea:	bf08      	it	eq
    20ec:	2401      	moveq	r4, #1
    20ee:	68db      	ldr	r3, [r3, #12]
    20f0:	2b00      	cmp	r3, #0
    20f2:	d1f9      	bne.n	20e8 <udp_bind+0xc>
    20f4:	b101      	cbz	r1, 20f8 <udp_bind+0x1c>
    20f6:	6809      	ldr	r1, [r1, #0]
    20f8:	6001      	str	r1, [r0, #0]
    20fa:	b992      	cbnz	r2, 2122 <udp_bind+0x46>
    20fc:	462b      	mov	r3, r5
    20fe:	f44f 5280 	mov.w	r2, #4096	; 0x1000
    2102:	e007      	b.n	2114 <udp_bind+0x38>
    2104:	8a59      	ldrh	r1, [r3, #18]
    2106:	4291      	cmp	r1, r2
    2108:	d103      	bne.n	2112 <udp_bind+0x36>
    210a:	3201      	adds	r2, #1
    210c:	b292      	uxth	r2, r2
    210e:	462b      	mov	r3, r5
    2110:	e000      	b.n	2114 <udp_bind+0x38>
    2112:	68db      	ldr	r3, [r3, #12]
    2114:	b12b      	cbz	r3, 2122 <udp_bind+0x46>
    2116:	f647 71ff 	movw	r1, #32767	; 0x7fff
    211a:	428a      	cmp	r2, r1
    211c:	d1f2      	bne.n	2104 <udp_bind+0x28>
    211e:	24f5      	movs	r4, #245	; 0xf5
    2120:	e005      	b.n	212e <udp_bind+0x52>
    2122:	8242      	strh	r2, [r0, #18]
    2124:	b914      	cbnz	r4, 212c <udp_bind+0x50>
    2126:	60c5      	str	r5, [r0, #12]
    2128:	6030      	str	r0, [r6, #0]
    212a:	e000      	b.n	212e <udp_bind+0x52>
    212c:	2400      	movs	r4, #0
    212e:	b260      	sxtb	r0, r4
    2130:	bd70      	pop	{r4, r5, r6, pc}
    2132:	bf00      	nop
    2134:	20003440 	.word	0x20003440

00002138 <udp_connect>:
    2138:	b570      	push	{r4, r5, r6, lr}
    213a:	4616      	mov	r6, r2
    213c:	8a42      	ldrh	r2, [r0, #18]
    213e:	4604      	mov	r4, r0
    2140:	460d      	mov	r5, r1
    2142:	b91a      	cbnz	r2, 214c <udp_connect+0x14>
    2144:	4601      	mov	r1, r0
    2146:	f7ff ffc9 	bl	20dc <udp_bind>
    214a:	b9a0      	cbnz	r0, 2176 <udp_connect+0x3e>
    214c:	b105      	cbz	r5, 2150 <udp_connect+0x18>
    214e:	682d      	ldr	r5, [r5, #0]
    2150:	7c23      	ldrb	r3, [r4, #16]
    2152:	4a0a      	ldr	r2, [pc, #40]	; (217c <udp_connect+0x44>)
    2154:	f043 0304 	orr.w	r3, r3, #4
    2158:	7423      	strb	r3, [r4, #16]
    215a:	6813      	ldr	r3, [r2, #0]
    215c:	6065      	str	r5, [r4, #4]
    215e:	82a6      	strh	r6, [r4, #20]
    2160:	4618      	mov	r0, r3
    2162:	e002      	b.n	216a <udp_connect+0x32>
    2164:	4284      	cmp	r4, r0
    2166:	d005      	beq.n	2174 <udp_connect+0x3c>
    2168:	68c0      	ldr	r0, [r0, #12]
    216a:	2800      	cmp	r0, #0
    216c:	d1fa      	bne.n	2164 <udp_connect+0x2c>
    216e:	60e3      	str	r3, [r4, #12]
    2170:	6014      	str	r4, [r2, #0]
    2172:	e000      	b.n	2176 <udp_connect+0x3e>
    2174:	2000      	movs	r0, #0
    2176:	b240      	sxtb	r0, r0
    2178:	bd70      	pop	{r4, r5, r6, pc}
    217a:	bf00      	nop
    217c:	20003440 	.word	0x20003440

00002180 <udp_recv>:
    2180:	6181      	str	r1, [r0, #24]
    2182:	61c2      	str	r2, [r0, #28]
    2184:	4770      	bx	lr

00002186 <autoip_stop>:
    2186:	6a43      	ldr	r3, [r0, #36]	; 0x24
    2188:	b510      	push	{r4, lr}
    218a:	2400      	movs	r4, #0
    218c:	711c      	strb	r4, [r3, #4]
    218e:	f7ff fe2d 	bl	1dec <netif_set_down>
    2192:	4620      	mov	r0, r4
    2194:	bd10      	pop	{r4, pc}

00002196 <htons>:
    2196:	0a03      	lsrs	r3, r0, #8
    2198:	ea43 2000 	orr.w	r0, r3, r0, lsl #8
    219c:	b280      	uxth	r0, r0
    219e:	4770      	bx	lr

000021a0 <etharp_send_ip>:
    21a0:	b5f8      	push	{r3, r4, r5, r6, r7, lr}
    21a2:	460d      	mov	r5, r1
    21a4:	684e      	ldr	r6, [r1, #4]
    21a6:	4604      	mov	r4, r0
    21a8:	2106      	movs	r1, #6
    21aa:	3901      	subs	r1, #1
    21ac:	b2c9      	uxtb	r1, r1
    21ae:	5c5f      	ldrb	r7, [r3, r1]
    21b0:	1870      	adds	r0, r6, r1
    21b2:	7087      	strb	r7, [r0, #2]
    21b4:	5c57      	ldrb	r7, [r2, r1]
    21b6:	7207      	strb	r7, [r0, #8]
    21b8:	2900      	cmp	r1, #0
    21ba:	d1f6      	bne.n	21aa <etharp_send_ip+0xa>
    21bc:	f44f 6000 	mov.w	r0, #2048	; 0x800
    21c0:	f7ff ffe9 	bl	2196 <htons>
    21c4:	81f0      	strh	r0, [r6, #14]
    21c6:	69a3      	ldr	r3, [r4, #24]
    21c8:	4620      	mov	r0, r4
    21ca:	4629      	mov	r1, r5
    21cc:	4798      	blx	r3
    21ce:	bdf8      	pop	{r3, r4, r5, r6, r7, pc}

000021d0 <lwip_standard_chksum>:
    21d0:	b570      	push	{r4, r5, r6, lr}
    21d2:	4602      	mov	r2, r0
    21d4:	460c      	mov	r4, r1
    21d6:	2300      	movs	r3, #0
    21d8:	e008      	b.n	21ec <lwip_standard_chksum+0x1c>
    21da:	f812 6c02 	ldrb.w	r6, [r2, #-2]
    21de:	f812 5c01 	ldrb.w	r5, [r2, #-1]
    21e2:	3c02      	subs	r4, #2
    21e4:	ea45 2506 	orr.w	r5, r5, r6, lsl #8
    21e8:	195b      	adds	r3, r3, r5
    21ea:	b2a4      	uxth	r4, r4
    21ec:	3202      	adds	r2, #2
    21ee:	2c01      	cmp	r4, #1
    21f0:	d8f3      	bhi.n	21da <lwip_standard_chksum+0xa>
    21f2:	084a      	lsrs	r2, r1, #1
    21f4:	f011 0f01 	tst.w	r1, #1
    21f8:	d003      	beq.n	2202 <lwip_standard_chksum+0x32>
    21fa:	f810 2012 	ldrb.w	r2, [r0, r2, lsl #1]
    21fe:	0212      	lsls	r2, r2, #8
    2200:	189b      	adds	r3, r3, r2
    2202:	b29a      	uxth	r2, r3
    2204:	eb02 4313 	add.w	r3, r2, r3, lsr #16
    2208:	0c1a      	lsrs	r2, r3, #16
    220a:	bf1c      	itt	ne
    220c:	b29b      	uxthne	r3, r3
    220e:	189b      	addne	r3, r3, r2
    2210:	b298      	uxth	r0, r3
    2212:	e8bd 4070 	ldmia.w	sp!, {r4, r5, r6, lr}
    2216:	f7ff bfbe 	b.w	2196 <htons>

0000221a <ntohs>:
    221a:	f7ff bfbc 	b.w	2196 <htons>
	...

00002220 <tcp_parseopt.clone.1>:
    2220:	b538      	push	{r3, r4, r5, lr}
    2222:	4b1b      	ldr	r3, [pc, #108]	; (2290 <tcp_parseopt.clone.1+0x70>)
    2224:	4605      	mov	r5, r0
    2226:	681b      	ldr	r3, [r3, #0]
    2228:	8998      	ldrh	r0, [r3, #12]
    222a:	f103 0414 	add.w	r4, r3, #20
    222e:	f7ff fff4 	bl	221a <ntohs>
    2232:	0b01      	lsrs	r1, r0, #12
    2234:	b289      	uxth	r1, r1
    2236:	2905      	cmp	r1, #5
    2238:	d929      	bls.n	228e <tcp_parseopt.clone.1+0x6e>
    223a:	3905      	subs	r1, #5
    223c:	0089      	lsls	r1, r1, #2
    223e:	b289      	uxth	r1, r1
    2240:	2300      	movs	r3, #0
    2242:	e022      	b.n	228a <tcp_parseopt.clone.1+0x6a>
    2244:	5ce2      	ldrb	r2, [r4, r3]
    2246:	2a01      	cmp	r2, #1
    2248:	d005      	beq.n	2256 <tcp_parseopt.clone.1+0x36>
    224a:	d320      	bcc.n	228e <tcp_parseopt.clone.1+0x6e>
    224c:	2a02      	cmp	r2, #2
    224e:	eb04 0203 	add.w	r2, r4, r3
    2252:	d116      	bne.n	2282 <tcp_parseopt.clone.1+0x62>
    2254:	e001      	b.n	225a <tcp_parseopt.clone.1+0x3a>
    2256:	3301      	adds	r3, #1
    2258:	e016      	b.n	2288 <tcp_parseopt.clone.1+0x68>
    225a:	7850      	ldrb	r0, [r2, #1]
    225c:	2804      	cmp	r0, #4
    225e:	d116      	bne.n	228e <tcp_parseopt.clone.1+0x6e>
    2260:	1cd8      	adds	r0, r3, #3
    2262:	4288      	cmp	r0, r1
    2264:	da13      	bge.n	228e <tcp_parseopt.clone.1+0x6e>
    2266:	7890      	ldrb	r0, [r2, #2]
    2268:	78d2      	ldrb	r2, [r2, #3]
    226a:	3304      	adds	r3, #4
    226c:	ea42 2200 	orr.w	r2, r2, r0, lsl #8
    2270:	1e50      	subs	r0, r2, #1
    2272:	b280      	uxth	r0, r0
    2274:	f5b0 7f00 	cmp.w	r0, #512	; 0x200
    2278:	bf28      	it	cs
    227a:	f44f 7200 	movcs.w	r2, #512	; 0x200
    227e:	802a      	strh	r2, [r5, #0]
    2280:	e002      	b.n	2288 <tcp_parseopt.clone.1+0x68>
    2282:	7852      	ldrb	r2, [r2, #1]
    2284:	b11a      	cbz	r2, 228e <tcp_parseopt.clone.1+0x6e>
    2286:	18d3      	adds	r3, r2, r3
    2288:	b29b      	uxth	r3, r3
    228a:	428b      	cmp	r3, r1
    228c:	d3da      	bcc.n	2244 <tcp_parseopt.clone.1+0x24>
    228e:	bd38      	pop	{r3, r4, r5, pc}
    2290:	20003334 	.word	0x20003334

00002294 <raw_input>:
    2294:	e92d 47f0 	stmdb	sp!, {r4, r5, r6, r7, r8, r9, sl, lr}
    2298:	f8d0 9004 	ldr.w	r9, [r0, #4]
    229c:	4606      	mov	r6, r0
    229e:	f8b9 0008 	ldrh.w	r0, [r9, #8]
    22a2:	f7ff ffba 	bl	221a <ntohs>
    22a6:	4b16      	ldr	r3, [pc, #88]	; (2300 <raw_input+0x6c>)
    22a8:	fa5f fa80 	uxtb.w	sl, r0
    22ac:	681c      	ldr	r4, [r3, #0]
    22ae:	2500      	movs	r5, #0
    22b0:	4698      	mov	r8, r3
    22b2:	e020      	b.n	22f6 <raw_input+0x62>
    22b4:	7c23      	ldrb	r3, [r4, #16]
    22b6:	4553      	cmp	r3, sl
    22b8:	d113      	bne.n	22e2 <raw_input+0x4e>
    22ba:	6967      	ldr	r7, [r4, #20]
    22bc:	b19f      	cbz	r7, 22e6 <raw_input+0x52>
    22be:	69a0      	ldr	r0, [r4, #24]
    22c0:	4621      	mov	r1, r4
    22c2:	4632      	mov	r2, r6
    22c4:	f109 030c 	add.w	r3, r9, #12
    22c8:	47b8      	blx	r7
    22ca:	b180      	cbz	r0, 22ee <raw_input+0x5a>
    22cc:	b16d      	cbz	r5, 22ea <raw_input+0x56>
    22ce:	68e3      	ldr	r3, [r4, #12]
    22d0:	2001      	movs	r0, #1
    22d2:	60eb      	str	r3, [r5, #12]
    22d4:	f8d8 3000 	ldr.w	r3, [r8]
    22d8:	2600      	movs	r6, #0
    22da:	60e3      	str	r3, [r4, #12]
    22dc:	f8c8 4000 	str.w	r4, [r8]
    22e0:	e005      	b.n	22ee <raw_input+0x5a>
    22e2:	2000      	movs	r0, #0
    22e4:	e003      	b.n	22ee <raw_input+0x5a>
    22e6:	4638      	mov	r0, r7
    22e8:	e001      	b.n	22ee <raw_input+0x5a>
    22ea:	2001      	movs	r0, #1
    22ec:	462e      	mov	r6, r5
    22ee:	68e3      	ldr	r3, [r4, #12]
    22f0:	b920      	cbnz	r0, 22fc <raw_input+0x68>
    22f2:	4625      	mov	r5, r4
    22f4:	461c      	mov	r4, r3
    22f6:	2c00      	cmp	r4, #0
    22f8:	d1dc      	bne.n	22b4 <raw_input+0x20>
    22fa:	4620      	mov	r0, r4
    22fc:	e8bd 87f0 	ldmia.w	sp!, {r4, r5, r6, r7, r8, r9, sl, pc}
    2300:	200001dc 	.word	0x200001dc

00002304 <htonl>:
    2304:	ba00      	rev	r0, r0
    2306:	4770      	bx	lr

00002308 <tcp_output_set_header.clone.2.clone.9>:
    2308:	e92d 43f8 	stmdb	sp!, {r3, r4, r5, r6, r7, r8, r9, lr}
    230c:	4604      	mov	r4, r0
    230e:	8b00      	ldrh	r0, [r0, #24]
    2310:	460d      	mov	r5, r1
    2312:	4616      	mov	r6, r2
    2314:	f7ff ff3f 	bl	2196 <htons>
    2318:	8028      	strh	r0, [r5, #0]
    231a:	8c20      	ldrh	r0, [r4, #32]
    231c:	f7ff ff3b 	bl	2196 <htons>
    2320:	606e      	str	r6, [r5, #4]
    2322:	8068      	strh	r0, [r5, #2]
    2324:	6a67      	ldr	r7, [r4, #36]	; 0x24
    2326:	4638      	mov	r0, r7
    2328:	f7ff ffec 	bl	2304 <htonl>
    232c:	60a8      	str	r0, [r5, #8]
    232e:	f64f 70c0 	movw	r0, #65472	; 0xffc0
    2332:	f7ff ff30 	bl	2196 <htons>
    2336:	4606      	mov	r6, r0
    2338:	2010      	movs	r0, #16
    233a:	f7ff ff2c 	bl	2196 <htons>
    233e:	f8b5 900c 	ldrh.w	r9, [r5, #12]
    2342:	f8b4 802a 	ldrh.w	r8, [r4, #42]	; 0x2a
    2346:	ea06 0609 	and.w	r6, r6, r9
    234a:	ea40 0606 	orr.w	r6, r0, r6
    234e:	4640      	mov	r0, r8
    2350:	f7ff ff21 	bl	2196 <htons>
    2354:	fa1f f986 	uxth.w	r9, r6
    2358:	2600      	movs	r6, #0
    235a:	81e8      	strh	r0, [r5, #14]
    235c:	74ae      	strb	r6, [r5, #18]
    235e:	74ee      	strb	r6, [r5, #19]
    2360:	4648      	mov	r0, r9
    2362:	f7ff ff5a 	bl	221a <ntohs>
    2366:	f000 003f 	and.w	r0, r0, #63	; 0x3f
    236a:	f440 40a0 	orr.w	r0, r0, #20480	; 0x5000
    236e:	f7ff ff12 	bl	2196 <htons>
    2372:	4447      	add	r7, r8
    2374:	81a8      	strh	r0, [r5, #12]
    2376:	742e      	strb	r6, [r5, #16]
    2378:	746e      	strb	r6, [r5, #17]
    237a:	4628      	mov	r0, r5
    237c:	62e7      	str	r7, [r4, #44]	; 0x2c
    237e:	e8bd 83f8 	ldmia.w	sp!, {r3, r4, r5, r6, r7, r8, r9, pc}

00002382 <ntohl>:
    2382:	f7ff bfbf 	b.w	2304 <htonl>
	...

00002388 <autoip_start>:
    2388:	b570      	push	{r4, r5, r6, lr}
    238a:	4605      	mov	r5, r0
    238c:	6a44      	ldr	r4, [r0, #36]	; 0x24
    238e:	f7ff fd37 	bl	1e00 <netif_is_up>
    2392:	b110      	cbz	r0, 239a <autoip_start+0x12>
    2394:	4628      	mov	r0, r5
    2396:	f7ff fd29 	bl	1dec <netif_set_down>
    239a:	2600      	movs	r6, #0
    239c:	606e      	str	r6, [r5, #4]
    239e:	60ae      	str	r6, [r5, #8]
    23a0:	60ee      	str	r6, [r5, #12]
    23a2:	b95c      	cbnz	r4, 23bc <autoip_start+0x34>
    23a4:	200a      	movs	r0, #10
    23a6:	f7ff fc4b 	bl	1c40 <mem_malloc>
    23aa:	4604      	mov	r4, r0
    23ac:	2800      	cmp	r0, #0
    23ae:	d035      	beq.n	241c <autoip_start+0x94>
    23b0:	4631      	mov	r1, r6
    23b2:	220a      	movs	r2, #10
    23b4:	f005 fc56 	bl	7c64 <memset>
    23b8:	626c      	str	r4, [r5, #36]	; 0x24
    23ba:	e005      	b.n	23c8 <autoip_start+0x40>
    23bc:	7126      	strb	r6, [r4, #4]
    23be:	80e6      	strh	r6, [r4, #6]
    23c0:	7166      	strb	r6, [r4, #5]
    23c2:	8026      	strh	r6, [r4, #0]
    23c4:	8066      	strh	r6, [r4, #2]
    23c6:	7226      	strb	r6, [r4, #8]
    23c8:	f895 2030 	ldrb.w	r2, [r5, #48]	; 0x30
    23cc:	f895 302f 	ldrb.w	r3, [r5, #47]	; 0x2f
    23d0:	4814      	ldr	r0, [pc, #80]	; (2424 <autoip_start+0x9c>)
    23d2:	ea43 2302 	orr.w	r3, r3, r2, lsl #8
    23d6:	1818      	adds	r0, r3, r0
    23d8:	f7ff ff94 	bl	2304 <htonl>
    23dc:	f7ff ffd1 	bl	2382 <ntohl>
    23e0:	6a6b      	ldr	r3, [r5, #36]	; 0x24
    23e2:	7a5b      	ldrb	r3, [r3, #9]
    23e4:	18c0      	adds	r0, r0, r3
    23e6:	b280      	uxth	r0, r0
    23e8:	f040 4029 	orr.w	r0, r0, #2835349504	; 0xa9000000
    23ec:	4b0e      	ldr	r3, [pc, #56]	; (2428 <autoip_start+0xa0>)
    23ee:	f440 007e 	orr.w	r0, r0, #16646144	; 0xfe0000
    23f2:	4298      	cmp	r0, r3
    23f4:	d802      	bhi.n	23fc <autoip_start+0x74>
    23f6:	f500 407e 	add.w	r0, r0, #65024	; 0xfe00
    23fa:	e004      	b.n	2406 <autoip_start+0x7e>
    23fc:	4b0b      	ldr	r3, [pc, #44]	; (242c <autoip_start+0xa4>)
    23fe:	4298      	cmp	r0, r3
    2400:	bf88      	it	hi
    2402:	f5a0 407e 	subhi.w	r0, r0, #65024	; 0xfe00
    2406:	f7ff ff7d 	bl	2304 <htonl>
    240a:	7a63      	ldrb	r3, [r4, #9]
    240c:	6020      	str	r0, [r4, #0]
    240e:	3301      	adds	r3, #1
    2410:	4628      	mov	r0, r5
    2412:	7263      	strb	r3, [r4, #9]
    2414:	f7ff fb7e 	bl	1b14 <autoip_start_probing>
    2418:	2000      	movs	r0, #0
    241a:	e000      	b.n	241e <autoip_start+0x96>
    241c:	20ff      	movs	r0, #255	; 0xff
    241e:	b240      	sxtb	r0, r0
    2420:	bd70      	pop	{r4, r5, r6, pc}
    2422:	bf00      	nop
    2424:	a9fe0100 	.word	0xa9fe0100
    2428:	a9fe00ff 	.word	0xa9fe00ff
    242c:	a9fefeff 	.word	0xa9fefeff

00002430 <tcp_rexmit>:
    2430:	e92d 41f0 	stmdb	sp!, {r4, r5, r6, r7, r8, lr}
    2434:	6f86      	ldr	r6, [r0, #120]	; 0x78
    2436:	4604      	mov	r4, r0
    2438:	b1e6      	cbz	r6, 2474 <tcp_rexmit+0x44>
    243a:	6833      	ldr	r3, [r6, #0]
    243c:	f100 0774 	add.w	r7, r0, #116	; 0x74
    2440:	6783      	str	r3, [r0, #120]	; 0x78
    2442:	6f45      	ldr	r5, [r0, #116]	; 0x74
    2444:	e001      	b.n	244a <tcp_rexmit+0x1a>
    2446:	462f      	mov	r7, r5
    2448:	682d      	ldr	r5, [r5, #0]
    244a:	b155      	cbz	r5, 2462 <tcp_rexmit+0x32>
    244c:	692b      	ldr	r3, [r5, #16]
    244e:	6858      	ldr	r0, [r3, #4]
    2450:	f7ff ff97 	bl	2382 <ntohl>
    2454:	6933      	ldr	r3, [r6, #16]
    2456:	4680      	mov	r8, r0
    2458:	6858      	ldr	r0, [r3, #4]
    245a:	f7ff ff92 	bl	2382 <ntohl>
    245e:	4580      	cmp	r8, r0
    2460:	dbf1      	blt.n	2446 <tcp_rexmit+0x16>
    2462:	6035      	str	r5, [r6, #0]
    2464:	603e      	str	r6, [r7, #0]
    2466:	f894 304a 	ldrb.w	r3, [r4, #74]	; 0x4a
    246a:	3301      	adds	r3, #1
    246c:	f884 304a 	strb.w	r3, [r4, #74]	; 0x4a
    2470:	2300      	movs	r3, #0
    2472:	63e3      	str	r3, [r4, #60]	; 0x3c
    2474:	e8bd 81f0 	ldmia.w	sp!, {r4, r5, r6, r7, r8, pc}

00002478 <tcp_rexmit_fast>:
    2478:	6f83      	ldr	r3, [r0, #120]	; 0x78
    247a:	b510      	push	{r4, lr}
    247c:	4604      	mov	r4, r0
    247e:	b33b      	cbz	r3, 24d0 <tcp_rexmit_fast+0x58>
    2480:	f890 3022 	ldrb.w	r3, [r0, #34]	; 0x22
    2484:	f013 0f04 	tst.w	r3, #4
    2488:	d122      	bne.n	24d0 <tcp_rexmit_fast+0x58>
    248a:	f7ff ffd1 	bl	2430 <tcp_rexmit>
    248e:	f8b4 3052 	ldrh.w	r3, [r4, #82]	; 0x52
    2492:	f8b4 205c 	ldrh.w	r2, [r4, #92]	; 0x5c
    2496:	4293      	cmp	r3, r2
    2498:	d903      	bls.n	24a2 <tcp_rexmit_fast+0x2a>
    249a:	0852      	lsrs	r2, r2, #1
    249c:	f8a4 2054 	strh.w	r2, [r4, #84]	; 0x54
    24a0:	e002      	b.n	24a8 <tcp_rexmit_fast+0x30>
    24a2:	085b      	lsrs	r3, r3, #1
    24a4:	f8a4 3054 	strh.w	r3, [r4, #84]	; 0x54
    24a8:	8f22      	ldrh	r2, [r4, #56]	; 0x38
    24aa:	f8b4 1054 	ldrh.w	r1, [r4, #84]	; 0x54
    24ae:	0053      	lsls	r3, r2, #1
    24b0:	4299      	cmp	r1, r3
    24b2:	bfb8      	it	lt
    24b4:	f8a4 3054 	strhlt.w	r3, [r4, #84]	; 0x54
    24b8:	f8b4 1054 	ldrh.w	r1, [r4, #84]	; 0x54
    24bc:	189b      	adds	r3, r3, r2
    24be:	185b      	adds	r3, r3, r1
    24c0:	f8a4 3052 	strh.w	r3, [r4, #82]	; 0x52
    24c4:	f894 3022 	ldrb.w	r3, [r4, #34]	; 0x22
    24c8:	f043 0304 	orr.w	r3, r3, #4
    24cc:	f884 3022 	strb.w	r3, [r4, #34]	; 0x22
    24d0:	bd10      	pop	{r4, pc}

000024d2 <inet_chksum_pseudo>:
    24d2:	e92d 4ff8 	stmdb	sp!, {r3, r4, r5, r6, r7, r8, r9, sl, fp, lr}
    24d6:	f04f 0800 	mov.w	r8, #0
    24da:	460c      	mov	r4, r1
    24dc:	4615      	mov	r5, r2
    24de:	469b      	mov	fp, r3
    24e0:	f8bd a028 	ldrh.w	sl, [sp, #40]	; 0x28
    24e4:	4607      	mov	r7, r0
    24e6:	4646      	mov	r6, r8
    24e8:	e017      	b.n	251a <inet_chksum_pseudo+0x48>
    24ea:	f8b7 900a 	ldrh.w	r9, [r7, #10]
    24ee:	6878      	ldr	r0, [r7, #4]
    24f0:	4649      	mov	r1, r9
    24f2:	f7ff fe6d 	bl	21d0 <lwip_standard_chksum>
    24f6:	1980      	adds	r0, r0, r6
    24f8:	b286      	uxth	r6, r0
    24fa:	f019 0f01 	tst.w	r9, #1
    24fe:	eb06 4610 	add.w	r6, r6, r0, lsr #16
    2502:	d009      	beq.n	2518 <inet_chksum_pseudo+0x46>
    2504:	0633      	lsls	r3, r6, #24
    2506:	f406 467f 	and.w	r6, r6, #65280	; 0xff00
    250a:	f1c8 0801 	rsb	r8, r8, #1
    250e:	0a36      	lsrs	r6, r6, #8
    2510:	fa5f f888 	uxtb.w	r8, r8
    2514:	ea46 4613 	orr.w	r6, r6, r3, lsr #16
    2518:	683f      	ldr	r7, [r7, #0]
    251a:	2f00      	cmp	r7, #0
    251c:	d1e5      	bne.n	24ea <inet_chksum_pseudo+0x18>
    251e:	f1b8 0f00 	cmp.w	r8, #0
    2522:	d005      	beq.n	2530 <inet_chksum_pseudo+0x5e>
    2524:	0633      	lsls	r3, r6, #24
    2526:	f406 467f 	and.w	r6, r6, #65280	; 0xff00
    252a:	0a36      	lsrs	r6, r6, #8
    252c:	ea46 4613 	orr.w	r6, r6, r3, lsr #16
    2530:	6822      	ldr	r2, [r4, #0]
    2532:	682b      	ldr	r3, [r5, #0]
    2534:	b291      	uxth	r1, r2
    2536:	eb01 4212 	add.w	r2, r1, r2, lsr #16
    253a:	b299      	uxth	r1, r3
    253c:	1852      	adds	r2, r2, r1
    253e:	eb02 4313 	add.w	r3, r2, r3, lsr #16
    2542:	4658      	mov	r0, fp
    2544:	199e      	adds	r6, r3, r6
    2546:	f7ff fe26 	bl	2196 <htons>
    254a:	1836      	adds	r6, r6, r0
    254c:	4650      	mov	r0, sl
    254e:	f7ff fe22 	bl	2196 <htons>
    2552:	1836      	adds	r6, r6, r0
    2554:	b2b3      	uxth	r3, r6
    2556:	eb03 4616 	add.w	r6, r3, r6, lsr #16
    255a:	b2b0      	uxth	r0, r6
    255c:	eb00 4616 	add.w	r6, r0, r6, lsr #16
    2560:	43f0      	mvns	r0, r6
    2562:	b280      	uxth	r0, r0
    2564:	e8bd 8ff8 	ldmia.w	sp!, {r3, r4, r5, r6, r7, r8, r9, sl, fp, pc}

00002568 <inet_chksum>:
    2568:	b508      	push	{r3, lr}
    256a:	f7ff fe31 	bl	21d0 <lwip_standard_chksum>
    256e:	43c0      	mvns	r0, r0
    2570:	b280      	uxth	r0, r0
    2572:	bd08      	pop	{r3, pc}

00002574 <inet_chksum_pbuf>:
    2574:	b5f8      	push	{r3, r4, r5, r6, r7, lr}
    2576:	2600      	movs	r6, #0
    2578:	4605      	mov	r5, r0
    257a:	4634      	mov	r4, r6
    257c:	e015      	b.n	25aa <inet_chksum_pbuf+0x36>
    257e:	896f      	ldrh	r7, [r5, #10]
    2580:	6868      	ldr	r0, [r5, #4]
    2582:	4639      	mov	r1, r7
    2584:	f7ff fe24 	bl	21d0 <lwip_standard_chksum>
    2588:	1900      	adds	r0, r0, r4
    258a:	b284      	uxth	r4, r0
    258c:	f017 0f01 	tst.w	r7, #1
    2590:	eb04 4410 	add.w	r4, r4, r0, lsr #16
    2594:	d008      	beq.n	25a8 <inet_chksum_pbuf+0x34>
    2596:	0623      	lsls	r3, r4, #24
    2598:	f404 447f 	and.w	r4, r4, #65280	; 0xff00
    259c:	f1c6 0601 	rsb	r6, r6, #1
    25a0:	0a24      	lsrs	r4, r4, #8
    25a2:	b2f6      	uxtb	r6, r6
    25a4:	ea44 4413 	orr.w	r4, r4, r3, lsr #16
    25a8:	682d      	ldr	r5, [r5, #0]
    25aa:	2d00      	cmp	r5, #0
    25ac:	d1e7      	bne.n	257e <inet_chksum_pbuf+0xa>
    25ae:	b12e      	cbz	r6, 25bc <inet_chksum_pbuf+0x48>
    25b0:	0623      	lsls	r3, r4, #24
    25b2:	f404 447f 	and.w	r4, r4, #65280	; 0xff00
    25b6:	0a24      	lsrs	r4, r4, #8
    25b8:	ea44 4413 	orr.w	r4, r4, r3, lsr #16
    25bc:	43e0      	mvns	r0, r4
    25be:	b280      	uxth	r0, r0
    25c0:	bdf8      	pop	{r3, r4, r5, r6, r7, pc}
	...

000025c4 <ip_route>:
    25c4:	b538      	push	{r3, r4, r5, lr}
    25c6:	4b10      	ldr	r3, [pc, #64]	; (2608 <ip_route+0x44>)
    25c8:	4605      	mov	r5, r0
    25ca:	681c      	ldr	r4, [r3, #0]
    25cc:	e00a      	b.n	25e4 <ip_route+0x20>
    25ce:	4620      	mov	r0, r4
    25d0:	f7ff fc16 	bl	1e00 <netif_is_up>
    25d4:	b128      	cbz	r0, 25e2 <ip_route+0x1e>
    25d6:	6863      	ldr	r3, [r4, #4]
    25d8:	682a      	ldr	r2, [r5, #0]
    25da:	405a      	eors	r2, r3
    25dc:	68a3      	ldr	r3, [r4, #8]
    25de:	421a      	tst	r2, r3
    25e0:	d00f      	beq.n	2602 <ip_route+0x3e>
    25e2:	6824      	ldr	r4, [r4, #0]
    25e4:	2c00      	cmp	r4, #0
    25e6:	d1f2      	bne.n	25ce <ip_route+0xa>
    25e8:	4b08      	ldr	r3, [pc, #32]	; (260c <ip_route+0x48>)
    25ea:	681d      	ldr	r5, [r3, #0]
    25ec:	b11d      	cbz	r5, 25f6 <ip_route+0x32>
    25ee:	4628      	mov	r0, r5
    25f0:	f7ff fc06 	bl	1e00 <netif_is_up>
    25f4:	b920      	cbnz	r0, 2600 <ip_route+0x3c>
    25f6:	4b06      	ldr	r3, [pc, #24]	; (2610 <ip_route+0x4c>)
    25f8:	8fda      	ldrh	r2, [r3, #62]	; 0x3e
    25fa:	3201      	adds	r2, #1
    25fc:	87da      	strh	r2, [r3, #62]	; 0x3e
    25fe:	e000      	b.n	2602 <ip_route+0x3e>
    2600:	462c      	mov	r4, r5
    2602:	4620      	mov	r0, r4
    2604:	bd38      	pop	{r3, r4, r5, pc}
    2606:	bf00      	nop
    2608:	20003228 	.word	0x20003228
    260c:	20000200 	.word	0x20000200
    2610:	20003244 	.word	0x20003244

00002614 <tcp_eff_send_mss>:
    2614:	b510      	push	{r4, lr}
    2616:	4604      	mov	r4, r0
    2618:	4608      	mov	r0, r1
    261a:	f7ff ffd3 	bl	25c4 <ip_route>
    261e:	b130      	cbz	r0, 262e <tcp_eff_send_mss+0x1a>
    2620:	8d03      	ldrh	r3, [r0, #40]	; 0x28
    2622:	b123      	cbz	r3, 262e <tcp_eff_send_mss+0x1a>
    2624:	3b28      	subs	r3, #40	; 0x28
    2626:	b29b      	uxth	r3, r3
    2628:	429c      	cmp	r4, r3
    262a:	bf28      	it	cs
    262c:	461c      	movcs	r4, r3
    262e:	4620      	mov	r0, r4
    2630:	bd10      	pop	{r4, pc}
	...

00002634 <ip_output_if>:
    2634:	e92d 4ff7 	stmdb	sp!, {r0, r1, r2, r4, r5, r6, r7, r8, r9, sl, fp, lr}
    2638:	4698      	mov	r8, r3
    263a:	f89d 3030 	ldrb.w	r3, [sp, #48]	; 0x30
    263e:	4604      	mov	r4, r0
    2640:	460d      	mov	r5, r1
    2642:	9e0e      	ldr	r6, [sp, #56]	; 0x38
    2644:	9301      	str	r3, [sp, #4]
    2646:	f89d 7034 	ldrb.w	r7, [sp, #52]	; 0x34
    264a:	4692      	mov	sl, r2
    264c:	f8df b0d4 	ldr.w	fp, [pc, #212]	; 2724 <ip_output_if+0xf0>
    2650:	2a00      	cmp	r2, #0
    2652:	d054      	beq.n	26fe <ip_output_if+0xca>
    2654:	2114      	movs	r1, #20
    2656:	f7ff fbd8 	bl	1e0a <pbuf_header>
    265a:	4603      	mov	r3, r0
    265c:	b130      	cbz	r0, 266c <ip_output_if+0x38>
    265e:	f8bb 3044 	ldrh.w	r3, [fp, #68]	; 0x44
    2662:	20fe      	movs	r0, #254	; 0xfe
    2664:	3301      	adds	r3, #1
    2666:	f8ab 3044 	strh.w	r3, [fp, #68]	; 0x44
    266a:	e055      	b.n	2718 <ip_output_if+0xe4>
    266c:	f8d4 9004 	ldr.w	r9, [r4, #4]
    2670:	f8b9 0008 	ldrh.w	r0, [r9, #8]
    2674:	9300      	str	r3, [sp, #0]
    2676:	f7ff fdd0 	bl	221a <ntohs>
    267a:	f368 201f 	bfi	r0, r8, #8, #24
    267e:	f7ff fd8a 	bl	2196 <htons>
    2682:	f7ff fdca 	bl	221a <ntohs>
    2686:	f400 407f 	and.w	r0, r0, #65280	; 0xff00
    268a:	4338      	orrs	r0, r7
    268c:	f7ff fd83 	bl	2196 <htons>
    2690:	f8a9 0008 	strh.w	r0, [r9, #8]
    2694:	f8da 2000 	ldr.w	r2, [sl]
    2698:	4f21      	ldr	r7, [pc, #132]	; (2720 <ip_output_if+0xec>)
    269a:	f8c9 2010 	str.w	r2, [r9, #16]
    269e:	9a01      	ldr	r2, [sp, #4]
    26a0:	f442 408a 	orr.w	r0, r2, #17664	; 0x4500
    26a4:	f7ff fd77 	bl	2196 <htons>
    26a8:	f8a9 0000 	strh.w	r0, [r9]
    26ac:	8920      	ldrh	r0, [r4, #8]
    26ae:	f7ff fd72 	bl	2196 <htons>
    26b2:	f8a9 0002 	strh.w	r0, [r9, #2]
    26b6:	9b00      	ldr	r3, [sp, #0]
    26b8:	f889 3006 	strb.w	r3, [r9, #6]
    26bc:	f889 3007 	strb.w	r3, [r9, #7]
    26c0:	f8b7 8000 	ldrh.w	r8, [r7]
    26c4:	4640      	mov	r0, r8
    26c6:	f7ff fd66 	bl	2196 <htons>
    26ca:	f108 0801 	add.w	r8, r8, #1
    26ce:	f8a9 0004 	strh.w	r0, [r9, #4]
    26d2:	f8a7 8000 	strh.w	r8, [r7]
    26d6:	b10d      	cbz	r5, 26dc <ip_output_if+0xa8>
    26d8:	682b      	ldr	r3, [r5, #0]
    26da:	b913      	cbnz	r3, 26e2 <ip_output_if+0xae>
    26dc:	1d33      	adds	r3, r6, #4
    26de:	bf18      	it	ne
    26e0:	6873      	ldrne	r3, [r6, #4]
    26e2:	f8c9 300c 	str.w	r3, [r9, #12]
    26e6:	2300      	movs	r3, #0
    26e8:	f889 300a 	strb.w	r3, [r9, #10]
    26ec:	f889 300b 	strb.w	r3, [r9, #11]
    26f0:	4648      	mov	r0, r9
    26f2:	2114      	movs	r1, #20
    26f4:	f7ff ff38 	bl	2568 <inet_chksum>
    26f8:	f8a9 000a 	strh.w	r0, [r9, #10]
    26fc:	e002      	b.n	2704 <ip_output_if+0xd0>
    26fe:	6843      	ldr	r3, [r0, #4]
    2700:	f103 0a10 	add.w	sl, r3, #16
    2704:	f8bb 3030 	ldrh.w	r3, [fp, #48]	; 0x30
    2708:	4630      	mov	r0, r6
    270a:	3301      	adds	r3, #1
    270c:	f8ab 3030 	strh.w	r3, [fp, #48]	; 0x30
    2710:	4621      	mov	r1, r4
    2712:	6973      	ldr	r3, [r6, #20]
    2714:	4652      	mov	r2, sl
    2716:	4798      	blx	r3
    2718:	b240      	sxtb	r0, r0
    271a:	e8bd 8ffe 	ldmia.w	sp!, {r1, r2, r3, r4, r5, r6, r7, r8, r9, sl, fp, pc}
    271e:	bf00      	nop
    2720:	200034b0 	.word	0x200034b0
    2724:	20003244 	.word	0x20003244

00002728 <ip_output>:
    2728:	e92d 43f0 	stmdb	sp!, {r4, r5, r6, r7, r8, r9, lr}
    272c:	4604      	mov	r4, r0
    272e:	b085      	sub	sp, #20
    2730:	4610      	mov	r0, r2
    2732:	460f      	mov	r7, r1
    2734:	4615      	mov	r5, r2
    2736:	461e      	mov	r6, r3
    2738:	f89d 9030 	ldrb.w	r9, [sp, #48]	; 0x30
    273c:	f89d 8034 	ldrb.w	r8, [sp, #52]	; 0x34
    2740:	f7ff ff40 	bl	25c4 <ip_route>
    2744:	b928      	cbnz	r0, 2752 <ip_output+0x2a>
    2746:	4b0a      	ldr	r3, [pc, #40]	; (2770 <ip_output+0x48>)
    2748:	30fc      	adds	r0, #252	; 0xfc
    274a:	8fda      	ldrh	r2, [r3, #62]	; 0x3e
    274c:	3201      	adds	r2, #1
    274e:	87da      	strh	r2, [r3, #62]	; 0x3e
    2750:	e00a      	b.n	2768 <ip_output+0x40>
    2752:	9002      	str	r0, [sp, #8]
    2754:	4639      	mov	r1, r7
    2756:	4620      	mov	r0, r4
    2758:	462a      	mov	r2, r5
    275a:	4633      	mov	r3, r6
    275c:	f8cd 9000 	str.w	r9, [sp]
    2760:	f8cd 8004 	str.w	r8, [sp, #4]
    2764:	f7ff ff66 	bl	2634 <ip_output_if>
    2768:	b240      	sxtb	r0, r0
    276a:	b005      	add	sp, #20
    276c:	e8bd 83f0 	ldmia.w	sp!, {r4, r5, r6, r7, r8, r9, pc}
    2770:	20003244 	.word	0x20003244

00002774 <ip_addr_isbroadcast>:
    2774:	6803      	ldr	r3, [r0, #0]
    2776:	1e5a      	subs	r2, r3, #1
    2778:	f112 0f03 	cmn.w	r2, #3
    277c:	d813      	bhi.n	27a6 <ip_addr_isbroadcast+0x32>
    277e:	f891 0031 	ldrb.w	r0, [r1, #49]	; 0x31
    2782:	f010 0002 	ands.w	r0, r0, #2
    2786:	d013      	beq.n	27b0 <ip_addr_isbroadcast+0x3c>
    2788:	6848      	ldr	r0, [r1, #4]
    278a:	4283      	cmp	r3, r0
    278c:	d00d      	beq.n	27aa <ip_addr_isbroadcast+0x36>
    278e:	688a      	ldr	r2, [r1, #8]
    2790:	4058      	eors	r0, r3
    2792:	4210      	tst	r0, r2
    2794:	d10b      	bne.n	27ae <ip_addr_isbroadcast+0x3a>
    2796:	43d2      	mvns	r2, r2
    2798:	ea02 0003 	and.w	r0, r2, r3
    279c:	1a83      	subs	r3, r0, r2
    279e:	4258      	negs	r0, r3
    27a0:	eb40 0003 	adc.w	r0, r0, r3
    27a4:	4770      	bx	lr
    27a6:	2001      	movs	r0, #1
    27a8:	4770      	bx	lr
    27aa:	2000      	movs	r0, #0
    27ac:	4770      	bx	lr
    27ae:	2000      	movs	r0, #0
    27b0:	4770      	bx	lr

000027b2 <sys_arch_protect>:
    27b2:	f004 be03 	b.w	73bc <IntMasterDisable>

000027b6 <sys_arch_unprotect>:
    27b6:	f010 0f01 	tst.w	r0, #1
    27ba:	d101      	bne.n	27c0 <sys_arch_unprotect+0xa>
    27bc:	f004 bdf9 	b.w	73b2 <IntMasterEnable>
    27c0:	4770      	bx	lr

000027c2 <dequeue_packet>:
    27c2:	b538      	push	{r3, r4, r5, lr}
    27c4:	4604      	mov	r4, r0
    27c6:	f7ff fff4 	bl	27b2 <sys_arch_protect>
    27ca:	6d63      	ldr	r3, [r4, #84]	; 0x54
    27cc:	6d22      	ldr	r2, [r4, #80]	; 0x50
    27ce:	429a      	cmp	r2, r3
    27d0:	d009      	beq.n	27e6 <dequeue_packet+0x24>
    27d2:	2214      	movs	r2, #20
    27d4:	f854 5023 	ldr.w	r5, [r4, r3, lsl #2]
    27d8:	3301      	adds	r3, #1
    27da:	fbb3 f1f2 	udiv	r1, r3, r2
    27de:	fb02 3311 	mls	r3, r2, r1, r3
    27e2:	6563      	str	r3, [r4, #84]	; 0x54
    27e4:	e000      	b.n	27e8 <dequeue_packet+0x26>
    27e6:	2500      	movs	r5, #0
    27e8:	f7ff ffe5 	bl	27b6 <sys_arch_unprotect>
    27ec:	4628      	mov	r0, r5
    27ee:	bd38      	pop	{r3, r4, r5, pc}

000027f0 <pbuf_ref>:
    27f0:	b510      	push	{r4, lr}
    27f2:	4604      	mov	r4, r0
    27f4:	b140      	cbz	r0, 2808 <pbuf_ref+0x18>
    27f6:	f7ff ffdc 	bl	27b2 <sys_arch_protect>
    27fa:	89e3      	ldrh	r3, [r4, #14]
    27fc:	3301      	adds	r3, #1
    27fe:	81e3      	strh	r3, [r4, #14]
    2800:	e8bd 4010 	ldmia.w	sp!, {r4, lr}
    2804:	f7ff bfd7 	b.w	27b6 <sys_arch_unprotect>
    2808:	bd10      	pop	{r4, pc}

0000280a <pbuf_chain>:
    280a:	b510      	push	{r4, lr}
    280c:	460c      	mov	r4, r1
    280e:	f7ff fb39 	bl	1e84 <pbuf_cat>
    2812:	4620      	mov	r0, r4
    2814:	e8bd 4010 	ldmia.w	sp!, {r4, lr}
    2818:	f7ff bfea 	b.w	27f0 <pbuf_ref>

0000281c <memp_free>:
    281c:	b570      	push	{r4, r5, r6, lr}
    281e:	4604      	mov	r4, r0
    2820:	460d      	mov	r5, r1
    2822:	b1a1      	cbz	r1, 284e <memp_free+0x32>
    2824:	f7ff ffc5 	bl	27b2 <sys_arch_protect>
    2828:	4b09      	ldr	r3, [pc, #36]	; (2850 <memp_free+0x34>)
    282a:	220a      	movs	r2, #10
    282c:	fb02 3304 	mla	r3, r2, r4, r3
    2830:	f8b3 209c 	ldrh.w	r2, [r3, #156]	; 0x9c
    2834:	3a01      	subs	r2, #1
    2836:	f8a3 209c 	strh.w	r2, [r3, #156]	; 0x9c
    283a:	4b06      	ldr	r3, [pc, #24]	; (2854 <memp_free+0x38>)
    283c:	f853 2024 	ldr.w	r2, [r3, r4, lsl #2]
    2840:	602a      	str	r2, [r5, #0]
    2842:	f843 5024 	str.w	r5, [r3, r4, lsl #2]
    2846:	e8bd 4070 	ldmia.w	sp!, {r4, r5, r6, lr}
    284a:	f7ff bfb4 	b.w	27b6 <sys_arch_unprotect>
    284e:	bd70      	pop	{r4, r5, r6, pc}
    2850:	20003244 	.word	0x20003244
    2854:	20005098 	.word	0x20005098

00002858 <udp_remove>:
    2858:	4a09      	ldr	r2, [pc, #36]	; (2880 <udp_remove+0x28>)
    285a:	4601      	mov	r1, r0
    285c:	6813      	ldr	r3, [r2, #0]
    285e:	4283      	cmp	r3, r0
    2860:	d109      	bne.n	2876 <udp_remove+0x1e>
    2862:	68c3      	ldr	r3, [r0, #12]
    2864:	6013      	str	r3, [r2, #0]
    2866:	e008      	b.n	287a <udp_remove+0x22>
    2868:	68da      	ldr	r2, [r3, #12]
    286a:	b11a      	cbz	r2, 2874 <udp_remove+0x1c>
    286c:	428a      	cmp	r2, r1
    286e:	bf04      	itt	eq
    2870:	68ca      	ldreq	r2, [r1, #12]
    2872:	60da      	streq	r2, [r3, #12]
    2874:	68db      	ldr	r3, [r3, #12]
    2876:	2b00      	cmp	r3, #0
    2878:	d1f6      	bne.n	2868 <udp_remove+0x10>
    287a:	2001      	movs	r0, #1
    287c:	f7ff bfce 	b.w	281c <memp_free>
    2880:	20003440 	.word	0x20003440

00002884 <memp_malloc>:
    2884:	2807      	cmp	r0, #7
    2886:	b570      	push	{r4, r5, r6, lr}
    2888:	4604      	mov	r4, r0
    288a:	d824      	bhi.n	28d6 <memp_malloc+0x52>
    288c:	f7ff ff91 	bl	27b2 <sys_arch_protect>
    2890:	4912      	ldr	r1, [pc, #72]	; (28dc <memp_malloc+0x58>)
    2892:	4b13      	ldr	r3, [pc, #76]	; (28e0 <memp_malloc+0x5c>)
    2894:	f851 5024 	ldr.w	r5, [r1, r4, lsl #2]
    2898:	220a      	movs	r2, #10
    289a:	b18d      	cbz	r5, 28c0 <memp_malloc+0x3c>
    289c:	682e      	ldr	r6, [r5, #0]
    289e:	f841 6024 	str.w	r6, [r1, r4, lsl #2]
    28a2:	fb02 3404 	mla	r4, r2, r4, r3
    28a6:	f8b4 309c 	ldrh.w	r3, [r4, #156]	; 0x9c
    28aa:	f8b4 209e 	ldrh.w	r2, [r4, #158]	; 0x9e
    28ae:	3301      	adds	r3, #1
    28b0:	b29b      	uxth	r3, r3
    28b2:	429a      	cmp	r2, r3
    28b4:	f8a4 309c 	strh.w	r3, [r4, #156]	; 0x9c
    28b8:	d209      	bcs.n	28ce <memp_malloc+0x4a>
    28ba:	f8a4 309e 	strh.w	r3, [r4, #158]	; 0x9e
    28be:	e006      	b.n	28ce <memp_malloc+0x4a>
    28c0:	fb02 3404 	mla	r4, r2, r4, r3
    28c4:	f8b4 30a0 	ldrh.w	r3, [r4, #160]	; 0xa0
    28c8:	3301      	adds	r3, #1
    28ca:	f8a4 30a0 	strh.w	r3, [r4, #160]	; 0xa0
    28ce:	f7ff ff72 	bl	27b6 <sys_arch_unprotect>
    28d2:	4628      	mov	r0, r5
    28d4:	bd70      	pop	{r4, r5, r6, pc}
    28d6:	2000      	movs	r0, #0
    28d8:	bd70      	pop	{r4, r5, r6, pc}
    28da:	bf00      	nop
    28dc:	20005098 	.word	0x20005098
    28e0:	20003244 	.word	0x20003244

000028e4 <udp_new>:
    28e4:	b510      	push	{r4, lr}
    28e6:	2001      	movs	r0, #1
    28e8:	f7ff ffcc 	bl	2884 <memp_malloc>
    28ec:	4604      	mov	r4, r0
    28ee:	b128      	cbz	r0, 28fc <udp_new+0x18>
    28f0:	2100      	movs	r1, #0
    28f2:	2220      	movs	r2, #32
    28f4:	f005 f9b6 	bl	7c64 <memset>
    28f8:	23ff      	movs	r3, #255	; 0xff
    28fa:	72e3      	strb	r3, [r4, #11]
    28fc:	4620      	mov	r0, r4
    28fe:	bd10      	pop	{r4, pc}

00002900 <tcp_seg_copy>:
    2900:	b570      	push	{r4, r5, r6, lr}
    2902:	4605      	mov	r5, r0
    2904:	2004      	movs	r0, #4
    2906:	f7ff ffbd 	bl	2884 <memp_malloc>
    290a:	4604      	mov	r4, r0
    290c:	b138      	cbz	r0, 291e <tcp_seg_copy+0x1e>
    290e:	4626      	mov	r6, r4
    2910:	cd0f      	ldmia	r5!, {r0, r1, r2, r3}
    2912:	c60f      	stmia	r6!, {r0, r1, r2, r3}
    2914:	682a      	ldr	r2, [r5, #0]
    2916:	6032      	str	r2, [r6, #0]
    2918:	6860      	ldr	r0, [r4, #4]
    291a:	f7ff ff69 	bl	27f0 <pbuf_ref>
    291e:	4620      	mov	r0, r4
    2920:	bd70      	pop	{r4, r5, r6, pc}
	...

00002924 <tcp_listen_with_backlog>:
    2924:	b538      	push	{r3, r4, r5, lr}
    2926:	7c03      	ldrb	r3, [r0, #16]
    2928:	4605      	mov	r5, r0
    292a:	2b00      	cmp	r3, #0
    292c:	d137      	bne.n	299e <tcp_listen_with_backlog+0x7a>
    292e:	2003      	movs	r0, #3
    2930:	f7ff ffa8 	bl	2884 <memp_malloc>
    2934:	4604      	mov	r4, r0
    2936:	2800      	cmp	r0, #0
    2938:	d033      	beq.n	29a2 <tcp_listen_with_backlog+0x7e>
    293a:	696b      	ldr	r3, [r5, #20]
    293c:	4a19      	ldr	r2, [pc, #100]	; (29a4 <tcp_listen_with_backlog+0x80>)
    293e:	6143      	str	r3, [r0, #20]
    2940:	8b2b      	ldrh	r3, [r5, #24]
    2942:	8303      	strh	r3, [r0, #24]
    2944:	2301      	movs	r3, #1
    2946:	7403      	strb	r3, [r0, #16]
    2948:	892b      	ldrh	r3, [r5, #8]
    294a:	f043 0302 	orr.w	r3, r3, #2
    294e:	8103      	strh	r3, [r0, #8]
    2950:	7aeb      	ldrb	r3, [r5, #11]
    2952:	72c3      	strb	r3, [r0, #11]
    2954:	7aab      	ldrb	r3, [r5, #10]
    2956:	7283      	strb	r3, [r0, #10]
    2958:	682b      	ldr	r3, [r5, #0]
    295a:	6003      	str	r3, [r0, #0]
    295c:	6813      	ldr	r3, [r2, #0]
    295e:	42ab      	cmp	r3, r5
    2960:	d101      	bne.n	2966 <tcp_listen_with_backlog+0x42>
    2962:	68eb      	ldr	r3, [r5, #12]
    2964:	e00c      	b.n	2980 <tcp_listen_with_backlog+0x5c>
    2966:	4a10      	ldr	r2, [pc, #64]	; (29a8 <tcp_listen_with_backlog+0x84>)
    2968:	6013      	str	r3, [r2, #0]
    296a:	e007      	b.n	297c <tcp_listen_with_backlog+0x58>
    296c:	68d9      	ldr	r1, [r3, #12]
    296e:	42a9      	cmp	r1, r5
    2970:	d103      	bne.n	297a <tcp_listen_with_backlog+0x56>
    2972:	6013      	str	r3, [r2, #0]
    2974:	68ea      	ldr	r2, [r5, #12]
    2976:	60da      	str	r2, [r3, #12]
    2978:	e003      	b.n	2982 <tcp_listen_with_backlog+0x5e>
    297a:	460b      	mov	r3, r1
    297c:	2b00      	cmp	r3, #0
    297e:	d1f5      	bne.n	296c <tcp_listen_with_backlog+0x48>
    2980:	6013      	str	r3, [r2, #0]
    2982:	2300      	movs	r3, #0
    2984:	60eb      	str	r3, [r5, #12]
    2986:	2002      	movs	r0, #2
    2988:	4629      	mov	r1, r5
    298a:	f7ff ff47 	bl	281c <memp_free>
    298e:	4b07      	ldr	r3, [pc, #28]	; (29ac <tcp_listen_with_backlog+0x88>)
    2990:	4620      	mov	r0, r4
    2992:	61e3      	str	r3, [r4, #28]
    2994:	4b06      	ldr	r3, [pc, #24]	; (29b0 <tcp_listen_with_backlog+0x8c>)
    2996:	681a      	ldr	r2, [r3, #0]
    2998:	601c      	str	r4, [r3, #0]
    299a:	60e2      	str	r2, [r4, #12]
    299c:	bd38      	pop	{r3, r4, r5, pc}
    299e:	2000      	movs	r0, #0
    29a0:	bd38      	pop	{r3, r4, r5, pc}
    29a2:	bd38      	pop	{r3, r4, r5, pc}
    29a4:	20000208 	.word	0x20000208
    29a8:	200001ec 	.word	0x200001ec
    29ac:	00001aa5 	.word	0x00001aa5
    29b0:	200001e4 	.word	0x200001e4

000029b4 <mem_realloc>:
    29b4:	3103      	adds	r1, #3
    29b6:	f64f 72fc 	movw	r2, #65532	; 0xfffc
    29ba:	ea01 0202 	and.w	r2, r1, r2
    29be:	2a0b      	cmp	r2, #11
    29c0:	b5f8      	push	{r3, r4, r5, r6, r7, lr}
    29c2:	4604      	mov	r4, r0
    29c4:	d903      	bls.n	29ce <mem_realloc+0x1a>
    29c6:	f5b2 5f40 	cmp.w	r2, #12288	; 0x3000
    29ca:	d85c      	bhi.n	2a86 <mem_realloc+0xd2>
    29cc:	e000      	b.n	29d0 <mem_realloc+0x1c>
    29ce:	220c      	movs	r2, #12
    29d0:	4b2e      	ldr	r3, [pc, #184]	; (2a8c <mem_realloc+0xd8>)
    29d2:	681b      	ldr	r3, [r3, #0]
    29d4:	429c      	cmp	r4, r3
    29d6:	d303      	bcc.n	29e0 <mem_realloc+0x2c>
    29d8:	492d      	ldr	r1, [pc, #180]	; (2a90 <mem_realloc+0xdc>)
    29da:	6809      	ldr	r1, [r1, #0]
    29dc:	428c      	cmp	r4, r1
    29de:	d30a      	bcc.n	29f6 <mem_realloc+0x42>
    29e0:	f7ff fee7 	bl	27b2 <sys_arch_protect>
    29e4:	4b2b      	ldr	r3, [pc, #172]	; (2a94 <mem_realloc+0xe0>)
    29e6:	f8b3 2098 	ldrh.w	r2, [r3, #152]	; 0x98
    29ea:	3201      	adds	r2, #1
    29ec:	f8a3 2098 	strh.w	r2, [r3, #152]	; 0x98
    29f0:	f7ff fee1 	bl	27b6 <sys_arch_unprotect>
    29f4:	e048      	b.n	2a88 <mem_realloc+0xd4>
    29f6:	f1a4 0608 	sub.w	r6, r4, #8
    29fa:	f834 5c08 	ldrh.w	r5, [r4, #-8]
    29fe:	1af1      	subs	r1, r6, r3
    2a00:	b289      	uxth	r1, r1
    2a02:	f1a5 0008 	sub.w	r0, r5, #8
    2a06:	1a40      	subs	r0, r0, r1
    2a08:	b280      	uxth	r0, r0
    2a0a:	4282      	cmp	r2, r0
    2a0c:	d83b      	bhi.n	2a86 <mem_realloc+0xd2>
    2a0e:	d03b      	beq.n	2a88 <mem_realloc+0xd4>
    2a10:	4f20      	ldr	r7, [pc, #128]	; (2a94 <mem_realloc+0xe0>)
    2a12:	f8b7 c092 	ldrh.w	ip, [r7, #146]	; 0x92
    2a16:	ebc0 0c0c 	rsb	ip, r0, ip
    2a1a:	4494      	add	ip, r2
    2a1c:	f8a7 c092 	strh.w	ip, [r7, #146]	; 0x92
    2a20:	195f      	adds	r7, r3, r5
    2a22:	f897 c004 	ldrb.w	ip, [r7, #4]
    2a26:	f1bc 0f00 	cmp.w	ip, #0
    2a2a:	d111      	bne.n	2a50 <mem_realloc+0x9c>
    2a2c:	f833 c005 	ldrh.w	ip, [r3, r5]
    2a30:	4d19      	ldr	r5, [pc, #100]	; (2a98 <mem_realloc+0xe4>)
    2a32:	f101 0008 	add.w	r0, r1, #8
    2a36:	1812      	adds	r2, r2, r0
    2a38:	6828      	ldr	r0, [r5, #0]
    2a3a:	b292      	uxth	r2, r2
    2a3c:	42b8      	cmp	r0, r7
    2a3e:	eb03 0002 	add.w	r0, r3, r2
    2a42:	bf08      	it	eq
    2a44:	6028      	streq	r0, [r5, #0]
    2a46:	2500      	movs	r5, #0
    2a48:	7105      	strb	r5, [r0, #4]
    2a4a:	f823 c002 	strh.w	ip, [r3, r2]
    2a4e:	e011      	b.n	2a74 <mem_realloc+0xc0>
    2a50:	f102 0714 	add.w	r7, r2, #20
    2a54:	4287      	cmp	r7, r0
    2a56:	d817      	bhi.n	2a88 <mem_realloc+0xd4>
    2a58:	4f0f      	ldr	r7, [pc, #60]	; (2a98 <mem_realloc+0xe4>)
    2a5a:	f101 0008 	add.w	r0, r1, #8
    2a5e:	1812      	adds	r2, r2, r0
    2a60:	f8d7 c000 	ldr.w	ip, [r7]
    2a64:	b292      	uxth	r2, r2
    2a66:	1898      	adds	r0, r3, r2
    2a68:	4560      	cmp	r0, ip
    2a6a:	bf38      	it	cc
    2a6c:	6038      	strcc	r0, [r7, #0]
    2a6e:	2700      	movs	r7, #0
    2a70:	7107      	strb	r7, [r0, #4]
    2a72:	529d      	strh	r5, [r3, r2]
    2a74:	8041      	strh	r1, [r0, #2]
    2a76:	8032      	strh	r2, [r6, #0]
    2a78:	5a99      	ldrh	r1, [r3, r2]
    2a7a:	f5b1 5f40 	cmp.w	r1, #12288	; 0x3000
    2a7e:	d003      	beq.n	2a88 <mem_realloc+0xd4>
    2a80:	185b      	adds	r3, r3, r1
    2a82:	805a      	strh	r2, [r3, #2]
    2a84:	e000      	b.n	2a88 <mem_realloc+0xd4>
    2a86:	2400      	movs	r4, #0
    2a88:	4620      	mov	r0, r4
    2a8a:	bdf8      	pop	{r3, r4, r5, r6, r7, pc}
    2a8c:	200001e8 	.word	0x200001e8
    2a90:	2000323c 	.word	0x2000323c
    2a94:	20003244 	.word	0x20003244
    2a98:	200034b8 	.word	0x200034b8

00002a9c <mem_free>:
    2a9c:	e92d 41f0 	stmdb	sp!, {r4, r5, r6, r7, r8, lr}
    2aa0:	2800      	cmp	r0, #0
    2aa2:	d054      	beq.n	2b4e <mem_free+0xb2>
    2aa4:	4b2b      	ldr	r3, [pc, #172]	; (2b54 <mem_free+0xb8>)
    2aa6:	4c2c      	ldr	r4, [pc, #176]	; (2b58 <mem_free+0xbc>)
    2aa8:	681a      	ldr	r2, [r3, #0]
    2aaa:	469c      	mov	ip, r3
    2aac:	4290      	cmp	r0, r2
    2aae:	d303      	bcc.n	2ab8 <mem_free+0x1c>
    2ab0:	4b2a      	ldr	r3, [pc, #168]	; (2b5c <mem_free+0xc0>)
    2ab2:	681f      	ldr	r7, [r3, #0]
    2ab4:	42b8      	cmp	r0, r7
    2ab6:	d30a      	bcc.n	2ace <mem_free+0x32>
    2ab8:	f7ff fe7b 	bl	27b2 <sys_arch_protect>
    2abc:	f8b4 3098 	ldrh.w	r3, [r4, #152]	; 0x98
    2ac0:	3301      	adds	r3, #1
    2ac2:	f8a4 3098 	strh.w	r3, [r4, #152]	; 0x98
    2ac6:	e8bd 41f0 	ldmia.w	sp!, {r4, r5, r6, r7, r8, lr}
    2aca:	f7ff be74 	b.w	27b6 <sys_arch_unprotect>
    2ace:	f1a0 0308 	sub.w	r3, r0, #8
    2ad2:	2100      	movs	r1, #0
    2ad4:	4d22      	ldr	r5, [pc, #136]	; (2b60 <mem_free+0xc4>)
    2ad6:	7119      	strb	r1, [r3, #4]
    2ad8:	6829      	ldr	r1, [r5, #0]
    2ada:	f8b4 8092 	ldrh.w	r8, [r4, #146]	; 0x92
    2ade:	428b      	cmp	r3, r1
    2ae0:	f830 1c08 	ldrh.w	r1, [r0, #-8]
    2ae4:	ebc2 0603 	rsb	r6, r2, r3
    2ae8:	b2b6      	uxth	r6, r6
    2aea:	ebc1 0808 	rsb	r8, r1, r8
    2aee:	44b0      	add	r8, r6
    2af0:	f8a4 8092 	strh.w	r8, [r4, #146]	; 0x92
    2af4:	eb02 0401 	add.w	r4, r2, r1
    2af8:	bf38      	it	cc
    2afa:	602b      	strcc	r3, [r5, #0]
    2afc:	42a3      	cmp	r3, r4
    2afe:	d011      	beq.n	2b24 <mem_free+0x88>
    2b00:	f894 8004 	ldrb.w	r8, [r4, #4]
    2b04:	f1b8 0f00 	cmp.w	r8, #0
    2b08:	d10c      	bne.n	2b24 <mem_free+0x88>
    2b0a:	42bc      	cmp	r4, r7
    2b0c:	d00a      	beq.n	2b24 <mem_free+0x88>
    2b0e:	682f      	ldr	r7, [r5, #0]
    2b10:	42a7      	cmp	r7, r4
    2b12:	bf04      	itt	eq
    2b14:	4c12      	ldreq	r4, [pc, #72]	; (2b60 <mem_free+0xc4>)
    2b16:	6023      	streq	r3, [r4, #0]
    2b18:	5a54      	ldrh	r4, [r2, r1]
    2b1a:	f820 4c08 	strh.w	r4, [r0, #-8]
    2b1e:	5a51      	ldrh	r1, [r2, r1]
    2b20:	1852      	adds	r2, r2, r1
    2b22:	8056      	strh	r6, [r2, #2]
    2b24:	f8dc 2000 	ldr.w	r2, [ip]
    2b28:	885c      	ldrh	r4, [r3, #2]
    2b2a:	1911      	adds	r1, r2, r4
    2b2c:	4299      	cmp	r1, r3
    2b2e:	d00e      	beq.n	2b4e <mem_free+0xb2>
    2b30:	790e      	ldrb	r6, [r1, #4]
    2b32:	b966      	cbnz	r6, 2b4e <mem_free+0xb2>
    2b34:	682d      	ldr	r5, [r5, #0]
    2b36:	429d      	cmp	r5, r3
    2b38:	bf04      	itt	eq
    2b3a:	4b09      	ldreq	r3, [pc, #36]	; (2b60 <mem_free+0xc4>)
    2b3c:	6019      	streq	r1, [r3, #0]
    2b3e:	f830 3c08 	ldrh.w	r3, [r0, #-8]
    2b42:	5313      	strh	r3, [r2, r4]
    2b44:	f830 3c08 	ldrh.w	r3, [r0, #-8]
    2b48:	18d3      	adds	r3, r2, r3
    2b4a:	1a8a      	subs	r2, r1, r2
    2b4c:	805a      	strh	r2, [r3, #2]
    2b4e:	e8bd 81f0 	ldmia.w	sp!, {r4, r5, r6, r7, r8, pc}
    2b52:	bf00      	nop
    2b54:	200001e8 	.word	0x200001e8
    2b58:	20003244 	.word	0x20003244
    2b5c:	2000323c 	.word	0x2000323c
    2b60:	200034b8 	.word	0x200034b8

00002b64 <dhcp_stop>:
    2b64:	b538      	push	{r3, r4, r5, lr}
    2b66:	f890 3031 	ldrb.w	r3, [r0, #49]	; 0x31
    2b6a:	6a04      	ldr	r4, [r0, #32]
    2b6c:	f023 0308 	bic.w	r3, r3, #8
    2b70:	4605      	mov	r5, r0
    2b72:	f880 3031 	strb.w	r3, [r0, #49]	; 0x31
    2b76:	b19c      	cbz	r4, 2ba0 <dhcp_stop+0x3c>
    2b78:	f894 3050 	ldrb.w	r3, [r4, #80]	; 0x50
    2b7c:	2b01      	cmp	r3, #1
    2b7e:	d104      	bne.n	2b8a <dhcp_stop+0x26>
    2b80:	f7ff fb01 	bl	2186 <autoip_stop>
    2b84:	2300      	movs	r3, #0
    2b86:	f884 3050 	strb.w	r3, [r4, #80]	; 0x50
    2b8a:	6860      	ldr	r0, [r4, #4]
    2b8c:	b118      	cbz	r0, 2b96 <dhcp_stop+0x32>
    2b8e:	f7ff fe63 	bl	2858 <udp_remove>
    2b92:	2300      	movs	r3, #0
    2b94:	6063      	str	r3, [r4, #4]
    2b96:	4620      	mov	r0, r4
    2b98:	f7ff ff80 	bl	2a9c <mem_free>
    2b9c:	2300      	movs	r3, #0
    2b9e:	622b      	str	r3, [r5, #32]
    2ba0:	bd38      	pop	{r3, r4, r5, pc}

00002ba2 <dhcp_free_reply>:
    2ba2:	b510      	push	{r4, lr}
    2ba4:	4604      	mov	r4, r0
    2ba6:	6880      	ldr	r0, [r0, #8]
    2ba8:	b118      	cbz	r0, 2bb2 <dhcp_free_reply+0x10>
    2baa:	f7ff ff77 	bl	2a9c <mem_free>
    2bae:	2300      	movs	r3, #0
    2bb0:	60a3      	str	r3, [r4, #8]
    2bb2:	68e0      	ldr	r0, [r4, #12]
    2bb4:	b120      	cbz	r0, 2bc0 <dhcp_free_reply+0x1e>
    2bb6:	f7ff ff71 	bl	2a9c <mem_free>
    2bba:	2300      	movs	r3, #0
    2bbc:	60e3      	str	r3, [r4, #12]
    2bbe:	8223      	strh	r3, [r4, #16]
    2bc0:	bd10      	pop	{r4, pc}

00002bc2 <pbuf_free>:
    2bc2:	b570      	push	{r4, r5, r6, lr}
    2bc4:	4606      	mov	r6, r0
    2bc6:	b310      	cbz	r0, 2c0e <pbuf_free+0x4c>
    2bc8:	2400      	movs	r4, #0
    2bca:	e000      	b.n	2bce <pbuf_free+0xc>
    2bcc:	462e      	mov	r6, r5
    2bce:	f7ff fdf0 	bl	27b2 <sys_arch_protect>
    2bd2:	89f5      	ldrh	r5, [r6, #14]
    2bd4:	3d01      	subs	r5, #1
    2bd6:	b2ad      	uxth	r5, r5
    2bd8:	81f5      	strh	r5, [r6, #14]
    2bda:	f7ff fdec 	bl	27b6 <sys_arch_unprotect>
    2bde:	b9bd      	cbnz	r5, 2c10 <pbuf_free+0x4e>
    2be0:	7b33      	ldrb	r3, [r6, #12]
    2be2:	6835      	ldr	r5, [r6, #0]
    2be4:	2b03      	cmp	r3, #3
    2be6:	d101      	bne.n	2bec <pbuf_free+0x2a>
    2be8:	2007      	movs	r0, #7
    2bea:	e004      	b.n	2bf6 <pbuf_free+0x34>
    2bec:	3b01      	subs	r3, #1
    2bee:	b29b      	uxth	r3, r3
    2bf0:	2b01      	cmp	r3, #1
    2bf2:	d804      	bhi.n	2bfe <pbuf_free+0x3c>
    2bf4:	2006      	movs	r0, #6
    2bf6:	4631      	mov	r1, r6
    2bf8:	f7ff fe10 	bl	281c <memp_free>
    2bfc:	e002      	b.n	2c04 <pbuf_free+0x42>
    2bfe:	4630      	mov	r0, r6
    2c00:	f7ff ff4c 	bl	2a9c <mem_free>
    2c04:	3401      	adds	r4, #1
    2c06:	b2e4      	uxtb	r4, r4
    2c08:	2d00      	cmp	r5, #0
    2c0a:	d1df      	bne.n	2bcc <pbuf_free+0xa>
    2c0c:	e000      	b.n	2c10 <pbuf_free+0x4e>
    2c0e:	4604      	mov	r4, r0
    2c10:	4620      	mov	r0, r4
    2c12:	bd70      	pop	{r4, r5, r6, pc}

00002c14 <stellarisif_transmit.clone.4>:
    2c14:	b5f7      	push	{r0, r1, r2, r4, r5, r6, r7, lr}
    2c16:	8902      	ldrh	r2, [r0, #8]
    2c18:	6843      	ldr	r3, [r0, #4]
    2c1a:	3a10      	subs	r2, #16
    2c1c:	801a      	strh	r2, [r3, #0]
    2c1e:	2200      	movs	r2, #0
    2c20:	ad01      	add	r5, sp, #4
    2c22:	9201      	str	r2, [sp, #4]
    2c24:	4604      	mov	r4, r0
    2c26:	e02f      	b.n	2c88 <stellarisif_transmit.clone.4+0x74>
    2c28:	6861      	ldr	r1, [r4, #4]
    2c2a:	8966      	ldrh	r6, [r4, #10]
    2c2c:	2300      	movs	r3, #0
    2c2e:	e005      	b.n	2c3c <stellarisif_transmit.clone.4+0x28>
    2c30:	5ccf      	ldrb	r7, [r1, r3]
    2c32:	3301      	adds	r3, #1
    2c34:	54af      	strb	r7, [r5, r2]
    2c36:	3201      	adds	r2, #1
    2c38:	f002 0203 	and.w	r2, r2, #3
    2c3c:	42b3      	cmp	r3, r6
    2c3e:	da02      	bge.n	2c46 <stellarisif_transmit.clone.4+0x32>
    2c40:	2a00      	cmp	r2, #0
    2c42:	d1f5      	bne.n	2c30 <stellarisif_transmit.clone.4+0x1c>
    2c44:	e000      	b.n	2c48 <stellarisif_transmit.clone.4+0x34>
    2c46:	b93a      	cbnz	r2, 2c58 <stellarisif_transmit.clone.4+0x44>
    2c48:	b12b      	cbz	r3, 2c56 <stellarisif_transmit.clone.4+0x42>
    2c4a:	4a17      	ldr	r2, [pc, #92]	; (2ca8 <stellarisif_transmit.clone.4+0x94>)
    2c4c:	9e01      	ldr	r6, [sp, #4]
    2c4e:	6016      	str	r6, [r2, #0]
    2c50:	2200      	movs	r2, #0
    2c52:	9201      	str	r2, [sp, #4]
    2c54:	e000      	b.n	2c58 <stellarisif_transmit.clone.4+0x44>
    2c56:	461a      	mov	r2, r3
    2c58:	18cf      	adds	r7, r1, r3
    2c5a:	8966      	ldrh	r6, [r4, #10]
    2c5c:	e006      	b.n	2c6c <stellarisif_transmit.clone.4+0x58>
    2c5e:	f857 cb04 	ldr.w	ip, [r7], #4
    2c62:	f8df e044 	ldr.w	lr, [pc, #68]	; 2ca8 <stellarisif_transmit.clone.4+0x94>
    2c66:	3304      	adds	r3, #4
    2c68:	f8ce c000 	str.w	ip, [lr]
    2c6c:	f103 0e03 	add.w	lr, r3, #3
    2c70:	45b6      	cmp	lr, r6
    2c72:	dbf4      	blt.n	2c5e <stellarisif_transmit.clone.4+0x4a>
    2c74:	e005      	b.n	2c82 <stellarisif_transmit.clone.4+0x6e>
    2c76:	5ccf      	ldrb	r7, [r1, r3]
    2c78:	3301      	adds	r3, #1
    2c7a:	54af      	strb	r7, [r5, r2]
    2c7c:	3201      	adds	r2, #1
    2c7e:	f002 0203 	and.w	r2, r2, #3
    2c82:	42b3      	cmp	r3, r6
    2c84:	dbf7      	blt.n	2c76 <stellarisif_transmit.clone.4+0x62>
    2c86:	6824      	ldr	r4, [r4, #0]
    2c88:	2c00      	cmp	r4, #0
    2c8a:	d1cd      	bne.n	2c28 <stellarisif_transmit.clone.4+0x14>
    2c8c:	9a01      	ldr	r2, [sp, #4]
    2c8e:	4b06      	ldr	r3, [pc, #24]	; (2ca8 <stellarisif_transmit.clone.4+0x94>)
    2c90:	601a      	str	r2, [r3, #0]
    2c92:	2201      	movs	r2, #1
    2c94:	629a      	str	r2, [r3, #40]	; 0x28
    2c96:	f7ff ff94 	bl	2bc2 <pbuf_free>
    2c9a:	4b04      	ldr	r3, [pc, #16]	; (2cac <stellarisif_transmit.clone.4+0x98>)
    2c9c:	4620      	mov	r0, r4
    2c9e:	881a      	ldrh	r2, [r3, #0]
    2ca0:	3201      	adds	r2, #1
    2ca2:	801a      	strh	r2, [r3, #0]
    2ca4:	bdfe      	pop	{r1, r2, r3, r4, r5, r6, r7, pc}
    2ca6:	bf00      	nop
    2ca8:	40048010 	.word	0x40048010
    2cac:	20003244 	.word	0x20003244

00002cb0 <free_etharp_q>:
    2cb0:	b538      	push	{r3, r4, r5, lr}
    2cb2:	4605      	mov	r5, r0
    2cb4:	e008      	b.n	2cc8 <free_etharp_q+0x18>
    2cb6:	6868      	ldr	r0, [r5, #4]
    2cb8:	682c      	ldr	r4, [r5, #0]
    2cba:	f7ff ff82 	bl	2bc2 <pbuf_free>
    2cbe:	4629      	mov	r1, r5
    2cc0:	2005      	movs	r0, #5
    2cc2:	f7ff fdab 	bl	281c <memp_free>
    2cc6:	4625      	mov	r5, r4
    2cc8:	2d00      	cmp	r5, #0
    2cca:	d1f4      	bne.n	2cb6 <free_etharp_q+0x6>
    2ccc:	bd38      	pop	{r3, r4, r5, pc}
	...

00002cd0 <find_entry>:
    2cd0:	e92d 4ff0 	stmdb	sp!, {r4, r5, r6, r7, r8, r9, sl, fp, lr}
    2cd4:	4604      	mov	r4, r0
    2cd6:	b085      	sub	sp, #20
    2cd8:	4d46      	ldr	r5, [pc, #280]	; (2df4 <find_entry+0x124>)
    2cda:	b138      	cbz	r0, 2cec <find_entry+0x1c>
    2cdc:	4b46      	ldr	r3, [pc, #280]	; (2df8 <find_entry+0x128>)
    2cde:	7818      	ldrb	r0, [r3, #0]
    2ce0:	2314      	movs	r3, #20
    2ce2:	fb03 5300 	mla	r3, r3, r0, r5
    2ce6:	7b9a      	ldrb	r2, [r3, #14]
    2ce8:	2a02      	cmp	r2, #2
    2cea:	d00b      	beq.n	2d04 <find_entry+0x34>
    2cec:	220a      	movs	r2, #10
    2cee:	2700      	movs	r7, #0
    2cf0:	4b40      	ldr	r3, [pc, #256]	; (2df4 <find_entry+0x124>)
    2cf2:	46ba      	mov	sl, r7
    2cf4:	46bb      	mov	fp, r7
    2cf6:	4638      	mov	r0, r7
    2cf8:	4616      	mov	r6, r2
    2cfa:	4691      	mov	r9, r2
    2cfc:	4690      	mov	r8, r2
    2cfe:	9201      	str	r2, [sp, #4]
    2d00:	468c      	mov	ip, r1
    2d02:	e008      	b.n	2d16 <find_entry+0x46>
    2d04:	6822      	ldr	r2, [r4, #0]
    2d06:	685b      	ldr	r3, [r3, #4]
    2d08:	429a      	cmp	r2, r3
    2d0a:	d1ef      	bne.n	2cec <find_entry+0x1c>
    2d0c:	4b3b      	ldr	r3, [pc, #236]	; (2dfc <find_entry+0x12c>)
    2d0e:	8dda      	ldrh	r2, [r3, #46]	; 0x2e
    2d10:	3201      	adds	r2, #1
    2d12:	85da      	strh	r2, [r3, #46]	; 0x2e
    2d14:	e069      	b.n	2dea <find_entry+0x11a>
    2d16:	2e0a      	cmp	r6, #10
    2d18:	d103      	bne.n	2d22 <find_entry+0x52>
    2d1a:	7b99      	ldrb	r1, [r3, #14]
    2d1c:	b909      	cbnz	r1, 2d22 <find_entry+0x52>
    2d1e:	b2c6      	uxtb	r6, r0
    2d20:	e028      	b.n	2d74 <find_entry+0xa4>
    2d22:	7b99      	ldrb	r1, [r3, #14]
    2d24:	2901      	cmp	r1, #1
    2d26:	d113      	bne.n	2d50 <find_entry+0x80>
    2d28:	b11c      	cbz	r4, 2d32 <find_entry+0x62>
    2d2a:	6821      	ldr	r1, [r4, #0]
    2d2c:	685a      	ldr	r2, [r3, #4]
    2d2e:	4291      	cmp	r1, r2
    2d30:	d017      	beq.n	2d62 <find_entry+0x92>
    2d32:	681a      	ldr	r2, [r3, #0]
    2d34:	7bd9      	ldrb	r1, [r3, #15]
    2d36:	b12a      	cbz	r2, 2d44 <find_entry+0x74>
    2d38:	42b9      	cmp	r1, r7
    2d3a:	d31b      	bcc.n	2d74 <find_entry+0xa4>
    2d3c:	b2c2      	uxtb	r2, r0
    2d3e:	9201      	str	r2, [sp, #4]
    2d40:	460f      	mov	r7, r1
    2d42:	e017      	b.n	2d74 <find_entry+0xa4>
    2d44:	4559      	cmp	r1, fp
    2d46:	d315      	bcc.n	2d74 <find_entry+0xa4>
    2d48:	fa5f f880 	uxtb.w	r8, r0
    2d4c:	468b      	mov	fp, r1
    2d4e:	e011      	b.n	2d74 <find_entry+0xa4>
    2d50:	2902      	cmp	r1, #2
    2d52:	d10f      	bne.n	2d74 <find_entry+0xa4>
    2d54:	b144      	cbz	r4, 2d68 <find_entry+0x98>
    2d56:	6821      	ldr	r1, [r4, #0]
    2d58:	9103      	str	r1, [sp, #12]
    2d5a:	9a03      	ldr	r2, [sp, #12]
    2d5c:	6859      	ldr	r1, [r3, #4]
    2d5e:	428a      	cmp	r2, r1
    2d60:	d102      	bne.n	2d68 <find_entry+0x98>
    2d62:	4b25      	ldr	r3, [pc, #148]	; (2df8 <find_entry+0x128>)
    2d64:	7018      	strb	r0, [r3, #0]
    2d66:	e040      	b.n	2dea <find_entry+0x11a>
    2d68:	7bd9      	ldrb	r1, [r3, #15]
    2d6a:	4551      	cmp	r1, sl
    2d6c:	bf24      	itt	cs
    2d6e:	fa5f f980 	uxtbcs.w	r9, r0
    2d72:	468a      	movcs	sl, r1
    2d74:	3001      	adds	r0, #1
    2d76:	b2c0      	uxtb	r0, r0
    2d78:	3314      	adds	r3, #20
    2d7a:	280a      	cmp	r0, #10
    2d7c:	d1cb      	bne.n	2d16 <find_entry+0x46>
    2d7e:	2e0a      	cmp	r6, #10
    2d80:	9a01      	ldr	r2, [sp, #4]
    2d82:	4661      	mov	r1, ip
    2d84:	d102      	bne.n	2d8c <find_entry+0xbc>
    2d86:	f01c 0f01 	tst.w	ip, #1
    2d8a:	d02d      	beq.n	2de8 <find_entry+0x118>
    2d8c:	f011 0a02 	ands.w	sl, r1, #2
    2d90:	d12a      	bne.n	2de8 <find_entry+0x118>
    2d92:	b273      	sxtb	r3, r6
    2d94:	2b09      	cmp	r3, #9
    2d96:	dc01      	bgt.n	2d9c <find_entry+0xcc>
    2d98:	b2f6      	uxtb	r6, r6
    2d9a:	e015      	b.n	2dc8 <find_entry+0xf8>
    2d9c:	f1b9 0f0a 	cmp.w	r9, #10
    2da0:	d002      	beq.n	2da8 <find_entry+0xd8>
    2da2:	fa5f f689 	uxtb.w	r6, r9
    2da6:	e00f      	b.n	2dc8 <find_entry+0xf8>
    2da8:	f1b8 0f0a 	cmp.w	r8, #10
    2dac:	d002      	beq.n	2db4 <find_entry+0xe4>
    2dae:	fa5f f688 	uxtb.w	r6, r8
    2db2:	e009      	b.n	2dc8 <find_entry+0xf8>
    2db4:	2a0a      	cmp	r2, #10
    2db6:	d017      	beq.n	2de8 <find_entry+0x118>
    2db8:	b2d6      	uxtb	r6, r2
    2dba:	2714      	movs	r7, #20
    2dbc:	4377      	muls	r7, r6
    2dbe:	59e8      	ldr	r0, [r5, r7]
    2dc0:	f7ff ff76 	bl	2cb0 <free_etharp_q>
    2dc4:	f845 a007 	str.w	sl, [r5, r7]
    2dc8:	2214      	movs	r2, #20
    2dca:	fb02 5306 	mla	r3, r2, r6, r5
    2dce:	2000      	movs	r0, #0
    2dd0:	7398      	strb	r0, [r3, #14]
    2dd2:	b10c      	cbz	r4, 2dd8 <find_entry+0x108>
    2dd4:	6821      	ldr	r1, [r4, #0]
    2dd6:	6059      	str	r1, [r3, #4]
    2dd8:	fb02 5506 	mla	r5, r2, r6, r5
    2ddc:	2300      	movs	r3, #0
    2dde:	73eb      	strb	r3, [r5, #15]
    2de0:	4b05      	ldr	r3, [pc, #20]	; (2df8 <find_entry+0x128>)
    2de2:	4630      	mov	r0, r6
    2de4:	701e      	strb	r6, [r3, #0]
    2de6:	e000      	b.n	2dea <find_entry+0x11a>
    2de8:	20ff      	movs	r0, #255	; 0xff
    2dea:	b240      	sxtb	r0, r0
    2dec:	b005      	add	sp, #20
    2dee:	e8bd 8ff0 	ldmia.w	sp!, {r4, r5, r6, r7, r8, r9, sl, fp, pc}
    2df2:	bf00      	nop
    2df4:	20003378 	.word	0x20003378
    2df8:	20003230 	.word	0x20003230
    2dfc:	20003244 	.word	0x20003244

00002e00 <etharp_tmr>:
    2e00:	b538      	push	{r3, r4, r5, lr}
    2e02:	4c0e      	ldr	r4, [pc, #56]	; (2e3c <etharp_tmr+0x3c>)
    2e04:	f104 05c8 	add.w	r5, r4, #200	; 0xc8
    2e08:	7be3      	ldrb	r3, [r4, #15]
    2e0a:	7ba2      	ldrb	r2, [r4, #14]
    2e0c:	3301      	adds	r3, #1
    2e0e:	b2db      	uxtb	r3, r3
    2e10:	2a02      	cmp	r2, #2
    2e12:	73e3      	strb	r3, [r4, #15]
    2e14:	d101      	bne.n	2e1a <etharp_tmr+0x1a>
    2e16:	2bef      	cmp	r3, #239	; 0xef
    2e18:	e002      	b.n	2e20 <etharp_tmr+0x20>
    2e1a:	2a01      	cmp	r2, #1
    2e1c:	d109      	bne.n	2e32 <etharp_tmr+0x32>
    2e1e:	2b01      	cmp	r3, #1
    2e20:	d907      	bls.n	2e32 <etharp_tmr+0x32>
    2e22:	6820      	ldr	r0, [r4, #0]
    2e24:	b118      	cbz	r0, 2e2e <etharp_tmr+0x2e>
    2e26:	f7ff ff43 	bl	2cb0 <free_etharp_q>
    2e2a:	2300      	movs	r3, #0
    2e2c:	6023      	str	r3, [r4, #0]
    2e2e:	2300      	movs	r3, #0
    2e30:	73a3      	strb	r3, [r4, #14]
    2e32:	3414      	adds	r4, #20
    2e34:	42ac      	cmp	r4, r5
    2e36:	d1e7      	bne.n	2e08 <etharp_tmr+0x8>
    2e38:	bd38      	pop	{r3, r4, r5, pc}
    2e3a:	bf00      	nop
    2e3c:	20003378 	.word	0x20003378

00002e40 <update_arp_entry>:
    2e40:	e92d 43f8 	stmdb	sp!, {r3, r4, r5, r6, r7, r8, r9, lr}
    2e44:	4605      	mov	r5, r0
    2e46:	4690      	mov	r8, r2
    2e48:	461f      	mov	r7, r3
    2e4a:	460c      	mov	r4, r1
    2e4c:	2900      	cmp	r1, #0
    2e4e:	d048      	beq.n	2ee2 <update_arp_entry+0xa2>
    2e50:	680e      	ldr	r6, [r1, #0]
    2e52:	2e00      	cmp	r6, #0
    2e54:	d045      	beq.n	2ee2 <update_arp_entry+0xa2>
    2e56:	4608      	mov	r0, r1
    2e58:	4629      	mov	r1, r5
    2e5a:	f7ff fc8b 	bl	2774 <ip_addr_isbroadcast>
    2e5e:	2800      	cmp	r0, #0
    2e60:	d13f      	bne.n	2ee2 <update_arp_entry+0xa2>
    2e62:	f04f 4070 	mov.w	r0, #4026531840	; 0xf0000000
    2e66:	f7ff fa8c 	bl	2382 <ntohl>
    2e6a:	4681      	mov	r9, r0
    2e6c:	f04f 4060 	mov.w	r0, #3758096384	; 0xe0000000
    2e70:	f7ff fa87 	bl	2382 <ntohl>
    2e74:	ea09 0606 	and.w	r6, r9, r6
    2e78:	4286      	cmp	r6, r0
    2e7a:	d032      	beq.n	2ee2 <update_arp_entry+0xa2>
    2e7c:	4620      	mov	r0, r4
    2e7e:	4639      	mov	r1, r7
    2e80:	f7ff ff26 	bl	2cd0 <find_entry>
    2e84:	2800      	cmp	r0, #0
    2e86:	4604      	mov	r4, r0
    2e88:	4601      	mov	r1, r0
    2e8a:	db2b      	blt.n	2ee4 <update_arp_entry+0xa4>
    2e8c:	4e17      	ldr	r6, [pc, #92]	; (2eec <update_arp_entry+0xac>)
    2e8e:	2314      	movs	r3, #20
    2e90:	fb03 6300 	mla	r3, r3, r0, r6
    2e94:	2202      	movs	r2, #2
    2e96:	739a      	strb	r2, [r3, #14]
    2e98:	611d      	str	r5, [r3, #16]
    2e9a:	2306      	movs	r3, #6
    2e9c:	2214      	movs	r2, #20
    2e9e:	fb02 6204 	mla	r2, r2, r4, r6
    2ea2:	3b01      	subs	r3, #1
    2ea4:	b2db      	uxtb	r3, r3
    2ea6:	f818 0003 	ldrb.w	r0, [r8, r3]
    2eaa:	18d1      	adds	r1, r2, r3
    2eac:	7208      	strb	r0, [r1, #8]
    2eae:	2b00      	cmp	r3, #0
    2eb0:	d1f4      	bne.n	2e9c <update_arp_entry+0x5c>
    2eb2:	73d3      	strb	r3, [r2, #15]
    2eb4:	e00f      	b.n	2ed6 <update_arp_entry+0x96>
    2eb6:	680a      	ldr	r2, [r1, #0]
    2eb8:	684f      	ldr	r7, [r1, #4]
    2eba:	50f2      	str	r2, [r6, r3]
    2ebc:	2005      	movs	r0, #5
    2ebe:	f7ff fcad 	bl	281c <memp_free>
    2ec2:	4628      	mov	r0, r5
    2ec4:	4639      	mov	r1, r7
    2ec6:	f105 022b 	add.w	r2, r5, #43	; 0x2b
    2eca:	4643      	mov	r3, r8
    2ecc:	f7ff f968 	bl	21a0 <etharp_send_ip>
    2ed0:	4638      	mov	r0, r7
    2ed2:	f7ff fe76 	bl	2bc2 <pbuf_free>
    2ed6:	2314      	movs	r3, #20
    2ed8:	4363      	muls	r3, r4
    2eda:	58f1      	ldr	r1, [r6, r3]
    2edc:	2900      	cmp	r1, #0
    2ede:	d1ea      	bne.n	2eb6 <update_arp_entry+0x76>
    2ee0:	e000      	b.n	2ee4 <update_arp_entry+0xa4>
    2ee2:	21f6      	movs	r1, #246	; 0xf6
    2ee4:	b248      	sxtb	r0, r1
    2ee6:	e8bd 83f8 	ldmia.w	sp!, {r3, r4, r5, r6, r7, r8, r9, pc}
    2eea:	bf00      	nop
    2eec:	20003378 	.word	0x20003378

00002ef0 <etharp_ip_input>:
    2ef0:	b510      	push	{r4, lr}
    2ef2:	b170      	cbz	r0, 2f12 <etharp_ip_input+0x22>
    2ef4:	684a      	ldr	r2, [r1, #4]
    2ef6:	6843      	ldr	r3, [r0, #4]
    2ef8:	69d1      	ldr	r1, [r2, #28]
    2efa:	ea81 0303 	eor.w	r3, r1, r3
    2efe:	6881      	ldr	r1, [r0, #8]
    2f00:	400b      	ands	r3, r1
    2f02:	d106      	bne.n	2f12 <etharp_ip_input+0x22>
    2f04:	f102 011c 	add.w	r1, r2, #28
    2f08:	3208      	adds	r2, #8
    2f0a:	e8bd 4010 	ldmia.w	sp!, {r4, lr}
    2f0e:	f7ff bf97 	b.w	2e40 <update_arp_entry>
    2f12:	bd10      	pop	{r4, pc}

00002f14 <tcp_seg_free>:
    2f14:	b538      	push	{r3, r4, r5, lr}
    2f16:	4605      	mov	r5, r0
    2f18:	b148      	cbz	r0, 2f2e <tcp_seg_free+0x1a>
    2f1a:	6840      	ldr	r0, [r0, #4]
    2f1c:	b108      	cbz	r0, 2f22 <tcp_seg_free+0xe>
    2f1e:	f7ff fe50 	bl	2bc2 <pbuf_free>
    2f22:	4604      	mov	r4, r0
    2f24:	4629      	mov	r1, r5
    2f26:	2004      	movs	r0, #4
    2f28:	f7ff fc78 	bl	281c <memp_free>
    2f2c:	e000      	b.n	2f30 <tcp_seg_free+0x1c>
    2f2e:	4604      	mov	r4, r0
    2f30:	4620      	mov	r0, r4
    2f32:	bd38      	pop	{r3, r4, r5, pc}

00002f34 <tcp_segs_free>:
    2f34:	b538      	push	{r3, r4, r5, lr}
    2f36:	2400      	movs	r4, #0
    2f38:	e005      	b.n	2f46 <tcp_segs_free+0x12>
    2f3a:	6805      	ldr	r5, [r0, #0]
    2f3c:	f7ff ffea 	bl	2f14 <tcp_seg_free>
    2f40:	1904      	adds	r4, r0, r4
    2f42:	b2e4      	uxtb	r4, r4
    2f44:	4628      	mov	r0, r5
    2f46:	2800      	cmp	r0, #0
    2f48:	d1f7      	bne.n	2f3a <tcp_segs_free+0x6>
    2f4a:	4620      	mov	r0, r4
    2f4c:	bd38      	pop	{r3, r4, r5, pc}
	...

00002f50 <tcp_pcb_purge>:
    2f50:	b538      	push	{r3, r4, r5, lr}
    2f52:	7c03      	ldrb	r3, [r0, #16]
    2f54:	4604      	mov	r4, r0
    2f56:	2b0a      	cmp	r3, #10
    2f58:	d804      	bhi.n	2f64 <tcp_pcb_purge+0x14>
    2f5a:	f990 3010 	ldrsb.w	r3, [r0, #16]
    2f5e:	4a0e      	ldr	r2, [pc, #56]	; (2f98 <tcp_pcb_purge+0x48>)
    2f60:	409a      	lsls	r2, r3
    2f62:	d417      	bmi.n	2f94 <tcp_pcb_purge+0x44>
    2f64:	f8d4 0080 	ldr.w	r0, [r4, #128]	; 0x80
    2f68:	b120      	cbz	r0, 2f74 <tcp_pcb_purge+0x24>
    2f6a:	f7ff fe2a 	bl	2bc2 <pbuf_free>
    2f6e:	2300      	movs	r3, #0
    2f70:	f8c4 3080 	str.w	r3, [r4, #128]	; 0x80
    2f74:	f04f 33ff 	mov.w	r3, #4294967295
    2f78:	86e3      	strh	r3, [r4, #54]	; 0x36
    2f7a:	2500      	movs	r5, #0
    2f7c:	6fe0      	ldr	r0, [r4, #124]	; 0x7c
    2f7e:	f7ff ffd9 	bl	2f34 <tcp_segs_free>
    2f82:	67e5      	str	r5, [r4, #124]	; 0x7c
    2f84:	6f60      	ldr	r0, [r4, #116]	; 0x74
    2f86:	f7ff ffd5 	bl	2f34 <tcp_segs_free>
    2f8a:	6fa0      	ldr	r0, [r4, #120]	; 0x78
    2f8c:	f7ff ffd2 	bl	2f34 <tcp_segs_free>
    2f90:	6765      	str	r5, [r4, #116]	; 0x74
    2f92:	67a5      	str	r5, [r4, #120]	; 0x78
    2f94:	bd38      	pop	{r3, r4, r5, pc}
    2f96:	bf00      	nop
    2f98:	c0200000 	.word	0xc0200000

00002f9c <pbuf_realloc>:
    2f9c:	b538      	push	{r3, r4, r5, lr}
    2f9e:	8903      	ldrh	r3, [r0, #8]
    2fa0:	4299      	cmp	r1, r3
    2fa2:	d220      	bcs.n	2fe6 <pbuf_realloc+0x4a>
    2fa4:	1aca      	subs	r2, r1, r3
    2fa6:	460c      	mov	r4, r1
    2fa8:	4605      	mov	r5, r0
    2faa:	e005      	b.n	2fb8 <pbuf_realloc+0x1c>
    2fac:	1ae4      	subs	r4, r4, r3
    2fae:	892b      	ldrh	r3, [r5, #8]
    2fb0:	b2a4      	uxth	r4, r4
    2fb2:	18d3      	adds	r3, r2, r3
    2fb4:	812b      	strh	r3, [r5, #8]
    2fb6:	682d      	ldr	r5, [r5, #0]
    2fb8:	896b      	ldrh	r3, [r5, #10]
    2fba:	429c      	cmp	r4, r3
    2fbc:	d8f6      	bhi.n	2fac <pbuf_realloc+0x10>
    2fbe:	7b2a      	ldrb	r2, [r5, #12]
    2fc0:	b94a      	cbnz	r2, 2fd6 <pbuf_realloc+0x3a>
    2fc2:	429c      	cmp	r4, r3
    2fc4:	d007      	beq.n	2fd6 <pbuf_realloc+0x3a>
    2fc6:	6869      	ldr	r1, [r5, #4]
    2fc8:	4628      	mov	r0, r5
    2fca:	1861      	adds	r1, r4, r1
    2fcc:	1b49      	subs	r1, r1, r5
    2fce:	b289      	uxth	r1, r1
    2fd0:	f7ff fcf0 	bl	29b4 <mem_realloc>
    2fd4:	4605      	mov	r5, r0
    2fd6:	6828      	ldr	r0, [r5, #0]
    2fd8:	816c      	strh	r4, [r5, #10]
    2fda:	812c      	strh	r4, [r5, #8]
    2fdc:	b108      	cbz	r0, 2fe2 <pbuf_realloc+0x46>
    2fde:	f7ff fdf0 	bl	2bc2 <pbuf_free>
    2fe2:	2300      	movs	r3, #0
    2fe4:	602b      	str	r3, [r5, #0]
    2fe6:	bd38      	pop	{r3, r4, r5, pc}

00002fe8 <tcp_oos_insert_segment>:
    2fe8:	e92d 41f0 	stmdb	sp!, {r4, r5, r6, r7, r8, lr}
    2fec:	6903      	ldr	r3, [r0, #16]
    2fee:	4605      	mov	r5, r0
    2ff0:	8998      	ldrh	r0, [r3, #12]
    2ff2:	460c      	mov	r4, r1
    2ff4:	f7ff f911 	bl	221a <ntohs>
    2ff8:	f010 0f01 	tst.w	r0, #1
    2ffc:	d023      	beq.n	3046 <tcp_oos_insert_segment+0x5e>
    2ffe:	4620      	mov	r0, r4
    3000:	f7ff ff98 	bl	2f34 <tcp_segs_free>
    3004:	2400      	movs	r4, #0
    3006:	e030      	b.n	306a <tcp_oos_insert_segment+0x82>
    3008:	8980      	ldrh	r0, [r0, #12]
    300a:	f7ff f906 	bl	221a <ntohs>
    300e:	f010 0f01 	tst.w	r0, #1
    3012:	d013      	beq.n	303c <tcp_oos_insert_segment+0x54>
    3014:	f64f 70c0 	movw	r0, #65472	; 0xffc0
    3018:	f7ff f8bd 	bl	2196 <htons>
    301c:	692e      	ldr	r6, [r5, #16]
    301e:	4680      	mov	r8, r0
    3020:	89b7      	ldrh	r7, [r6, #12]
    3022:	4638      	mov	r0, r7
    3024:	f7ff f8f9 	bl	221a <ntohs>
    3028:	f000 003e 	and.w	r0, r0, #62	; 0x3e
    302c:	f040 0001 	orr.w	r0, r0, #1
    3030:	f7ff f8b1 	bl	2196 <htons>
    3034:	ea08 0707 	and.w	r7, r8, r7
    3038:	4338      	orrs	r0, r7
    303a:	81b0      	strh	r0, [r6, #12]
    303c:	4620      	mov	r0, r4
    303e:	6826      	ldr	r6, [r4, #0]
    3040:	f7ff ff68 	bl	2f14 <tcp_seg_free>
    3044:	4634      	mov	r4, r6
    3046:	b184      	cbz	r4, 306a <tcp_oos_insert_segment+0x82>
    3048:	4b0b      	ldr	r3, [pc, #44]	; (3078 <tcp_oos_insert_segment+0x90>)
    304a:	6920      	ldr	r0, [r4, #16]
    304c:	6819      	ldr	r1, [r3, #0]
    304e:	89aa      	ldrh	r2, [r5, #12]
    3050:	6843      	ldr	r3, [r0, #4]
    3052:	89a6      	ldrh	r6, [r4, #12]
    3054:	1852      	adds	r2, r2, r1
    3056:	18f6      	adds	r6, r6, r3
    3058:	42b2      	cmp	r2, r6
    305a:	dad5      	bge.n	3008 <tcp_oos_insert_segment+0x20>
    305c:	e008      	b.n	3070 <tcp_oos_insert_segment+0x88>
    305e:	1a59      	subs	r1, r3, r1
    3060:	b289      	uxth	r1, r1
    3062:	81a9      	strh	r1, [r5, #12]
    3064:	6868      	ldr	r0, [r5, #4]
    3066:	f7ff ff99 	bl	2f9c <pbuf_realloc>
    306a:	602c      	str	r4, [r5, #0]
    306c:	e8bd 81f0 	ldmia.w	sp!, {r4, r5, r6, r7, r8, pc}
    3070:	429a      	cmp	r2, r3
    3072:	ddfa      	ble.n	306a <tcp_oos_insert_segment+0x82>
    3074:	e7f3      	b.n	305e <tcp_oos_insert_segment+0x76>
    3076:	bf00      	nop
    3078:	2000322c 	.word	0x2000322c

0000307c <pbuf_alloc>:
    307c:	b5f8      	push	{r3, r4, r5, r6, r7, lr}
    307e:	460c      	mov	r4, r1
    3080:	4617      	mov	r7, r2
    3082:	2803      	cmp	r0, #3
    3084:	d87a      	bhi.n	317c <pbuf_alloc+0x100>
    3086:	e8df f000 	tbb	[pc, r0]
    308a:	0204      	.short	0x0204
    308c:	0b07      	.short	0x0b07
    308e:	2600      	movs	r6, #0
    3090:	e000      	b.n	3094 <pbuf_alloc+0x18>
    3092:	2614      	movs	r6, #20
    3094:	3614      	adds	r6, #20
    3096:	e000      	b.n	309a <pbuf_alloc+0x1e>
    3098:	2600      	movs	r6, #0
    309a:	3610      	adds	r6, #16
    309c:	b2b6      	uxth	r6, r6
    309e:	e000      	b.n	30a2 <pbuf_alloc+0x26>
    30a0:	2600      	movs	r6, #0
    30a2:	2f03      	cmp	r7, #3
    30a4:	d86a      	bhi.n	317c <pbuf_alloc+0x100>
    30a6:	e8df f007 	tbb	[pc, r7]
    30aa:	593e      	.short	0x593e
    30ac:	0259      	.short	0x0259
    30ae:	2007      	movs	r0, #7
    30b0:	f7ff fbe8 	bl	2884 <memp_malloc>
    30b4:	4605      	mov	r5, r0
    30b6:	2800      	cmp	r0, #0
    30b8:	d061      	beq.n	317e <pbuf_alloc+0x102>
    30ba:	2303      	movs	r3, #3
    30bc:	7303      	strb	r3, [r0, #12]
    30be:	3b03      	subs	r3, #3
    30c0:	6003      	str	r3, [r0, #0]
    30c2:	1983      	adds	r3, r0, r6
    30c4:	3313      	adds	r3, #19
    30c6:	f023 0303 	bic.w	r3, r3, #3
    30ca:	6043      	str	r3, [r0, #4]
    30cc:	1cf3      	adds	r3, r6, #3
    30ce:	f023 0303 	bic.w	r3, r3, #3
    30d2:	f5c3 7380 	rsb	r3, r3, #256	; 0x100
    30d6:	42a3      	cmp	r3, r4
    30d8:	bfa8      	it	ge
    30da:	4623      	movge	r3, r4
    30dc:	b29b      	uxth	r3, r3
    30de:	8104      	strh	r4, [r0, #8]
    30e0:	8143      	strh	r3, [r0, #10]
    30e2:	e019      	b.n	3118 <pbuf_alloc+0x9c>
    30e4:	2007      	movs	r0, #7
    30e6:	f7ff fbcd 	bl	2884 <memp_malloc>
    30ea:	4606      	mov	r6, r0
    30ec:	b920      	cbnz	r0, 30f8 <pbuf_alloc+0x7c>
    30ee:	4628      	mov	r0, r5
    30f0:	f7ff fd67 	bl	2bc2 <pbuf_free>
    30f4:	4635      	mov	r5, r6
    30f6:	e042      	b.n	317e <pbuf_alloc+0x102>
    30f8:	2303      	movs	r3, #3
    30fa:	7303      	strb	r3, [r0, #12]
    30fc:	3b03      	subs	r3, #3
    30fe:	6003      	str	r3, [r0, #0]
    3100:	7343      	strb	r3, [r0, #13]
    3102:	b2a3      	uxth	r3, r4
    3104:	8103      	strh	r3, [r0, #8]
    3106:	f100 0210 	add.w	r2, r0, #16
    310a:	2bff      	cmp	r3, #255	; 0xff
    310c:	bf88      	it	hi
    310e:	f44f 7380 	movhi.w	r3, #256	; 0x100
    3112:	6038      	str	r0, [r7, #0]
    3114:	8143      	strh	r3, [r0, #10]
    3116:	6042      	str	r2, [r0, #4]
    3118:	1ae4      	subs	r4, r4, r3
    311a:	2201      	movs	r2, #1
    311c:	2c00      	cmp	r4, #0
    311e:	81c2      	strh	r2, [r0, #14]
    3120:	4607      	mov	r7, r0
    3122:	dcdf      	bgt.n	30e4 <pbuf_alloc+0x68>
    3124:	e025      	b.n	3172 <pbuf_alloc+0xf6>
    3126:	f106 0213 	add.w	r2, r6, #19
    312a:	1ce3      	adds	r3, r4, #3
    312c:	f022 0203 	bic.w	r2, r2, #3
    3130:	f023 0303 	bic.w	r3, r3, #3
    3134:	18d3      	adds	r3, r2, r3
    3136:	f64f 70fc 	movw	r0, #65532	; 0xfffc
    313a:	ea03 0000 	and.w	r0, r3, r0
    313e:	f7fe fd7f 	bl	1c40 <mem_malloc>
    3142:	4605      	mov	r5, r0
    3144:	b1d8      	cbz	r0, 317e <pbuf_alloc+0x102>
    3146:	1986      	adds	r6, r0, r6
    3148:	3613      	adds	r6, #19
    314a:	2300      	movs	r3, #0
    314c:	f026 0603 	bic.w	r6, r6, #3
    3150:	6046      	str	r6, [r0, #4]
    3152:	8104      	strh	r4, [r0, #8]
    3154:	8144      	strh	r4, [r0, #10]
    3156:	6003      	str	r3, [r0, #0]
    3158:	7303      	strb	r3, [r0, #12]
    315a:	e00a      	b.n	3172 <pbuf_alloc+0xf6>
    315c:	2006      	movs	r0, #6
    315e:	f7ff fb91 	bl	2884 <memp_malloc>
    3162:	4605      	mov	r5, r0
    3164:	b158      	cbz	r0, 317e <pbuf_alloc+0x102>
    3166:	2300      	movs	r3, #0
    3168:	6043      	str	r3, [r0, #4]
    316a:	8104      	strh	r4, [r0, #8]
    316c:	8144      	strh	r4, [r0, #10]
    316e:	6003      	str	r3, [r0, #0]
    3170:	7307      	strb	r7, [r0, #12]
    3172:	2301      	movs	r3, #1
    3174:	81eb      	strh	r3, [r5, #14]
    3176:	2300      	movs	r3, #0
    3178:	736b      	strb	r3, [r5, #13]
    317a:	e000      	b.n	317e <pbuf_alloc+0x102>
    317c:	2500      	movs	r5, #0
    317e:	4628      	mov	r0, r5
    3180:	bdf8      	pop	{r3, r4, r5, r6, r7, pc}
	...

00003184 <stellarisif_receive.clone.5>:
    3184:	b5f8      	push	{r3, r4, r5, r6, r7, lr}
    3186:	4b1d      	ldr	r3, [pc, #116]	; (31fc <stellarisif_receive.clone.5+0x78>)
    3188:	6818      	ldr	r0, [r3, #0]
    318a:	f010 003f 	ands.w	r0, r0, #63	; 0x3f
    318e:	d033      	beq.n	31f8 <stellarisif_receive.clone.5+0x74>
    3190:	f853 4c24 	ldr.w	r4, [r3, #-36]
    3194:	2003      	movs	r0, #3
    3196:	b2a5      	uxth	r5, r4
    3198:	4629      	mov	r1, r5
    319a:	4602      	mov	r2, r0
    319c:	f7ff ff6e 	bl	307c <pbuf_alloc>
    31a0:	b908      	cbnz	r0, 31a6 <stellarisif_receive.clone.5+0x22>
    31a2:	2304      	movs	r3, #4
    31a4:	e01f      	b.n	31e6 <stellarisif_receive.clone.5+0x62>
    31a6:	6845      	ldr	r5, [r0, #4]
    31a8:	8941      	ldrh	r1, [r0, #10]
    31aa:	462b      	mov	r3, r5
    31ac:	f843 4b04 	str.w	r4, [r3], #4
    31b0:	6043      	str	r3, [r0, #4]
    31b2:	1f0b      	subs	r3, r1, #4
    31b4:	8143      	strh	r3, [r0, #10]
    31b6:	4603      	mov	r3, r0
    31b8:	685e      	ldr	r6, [r3, #4]
    31ba:	895c      	ldrh	r4, [r3, #10]
    31bc:	2200      	movs	r2, #0
    31be:	e003      	b.n	31c8 <stellarisif_receive.clone.5+0x44>
    31c0:	4f0f      	ldr	r7, [pc, #60]	; (3200 <stellarisif_receive.clone.5+0x7c>)
    31c2:	683f      	ldr	r7, [r7, #0]
    31c4:	50b7      	str	r7, [r6, r2]
    31c6:	3204      	adds	r2, #4
    31c8:	42a2      	cmp	r2, r4
    31ca:	dbf9      	blt.n	31c0 <stellarisif_receive.clone.5+0x3c>
    31cc:	681b      	ldr	r3, [r3, #0]
    31ce:	2b00      	cmp	r3, #0
    31d0:	d1f2      	bne.n	31b8 <stellarisif_receive.clone.5+0x34>
    31d2:	4b0c      	ldr	r3, [pc, #48]	; (3204 <stellarisif_receive.clone.5+0x80>)
    31d4:	6045      	str	r5, [r0, #4]
    31d6:	885a      	ldrh	r2, [r3, #2]
    31d8:	8141      	strh	r1, [r0, #10]
    31da:	3201      	adds	r2, #1
    31dc:	805a      	strh	r2, [r3, #2]
    31de:	bdf8      	pop	{r3, r4, r5, r6, r7, pc}
    31e0:	4a07      	ldr	r2, [pc, #28]	; (3200 <stellarisif_receive.clone.5+0x7c>)
    31e2:	3304      	adds	r3, #4
    31e4:	6812      	ldr	r2, [r2, #0]
    31e6:	42ab      	cmp	r3, r5
    31e8:	dbfa      	blt.n	31e0 <stellarisif_receive.clone.5+0x5c>
    31ea:	4b06      	ldr	r3, [pc, #24]	; (3204 <stellarisif_receive.clone.5+0x80>)
    31ec:	899a      	ldrh	r2, [r3, #12]
    31ee:	3201      	adds	r2, #1
    31f0:	819a      	strh	r2, [r3, #12]
    31f2:	88da      	ldrh	r2, [r3, #6]
    31f4:	3201      	adds	r2, #1
    31f6:	80da      	strh	r2, [r3, #6]
    31f8:	bdf8      	pop	{r3, r4, r5, r6, r7, pc}
    31fa:	bf00      	nop
    31fc:	40048034 	.word	0x40048034
    3200:	40048010 	.word	0x40048010
    3204:	20003244 	.word	0x20003244

00003208 <dhcp_create_request>:
    3208:	b5f8      	push	{r3, r4, r5, r6, r7, lr}
    320a:	4605      	mov	r5, r0
    320c:	2800      	cmp	r0, #0
    320e:	d075      	beq.n	32fc <dhcp_create_request+0xf4>
    3210:	6a04      	ldr	r4, [r0, #32]
    3212:	2c00      	cmp	r4, #0
    3214:	d074      	beq.n	3300 <dhcp_create_request+0xf8>
    3216:	2000      	movs	r0, #0
    3218:	f44f 719a 	mov.w	r1, #308	; 0x134
    321c:	4602      	mov	r2, r0
    321e:	f7ff ff2d 	bl	307c <pbuf_alloc>
    3222:	6160      	str	r0, [r4, #20]
    3224:	2800      	cmp	r0, #0
    3226:	d06d      	beq.n	3304 <dhcp_create_request+0xfc>
    3228:	7ce2      	ldrb	r2, [r4, #19]
    322a:	4b38      	ldr	r3, [pc, #224]	; (330c <dhcp_create_request+0x104>)
    322c:	b912      	cbnz	r2, 3234 <dhcp_create_request+0x2c>
    322e:	681a      	ldr	r2, [r3, #0]
    3230:	3201      	adds	r2, #1
    3232:	601a      	str	r2, [r3, #0]
    3234:	681b      	ldr	r3, [r3, #0]
    3236:	6842      	ldr	r2, [r0, #4]
    3238:	6023      	str	r3, [r4, #0]
    323a:	2301      	movs	r3, #1
    323c:	61a2      	str	r2, [r4, #24]
    323e:	7013      	strb	r3, [r2, #0]
    3240:	69a2      	ldr	r2, [r4, #24]
    3242:	2700      	movs	r7, #0
    3244:	7053      	strb	r3, [r2, #1]
    3246:	69a3      	ldr	r3, [r4, #24]
    3248:	2206      	movs	r2, #6
    324a:	709a      	strb	r2, [r3, #2]
    324c:	69a3      	ldr	r3, [r4, #24]
    324e:	70df      	strb	r7, [r3, #3]
    3250:	6820      	ldr	r0, [r4, #0]
    3252:	f7ff f857 	bl	2304 <htonl>
    3256:	69a6      	ldr	r6, [r4, #24]
    3258:	6070      	str	r0, [r6, #4]
    325a:	7237      	strb	r7, [r6, #8]
    325c:	7277      	strb	r7, [r6, #9]
    325e:	72b7      	strb	r7, [r6, #10]
    3260:	72f7      	strb	r7, [r6, #11]
    3262:	7337      	strb	r7, [r6, #12]
    3264:	7377      	strb	r7, [r6, #13]
    3266:	73b7      	strb	r7, [r6, #14]
    3268:	73f7      	strb	r7, [r6, #15]
    326a:	7ca3      	ldrb	r3, [r4, #18]
    326c:	2b0a      	cmp	r3, #10
    326e:	d807      	bhi.n	3280 <dhcp_create_request+0x78>
    3270:	f994 3012 	ldrsb.w	r3, [r4, #18]
    3274:	f04f 6242 	mov.w	r2, #203423744	; 0xc200000
    3278:	409a      	lsls	r2, r3
    327a:	bf44      	itt	mi
    327c:	686b      	ldrmi	r3, [r5, #4]
    327e:	60f3      	strmi	r3, [r6, #12]
    3280:	2300      	movs	r3, #0
    3282:	7433      	strb	r3, [r6, #16]
    3284:	7473      	strb	r3, [r6, #17]
    3286:	74b3      	strb	r3, [r6, #18]
    3288:	74f3      	strb	r3, [r6, #19]
    328a:	7533      	strb	r3, [r6, #20]
    328c:	7573      	strb	r3, [r6, #21]
    328e:	75b3      	strb	r3, [r6, #22]
    3290:	75f3      	strb	r3, [r6, #23]
    3292:	7633      	strb	r3, [r6, #24]
    3294:	7673      	strb	r3, [r6, #25]
    3296:	76b3      	strb	r3, [r6, #26]
    3298:	76f3      	strb	r3, [r6, #27]
    329a:	f895 002a 	ldrb.w	r0, [r5, #42]	; 0x2a
    329e:	b29a      	uxth	r2, r3
    32a0:	4290      	cmp	r0, r2
    32a2:	69a1      	ldr	r1, [r4, #24]
    32a4:	bf84      	itt	hi
    32a6:	18ea      	addhi	r2, r5, r3
    32a8:	f892 202b 	ldrbhi.w	r2, [r2, #43]	; 0x2b
    32ac:	4419      	add	r1, r3
    32ae:	bf98      	it	ls
    32b0:	2200      	movls	r2, #0
    32b2:	3301      	adds	r3, #1
    32b4:	2b10      	cmp	r3, #16
    32b6:	770a      	strb	r2, [r1, #28]
    32b8:	d1ef      	bne.n	329a <dhcp_create_request+0x92>
    32ba:	2200      	movs	r2, #0
    32bc:	69a1      	ldr	r1, [r4, #24]
    32be:	2300      	movs	r3, #0
    32c0:	1889      	adds	r1, r1, r2
    32c2:	3201      	adds	r2, #1
    32c4:	2a40      	cmp	r2, #64	; 0x40
    32c6:	f881 302c 	strb.w	r3, [r1, #44]	; 0x2c
    32ca:	d1f7      	bne.n	32bc <dhcp_create_request+0xb4>
    32cc:	69a2      	ldr	r2, [r4, #24]
    32ce:	2500      	movs	r5, #0
    32d0:	18d2      	adds	r2, r2, r3
    32d2:	3301      	adds	r3, #1
    32d4:	2b80      	cmp	r3, #128	; 0x80
    32d6:	f882 506c 	strb.w	r5, [r2, #108]	; 0x6c
    32da:	d1f7      	bne.n	32cc <dhcp_create_request+0xc4>
    32dc:	480c      	ldr	r0, [pc, #48]	; (3310 <dhcp_create_request+0x108>)
    32de:	f7ff f811 	bl	2304 <htonl>
    32e2:	69a3      	ldr	r3, [r4, #24]
    32e4:	f8c3 00ec 	str.w	r0, [r3, #236]	; 0xec
    32e8:	83a5      	strh	r5, [r4, #28]
    32ea:	69a3      	ldr	r3, [r4, #24]
    32ec:	195b      	adds	r3, r3, r5
    32ee:	f883 50f0 	strb.w	r5, [r3, #240]	; 0xf0
    32f2:	3501      	adds	r5, #1
    32f4:	2d44      	cmp	r5, #68	; 0x44
    32f6:	d1f8      	bne.n	32ea <dhcp_create_request+0xe2>
    32f8:	2000      	movs	r0, #0
    32fa:	e004      	b.n	3306 <dhcp_create_request+0xfe>
    32fc:	20f6      	movs	r0, #246	; 0xf6
    32fe:	e002      	b.n	3306 <dhcp_create_request+0xfe>
    3300:	20f7      	movs	r0, #247	; 0xf7
    3302:	e000      	b.n	3306 <dhcp_create_request+0xfe>
    3304:	20ff      	movs	r0, #255	; 0xff
    3306:	b240      	sxtb	r0, r0
    3308:	bdf8      	pop	{r3, r4, r5, r6, r7, pc}
    330a:	bf00      	nop
    330c:	20000100 	.word	0x20000100
    3310:	63825363 	.word	0x63825363

00003314 <etharp_raw>:
    3314:	e92d 4ff7 	stmdb	sp!, {r0, r1, r2, r4, r5, r6, r7, r8, r9, sl, fp, lr}
    3318:	4604      	mov	r4, r0
    331a:	460d      	mov	r5, r1
    331c:	4616      	mov	r6, r2
    331e:	2003      	movs	r0, #3
    3320:	212c      	movs	r1, #44	; 0x2c
    3322:	2200      	movs	r2, #0
    3324:	461f      	mov	r7, r3
    3326:	f8dd 8034 	ldr.w	r8, [sp, #52]	; 0x34
    332a:	f8bd 903c 	ldrh.w	r9, [sp, #60]	; 0x3c
    332e:	f7ff fea5 	bl	307c <pbuf_alloc>
    3332:	4682      	mov	sl, r0
    3334:	b928      	cbnz	r0, 3342 <etharp_raw+0x2e>
    3336:	4b2a      	ldr	r3, [pc, #168]	; (33e0 <etharp_raw+0xcc>)
    3338:	24ff      	movs	r4, #255	; 0xff
    333a:	8c9a      	ldrh	r2, [r3, #36]	; 0x24
    333c:	3201      	adds	r2, #1
    333e:	849a      	strh	r2, [r3, #36]	; 0x24
    3340:	e04a      	b.n	33d8 <etharp_raw+0xc4>
    3342:	6841      	ldr	r1, [r0, #4]
    3344:	4648      	mov	r0, r9
    3346:	f101 0b10 	add.w	fp, r1, #16
    334a:	9101      	str	r1, [sp, #4]
    334c:	f7fe ff23 	bl	2196 <htons>
    3350:	f8ab 0006 	strh.w	r0, [fp, #6]
    3354:	6a63      	ldr	r3, [r4, #36]	; 0x24
    3356:	b113      	cbz	r3, 335e <etharp_raw+0x4a>
    3358:	791b      	ldrb	r3, [r3, #4]
    335a:	b103      	cbz	r3, 335e <etharp_raw+0x4a>
    335c:	4e21      	ldr	r6, [pc, #132]	; (33e4 <etharp_raw+0xd0>)
    335e:	2306      	movs	r3, #6
    3360:	3b01      	subs	r3, #1
    3362:	b2db      	uxtb	r3, r3
    3364:	5cf9      	ldrb	r1, [r7, r3]
    3366:	eb0b 0203 	add.w	r2, fp, r3
    336a:	7211      	strb	r1, [r2, #8]
    336c:	f818 1003 	ldrb.w	r1, [r8, r3]
    3370:	7491      	strb	r1, [r2, #18]
    3372:	9901      	ldr	r1, [sp, #4]
    3374:	18ca      	adds	r2, r1, r3
    3376:	5cf1      	ldrb	r1, [r6, r3]
    3378:	7091      	strb	r1, [r2, #2]
    337a:	5ce9      	ldrb	r1, [r5, r3]
    337c:	7211      	strb	r1, [r2, #8]
    337e:	2b00      	cmp	r3, #0
    3380:	d1ee      	bne.n	3360 <etharp_raw+0x4c>
    3382:	9b0c      	ldr	r3, [sp, #48]	; 0x30
    3384:	2001      	movs	r0, #1
    3386:	681b      	ldr	r3, [r3, #0]
    3388:	f8cb 300e 	str.w	r3, [fp, #14]
    338c:	9b0e      	ldr	r3, [sp, #56]	; 0x38
    338e:	681b      	ldr	r3, [r3, #0]
    3390:	f8cb 3018 	str.w	r3, [fp, #24]
    3394:	f7fe feff 	bl	2196 <htons>
    3398:	9b01      	ldr	r3, [sp, #4]
    339a:	8218      	strh	r0, [r3, #16]
    339c:	f44f 6000 	mov.w	r0, #2048	; 0x800
    33a0:	f7fe fef9 	bl	2196 <htons>
    33a4:	f8ab 0002 	strh.w	r0, [fp, #2]
    33a8:	f240 6004 	movw	r0, #1540	; 0x604
    33ac:	f7fe fef3 	bl	2196 <htons>
    33b0:	f8ab 0004 	strh.w	r0, [fp, #4]
    33b4:	f640 0006 	movw	r0, #2054	; 0x806
    33b8:	f7fe feed 	bl	2196 <htons>
    33bc:	9901      	ldr	r1, [sp, #4]
    33be:	81c8      	strh	r0, [r1, #14]
    33c0:	69a3      	ldr	r3, [r4, #24]
    33c2:	4620      	mov	r0, r4
    33c4:	4651      	mov	r1, sl
    33c6:	4798      	blx	r3
    33c8:	4b05      	ldr	r3, [pc, #20]	; (33e0 <etharp_raw+0xcc>)
    33ca:	4604      	mov	r4, r0
    33cc:	8b1a      	ldrh	r2, [r3, #24]
    33ce:	4650      	mov	r0, sl
    33d0:	3201      	adds	r2, #1
    33d2:	831a      	strh	r2, [r3, #24]
    33d4:	f7ff fbf5 	bl	2bc2 <pbuf_free>
    33d8:	b260      	sxtb	r0, r4
    33da:	e8bd 8ffe 	ldmia.w	sp!, {r1, r2, r3, r4, r5, r6, r7, r8, r9, sl, fp, pc}
    33de:	bf00      	nop
    33e0:	20003244 	.word	0x20003244
    33e4:	0000a636 	.word	0x0000a636

000033e8 <etharp_request>:
    33e8:	b51f      	push	{r0, r1, r2, r3, r4, lr}
    33ea:	1d03      	adds	r3, r0, #4
    33ec:	9300      	str	r3, [sp, #0]
    33ee:	4b07      	ldr	r3, [pc, #28]	; (340c <etharp_request+0x24>)
    33f0:	f100 022b 	add.w	r2, r0, #43	; 0x2b
    33f4:	9301      	str	r3, [sp, #4]
    33f6:	9102      	str	r1, [sp, #8]
    33f8:	2301      	movs	r3, #1
    33fa:	4611      	mov	r1, r2
    33fc:	9303      	str	r3, [sp, #12]
    33fe:	4a04      	ldr	r2, [pc, #16]	; (3410 <etharp_request+0x28>)
    3400:	460b      	mov	r3, r1
    3402:	f7ff ff87 	bl	3314 <etharp_raw>
    3406:	b005      	add	sp, #20
    3408:	bd00      	pop	{pc}
    340a:	bf00      	nop
    340c:	0000a5fc 	.word	0x0000a5fc
    3410:	0000a636 	.word	0x0000a636

00003414 <netif_set_up>:
    3414:	f890 3031 	ldrb.w	r3, [r0, #49]	; 0x31
    3418:	f013 0f01 	tst.w	r3, #1
    341c:	d109      	bne.n	3432 <netif_set_up+0x1e>
    341e:	f043 0301 	orr.w	r3, r3, #1
    3422:	f013 0f20 	tst.w	r3, #32
    3426:	f880 3031 	strb.w	r3, [r0, #49]	; 0x31
    342a:	d002      	beq.n	3432 <netif_set_up+0x1e>
    342c:	1d01      	adds	r1, r0, #4
    342e:	f7ff bfdb 	b.w	33e8 <etharp_request>
    3432:	4770      	bx	lr

00003434 <autoip_arp_announce>:
    3434:	b51f      	push	{r0, r1, r2, r3, r4, lr}
    3436:	6a43      	ldr	r3, [r0, #36]	; 0x24
    3438:	4a06      	ldr	r2, [pc, #24]	; (3454 <autoip_arp_announce+0x20>)
    343a:	f100 012b 	add.w	r1, r0, #43	; 0x2b
    343e:	9300      	str	r3, [sp, #0]
    3440:	9302      	str	r3, [sp, #8]
    3442:	2301      	movs	r3, #1
    3444:	9201      	str	r2, [sp, #4]
    3446:	9303      	str	r3, [sp, #12]
    3448:	4a03      	ldr	r2, [pc, #12]	; (3458 <autoip_arp_announce+0x24>)
    344a:	460b      	mov	r3, r1
    344c:	f7ff ff62 	bl	3314 <etharp_raw>
    3450:	b005      	add	sp, #20
    3452:	bd00      	pop	{pc}
    3454:	0000a5fc 	.word	0x0000a5fc
    3458:	0000a636 	.word	0x0000a636

0000345c <autoip_arp_reply>:
    345c:	b573      	push	{r0, r1, r4, r5, r6, lr}
    345e:	6a45      	ldr	r5, [r0, #36]	; 0x24
    3460:	4604      	mov	r4, r0
    3462:	2d00      	cmp	r5, #0
    3464:	d043      	beq.n	34ee <autoip_arp_reply+0x92>
    3466:	792b      	ldrb	r3, [r5, #4]
    3468:	2b00      	cmp	r3, #0
    346a:	d040      	beq.n	34ee <autoip_arp_reply+0x92>
    346c:	f890 302b 	ldrb.w	r3, [r0, #43]	; 0x2b
    3470:	f88d 3000 	strb.w	r3, [sp]
    3474:	f890 302c 	ldrb.w	r3, [r0, #44]	; 0x2c
    3478:	f88d 3001 	strb.w	r3, [sp, #1]
    347c:	f890 302d 	ldrb.w	r3, [r0, #45]	; 0x2d
    3480:	f88d 3002 	strb.w	r3, [sp, #2]
    3484:	f890 302e 	ldrb.w	r3, [r0, #46]	; 0x2e
    3488:	f88d 3003 	strb.w	r3, [sp, #3]
    348c:	f890 302f 	ldrb.w	r3, [r0, #47]	; 0x2f
    3490:	f88d 3004 	strb.w	r3, [sp, #4]
    3494:	f890 3030 	ldrb.w	r3, [r0, #48]	; 0x30
    3498:	f88d 3005 	strb.w	r3, [sp, #5]
    349c:	792b      	ldrb	r3, [r5, #4]
    349e:	f8d1 200e 	ldr.w	r2, [r1, #14]
    34a2:	2b01      	cmp	r3, #1
    34a4:	6988      	ldr	r0, [r1, #24]
    34a6:	682b      	ldr	r3, [r5, #0]
    34a8:	d002      	beq.n	34b0 <autoip_arp_reply+0x54>
    34aa:	88ae      	ldrh	r6, [r5, #4]
    34ac:	2e02      	cmp	r6, #2
    34ae:	d10a      	bne.n	34c6 <autoip_arp_reply+0x6a>
    34b0:	429a      	cmp	r2, r3
    34b2:	d012      	beq.n	34da <autoip_arp_reply+0x7e>
    34b4:	4298      	cmp	r0, r3
    34b6:	d11a      	bne.n	34ee <autoip_arp_reply+0x92>
    34b8:	4668      	mov	r0, sp
    34ba:	3108      	adds	r1, #8
    34bc:	2206      	movs	r2, #6
    34be:	f004 fb9f 	bl	7c00 <memcmp>
    34c2:	b1a0      	cbz	r0, 34ee <autoip_arp_reply+0x92>
    34c4:	e009      	b.n	34da <autoip_arp_reply+0x7e>
    34c6:	429a      	cmp	r2, r3
    34c8:	d111      	bne.n	34ee <autoip_arp_reply+0x92>
    34ca:	4668      	mov	r0, sp
    34cc:	3108      	adds	r1, #8
    34ce:	2206      	movs	r2, #6
    34d0:	f004 fb96 	bl	7c00 <memcmp>
    34d4:	b158      	cbz	r0, 34ee <autoip_arp_reply+0x92>
    34d6:	7a2b      	ldrb	r3, [r5, #8]
    34d8:	b11b      	cbz	r3, 34e2 <autoip_arp_reply+0x86>
    34da:	4620      	mov	r0, r4
    34dc:	f7fe ff54 	bl	2388 <autoip_start>
    34e0:	e005      	b.n	34ee <autoip_arp_reply+0x92>
    34e2:	4620      	mov	r0, r4
    34e4:	f7ff ffa6 	bl	3434 <autoip_arp_announce>
    34e8:	6a63      	ldr	r3, [r4, #36]	; 0x24
    34ea:	2264      	movs	r2, #100	; 0x64
    34ec:	721a      	strb	r2, [r3, #8]
    34ee:	bd7c      	pop	{r2, r3, r4, r5, r6, pc}

000034f0 <etharp_query>:
    34f0:	e92d 41f0 	stmdb	sp!, {r4, r5, r6, r7, r8, lr}
    34f4:	4680      	mov	r8, r0
    34f6:	460e      	mov	r6, r1
    34f8:	4608      	mov	r0, r1
    34fa:	4641      	mov	r1, r8
    34fc:	4615      	mov	r5, r2
    34fe:	f7ff f939 	bl	2774 <ip_addr_isbroadcast>
    3502:	2800      	cmp	r0, #0
    3504:	d17a      	bne.n	35fc <etharp_query+0x10c>
    3506:	f04f 4070 	mov.w	r0, #4026531840	; 0xf0000000
    350a:	f7fe ff3a 	bl	2382 <ntohl>
    350e:	4607      	mov	r7, r0
    3510:	f04f 4060 	mov.w	r0, #3758096384	; 0xe0000000
    3514:	f7fe ff35 	bl	2382 <ntohl>
    3518:	6834      	ldr	r4, [r6, #0]
    351a:	ea07 0304 	and.w	r3, r7, r4
    351e:	4283      	cmp	r3, r0
    3520:	d06c      	beq.n	35fc <etharp_query+0x10c>
    3522:	2c00      	cmp	r4, #0
    3524:	d06a      	beq.n	35fc <etharp_query+0x10c>
    3526:	2101      	movs	r1, #1
    3528:	4630      	mov	r0, r6
    352a:	f7ff fbd1 	bl	2cd0 <find_entry>
    352e:	1e04      	subs	r4, r0, #0
    3530:	da06      	bge.n	3540 <etharp_query+0x50>
    3532:	2d00      	cmp	r5, #0
    3534:	d067      	beq.n	3606 <etharp_query+0x116>
    3536:	4b3a      	ldr	r3, [pc, #232]	; (3620 <etharp_query+0x130>)
    3538:	8c9a      	ldrh	r2, [r3, #36]	; 0x24
    353a:	3201      	adds	r2, #1
    353c:	849a      	strh	r2, [r3, #36]	; 0x24
    353e:	e062      	b.n	3606 <etharp_query+0x116>
    3540:	4f38      	ldr	r7, [pc, #224]	; (3624 <etharp_query+0x134>)
    3542:	2214      	movs	r2, #20
    3544:	fb02 7304 	mla	r3, r2, r4, r7
    3548:	7b99      	ldrb	r1, [r3, #14]
    354a:	3308      	adds	r3, #8
    354c:	b909      	cbnz	r1, 3552 <etharp_query+0x62>
    354e:	3101      	adds	r1, #1
    3550:	7199      	strb	r1, [r3, #6]
    3552:	fb02 7204 	mla	r2, r2, r4, r7
    3556:	7b93      	ldrb	r3, [r2, #14]
    3558:	2b01      	cmp	r3, #1
    355a:	d000      	beq.n	355e <etharp_query+0x6e>
    355c:	b93d      	cbnz	r5, 356e <etharp_query+0x7e>
    355e:	4631      	mov	r1, r6
    3560:	4640      	mov	r0, r8
    3562:	f7ff ff41 	bl	33e8 <etharp_request>
    3566:	4606      	mov	r6, r0
    3568:	2d00      	cmp	r5, #0
    356a:	d049      	beq.n	3600 <etharp_query+0x110>
    356c:	e000      	b.n	3570 <etharp_query+0x80>
    356e:	26ff      	movs	r6, #255	; 0xff
    3570:	2314      	movs	r3, #20
    3572:	4363      	muls	r3, r4
    3574:	18fa      	adds	r2, r7, r3
    3576:	7b92      	ldrb	r2, [r2, #14]
    3578:	2a02      	cmp	r2, #2
    357a:	d10a      	bne.n	3592 <etharp_query+0xa2>
    357c:	4c29      	ldr	r4, [pc, #164]	; (3624 <etharp_query+0x134>)
    357e:	3308      	adds	r3, #8
    3580:	4640      	mov	r0, r8
    3582:	4629      	mov	r1, r5
    3584:	f108 022b 	add.w	r2, r8, #43	; 0x2b
    3588:	18e3      	adds	r3, r4, r3
    358a:	e8bd 41f0 	ldmia.w	sp!, {r4, r5, r6, r7, r8, lr}
    358e:	f7fe be07 	b.w	21a0 <etharp_send_ip>
    3592:	2a01      	cmp	r2, #1
    3594:	d136      	bne.n	3604 <etharp_query+0x114>
    3596:	462b      	mov	r3, r5
    3598:	7b1a      	ldrb	r2, [r3, #12]
    359a:	2a01      	cmp	r2, #1
    359c:	d103      	bne.n	35a6 <etharp_query+0xb6>
    359e:	681b      	ldr	r3, [r3, #0]
    35a0:	2b00      	cmp	r3, #0
    35a2:	d1f9      	bne.n	3598 <etharp_query+0xa8>
    35a4:	e032      	b.n	360c <etharp_query+0x11c>
    35a6:	2003      	movs	r0, #3
    35a8:	8919      	ldrh	r1, [r3, #8]
    35aa:	2200      	movs	r2, #0
    35ac:	f7ff fd66 	bl	307c <pbuf_alloc>
    35b0:	4680      	mov	r8, r0
    35b2:	2800      	cmp	r0, #0
    35b4:	d02f      	beq.n	3616 <etharp_query+0x126>
    35b6:	4629      	mov	r1, r5
    35b8:	f7fe fc75 	bl	1ea6 <pbuf_copy>
    35bc:	b118      	cbz	r0, 35c6 <etharp_query+0xd6>
    35be:	4640      	mov	r0, r8
    35c0:	f7ff faff 	bl	2bc2 <pbuf_free>
    35c4:	e027      	b.n	3616 <etharp_query+0x126>
    35c6:	2005      	movs	r0, #5
    35c8:	f7ff f95c 	bl	2884 <memp_malloc>
    35cc:	b190      	cbz	r0, 35f4 <etharp_query+0x104>
    35ce:	2300      	movs	r3, #0
    35d0:	6003      	str	r3, [r0, #0]
    35d2:	3314      	adds	r3, #20
    35d4:	435c      	muls	r4, r3
    35d6:	593b      	ldr	r3, [r7, r4]
    35d8:	f8c0 8004 	str.w	r8, [r0, #4]
    35dc:	b90b      	cbnz	r3, 35e2 <etharp_query+0xf2>
    35de:	e005      	b.n	35ec <etharp_query+0xfc>
    35e0:	4623      	mov	r3, r4
    35e2:	681c      	ldr	r4, [r3, #0]
    35e4:	2c00      	cmp	r4, #0
    35e6:	d1fb      	bne.n	35e0 <etharp_query+0xf0>
    35e8:	6018      	str	r0, [r3, #0]
    35ea:	e00c      	b.n	3606 <etharp_query+0x116>
    35ec:	4a0d      	ldr	r2, [pc, #52]	; (3624 <etharp_query+0x134>)
    35ee:	5110      	str	r0, [r2, r4]
    35f0:	461c      	mov	r4, r3
    35f2:	e008      	b.n	3606 <etharp_query+0x116>
    35f4:	4640      	mov	r0, r8
    35f6:	f7ff fae4 	bl	2bc2 <pbuf_free>
    35fa:	e003      	b.n	3604 <etharp_query+0x114>
    35fc:	24f6      	movs	r4, #246	; 0xf6
    35fe:	e002      	b.n	3606 <etharp_query+0x116>
    3600:	4604      	mov	r4, r0
    3602:	e000      	b.n	3606 <etharp_query+0x116>
    3604:	4634      	mov	r4, r6
    3606:	b260      	sxtb	r0, r4
    3608:	e8bd 81f0 	ldmia.w	sp!, {r4, r5, r6, r7, r8, pc}
    360c:	4628      	mov	r0, r5
    360e:	f7ff f8ef 	bl	27f0 <pbuf_ref>
    3612:	46a8      	mov	r8, r5
    3614:	e7d7      	b.n	35c6 <etharp_query+0xd6>
    3616:	4b02      	ldr	r3, [pc, #8]	; (3620 <etharp_query+0x130>)
    3618:	8c9a      	ldrh	r2, [r3, #36]	; 0x24
    361a:	3201      	adds	r2, #1
    361c:	849a      	strh	r2, [r3, #36]	; 0x24
    361e:	e7f1      	b.n	3604 <etharp_query+0x114>
    3620:	20003244 	.word	0x20003244
    3624:	20003378 	.word	0x20003378

00003628 <etharp_output>:
    3628:	e92d 43f7 	stmdb	sp!, {r0, r1, r2, r4, r5, r6, r7, r8, r9, lr}
    362c:	4604      	mov	r4, r0
    362e:	460d      	mov	r5, r1
    3630:	4608      	mov	r0, r1
    3632:	2110      	movs	r1, #16
    3634:	4616      	mov	r6, r2
    3636:	f7fe fbe8 	bl	1e0a <pbuf_header>
    363a:	b128      	cbz	r0, 3648 <etharp_output+0x20>
    363c:	4b26      	ldr	r3, [pc, #152]	; (36d8 <etharp_output+0xb0>)
    363e:	20fe      	movs	r0, #254	; 0xfe
    3640:	895a      	ldrh	r2, [r3, #10]
    3642:	3201      	adds	r2, #1
    3644:	815a      	strh	r2, [r3, #10]
    3646:	e043      	b.n	36d0 <etharp_output+0xa8>
    3648:	4630      	mov	r0, r6
    364a:	4621      	mov	r1, r4
    364c:	f7ff f892 	bl	2774 <ip_addr_isbroadcast>
    3650:	4680      	mov	r8, r0
    3652:	2800      	cmp	r0, #0
    3654:	d133      	bne.n	36be <etharp_output+0x96>
    3656:	f04f 4070 	mov.w	r0, #4026531840	; 0xf0000000
    365a:	f7fe fe92 	bl	2382 <ntohl>
    365e:	4681      	mov	r9, r0
    3660:	f04f 4060 	mov.w	r0, #3758096384	; 0xe0000000
    3664:	f7fe fe8d 	bl	2382 <ntohl>
    3668:	6837      	ldr	r7, [r6, #0]
    366a:	ea09 0307 	and.w	r3, r9, r7
    366e:	4283      	cmp	r3, r0
    3670:	d116      	bne.n	36a0 <etharp_output+0x78>
    3672:	2301      	movs	r3, #1
    3674:	f88d 3000 	strb.w	r3, [sp]
    3678:	4638      	mov	r0, r7
    367a:	335d      	adds	r3, #93	; 0x5d
    367c:	f88d 3002 	strb.w	r3, [sp, #2]
    3680:	f88d 8001 	strb.w	r8, [sp, #1]
    3684:	f7fe fe7d 	bl	2382 <ntohl>
    3688:	0c03      	lsrs	r3, r0, #16
    368a:	f003 037f 	and.w	r3, r3, #127	; 0x7f
    368e:	f88d 3003 	strb.w	r3, [sp, #3]
    3692:	0a03      	lsrs	r3, r0, #8
    3694:	f88d 3004 	strb.w	r3, [sp, #4]
    3698:	f88d 0005 	strb.w	r0, [sp, #5]
    369c:	466b      	mov	r3, sp
    369e:	e00f      	b.n	36c0 <etharp_output+0x98>
    36a0:	6863      	ldr	r3, [r4, #4]
    36a2:	405f      	eors	r7, r3
    36a4:	68a3      	ldr	r3, [r4, #8]
    36a6:	421f      	tst	r7, r3
    36a8:	d003      	beq.n	36b2 <etharp_output+0x8a>
    36aa:	68e3      	ldr	r3, [r4, #12]
    36ac:	b17b      	cbz	r3, 36ce <etharp_output+0xa6>
    36ae:	f104 060c 	add.w	r6, r4, #12
    36b2:	4620      	mov	r0, r4
    36b4:	4631      	mov	r1, r6
    36b6:	462a      	mov	r2, r5
    36b8:	f7ff ff1a 	bl	34f0 <etharp_query>
    36bc:	e008      	b.n	36d0 <etharp_output+0xa8>
    36be:	4b07      	ldr	r3, [pc, #28]	; (36dc <etharp_output+0xb4>)
    36c0:	4620      	mov	r0, r4
    36c2:	4629      	mov	r1, r5
    36c4:	f104 022b 	add.w	r2, r4, #43	; 0x2b
    36c8:	f7fe fd6a 	bl	21a0 <etharp_send_ip>
    36cc:	e000      	b.n	36d0 <etharp_output+0xa8>
    36ce:	20fc      	movs	r0, #252	; 0xfc
    36d0:	b240      	sxtb	r0, r0
    36d2:	e8bd 83fe 	ldmia.w	sp!, {r1, r2, r3, r4, r5, r6, r7, r8, r9, pc}
    36d6:	bf00      	nop
    36d8:	20003244 	.word	0x20003244
    36dc:	0000a636 	.word	0x0000a636

000036e0 <dhcp_check>:
    36e0:	b538      	push	{r3, r4, r5, lr}
    36e2:	6a04      	ldr	r4, [r0, #32]
    36e4:	4605      	mov	r5, r0
    36e6:	2108      	movs	r1, #8
    36e8:	4620      	mov	r0, r4
    36ea:	f7fe f925 	bl	1938 <dhcp_set_state>
    36ee:	4628      	mov	r0, r5
    36f0:	f104 0128 	add.w	r1, r4, #40	; 0x28
    36f4:	2200      	movs	r2, #0
    36f6:	f7ff fefb 	bl	34f0 <etharp_query>
    36fa:	7ce3      	ldrb	r3, [r4, #19]
    36fc:	3301      	adds	r3, #1
    36fe:	74e3      	strb	r3, [r4, #19]
    3700:	2301      	movs	r3, #1
    3702:	83e3      	strh	r3, [r4, #30]
    3704:	bd38      	pop	{r3, r4, r5, pc}
	...

00003708 <icmp_input>:
    3708:	e92d 4ff0 	stmdb	sp!, {r4, r5, r6, r7, r8, r9, sl, fp, lr}
    370c:	f8df 9200 	ldr.w	r9, [pc, #512]	; 3910 <icmp_input+0x208>
    3710:	f8d0 8004 	ldr.w	r8, [r0, #4]
    3714:	f8b9 304a 	ldrh.w	r3, [r9, #74]	; 0x4a
    3718:	b089      	sub	sp, #36	; 0x24
    371a:	3301      	adds	r3, #1
    371c:	f8a9 304a 	strh.w	r3, [r9, #74]	; 0x4a
    3720:	4604      	mov	r4, r0
    3722:	f8b8 0000 	ldrh.w	r0, [r8]
    3726:	460e      	mov	r6, r1
    3728:	f7fe fd77 	bl	221a <ntohs>
    372c:	0980      	lsrs	r0, r0, #6
    372e:	f000 0a3c 	and.w	sl, r0, #60	; 0x3c
    3732:	f1ca 0700 	rsb	r7, sl, #0
    3736:	4620      	mov	r0, r4
    3738:	b239      	sxth	r1, r7
    373a:	f7fe fb66 	bl	1e0a <pbuf_header>
    373e:	464d      	mov	r5, r9
    3740:	2800      	cmp	r0, #0
    3742:	f040 80d0 	bne.w	38e6 <icmp_input+0x1de>
    3746:	f8b4 b008 	ldrh.w	fp, [r4, #8]
    374a:	f1bb 0f03 	cmp.w	fp, #3
    374e:	f240 80ca 	bls.w	38e6 <icmp_input+0x1de>
    3752:	6863      	ldr	r3, [r4, #4]
    3754:	781b      	ldrb	r3, [r3, #0]
    3756:	2b08      	cmp	r3, #8
    3758:	f040 80b5 	bne.w	38c6 <icmp_input+0x1be>
    375c:	4642      	mov	r2, r8
    375e:	f852 cf10 	ldr.w	ip, [r2, #16]!
    3762:	f04f 4070 	mov.w	r0, #4026531840	; 0xf0000000
    3766:	f8cd c010 	str.w	ip, [sp, #16]
    376a:	9206      	str	r2, [sp, #24]
    376c:	f7fe fe09 	bl	2382 <ntohl>
    3770:	4603      	mov	r3, r0
    3772:	f04f 4060 	mov.w	r0, #3758096384	; 0xe0000000
    3776:	9305      	str	r3, [sp, #20]
    3778:	f7fe fe03 	bl	2382 <ntohl>
    377c:	9a06      	ldr	r2, [sp, #24]
    377e:	9007      	str	r0, [sp, #28]
    3780:	4631      	mov	r1, r6
    3782:	4610      	mov	r0, r2
    3784:	f7fe fff6 	bl	2774 <ip_addr_isbroadcast>
    3788:	9b05      	ldr	r3, [sp, #20]
    378a:	f8dd c010 	ldr.w	ip, [sp, #16]
    378e:	b920      	cbnz	r0, 379a <icmp_input+0x92>
    3790:	9a07      	ldr	r2, [sp, #28]
    3792:	ea03 030c 	and.w	r3, r3, ip
    3796:	4293      	cmp	r3, r2
    3798:	d105      	bne.n	37a6 <icmp_input+0x9e>
    379a:	f8b5 305c 	ldrh.w	r3, [r5, #92]	; 0x5c
    379e:	3301      	adds	r3, #1
    37a0:	f8a5 305c 	strh.w	r3, [r5, #92]	; 0x5c
    37a4:	e099      	b.n	38da <icmp_input+0x1d2>
    37a6:	f1bb 0f07 	cmp.w	fp, #7
    37aa:	f240 809c 	bls.w	38e6 <icmp_input+0x1de>
    37ae:	4620      	mov	r0, r4
    37b0:	f7fe fee0 	bl	2574 <inet_chksum_pbuf>
    37b4:	b140      	cbz	r0, 37c8 <icmp_input+0xc0>
    37b6:	4620      	mov	r0, r4
    37b8:	f7ff fa03 	bl	2bc2 <pbuf_free>
    37bc:	f8b9 3050 	ldrh.w	r3, [r9, #80]	; 0x50
    37c0:	3301      	adds	r3, #1
    37c2:	f8a9 3050 	strh.w	r3, [r9, #80]	; 0x50
    37c6:	e09f      	b.n	3908 <icmp_input+0x200>
    37c8:	4620      	mov	r0, r4
    37ca:	2124      	movs	r1, #36	; 0x24
    37cc:	fa1f fa8a 	uxth.w	sl, sl
    37d0:	f7fe fb1b 	bl	1e0a <pbuf_header>
    37d4:	b308      	cbz	r0, 381a <icmp_input+0x112>
    37d6:	4620      	mov	r0, r4
    37d8:	4651      	mov	r1, sl
    37da:	f7fe fb16 	bl	1e0a <pbuf_header>
    37de:	4602      	mov	r2, r0
    37e0:	2800      	cmp	r0, #0
    37e2:	f040 8089 	bne.w	38f8 <icmp_input+0x1f0>
    37e6:	2002      	movs	r0, #2
    37e8:	8921      	ldrh	r1, [r4, #8]
    37ea:	f7ff fc47 	bl	307c <pbuf_alloc>
    37ee:	4681      	mov	r9, r0
    37f0:	2800      	cmp	r0, #0
    37f2:	f000 8081 	beq.w	38f8 <icmp_input+0x1f0>
    37f6:	4621      	mov	r1, r4
    37f8:	f7fe fb55 	bl	1ea6 <pbuf_copy>
    37fc:	2800      	cmp	r0, #0
    37fe:	d17b      	bne.n	38f8 <icmp_input+0x1f0>
    3800:	4648      	mov	r0, r9
    3802:	b239      	sxth	r1, r7
    3804:	f8d9 8004 	ldr.w	r8, [r9, #4]
    3808:	f7fe faff 	bl	1e0a <pbuf_header>
    380c:	2800      	cmp	r0, #0
    380e:	d173      	bne.n	38f8 <icmp_input+0x1f0>
    3810:	4620      	mov	r0, r4
    3812:	f7ff f9d6 	bl	2bc2 <pbuf_free>
    3816:	464c      	mov	r4, r9
    3818:	e006      	b.n	3828 <icmp_input+0x120>
    381a:	4620      	mov	r0, r4
    381c:	f06f 0123 	mvn.w	r1, #35	; 0x23
    3820:	f7fe faf3 	bl	1e0a <pbuf_header>
    3824:	2800      	cmp	r0, #0
    3826:	d167      	bne.n	38f8 <icmp_input+0x1f0>
    3828:	f8d8 300c 	ldr.w	r3, [r8, #12]
    382c:	6867      	ldr	r7, [r4, #4]
    382e:	f8d8 2010 	ldr.w	r2, [r8, #16]
    3832:	f8c8 3010 	str.w	r3, [r8, #16]
    3836:	2300      	movs	r3, #0
    3838:	f8c8 200c 	str.w	r2, [r8, #12]
    383c:	f24f 70ff 	movw	r0, #63487	; 0xf7ff
    3840:	703b      	strb	r3, [r7, #0]
    3842:	f7fe fca8 	bl	2196 <htons>
    3846:	f8b7 9002 	ldrh.w	r9, [r7, #2]
    384a:	4581      	cmp	r9, r0
    384c:	d309      	bcc.n	3862 <icmp_input+0x15a>
    384e:	f44f 6000 	mov.w	r0, #2048	; 0x800
    3852:	f7fe fca0 	bl	2196 <htons>
    3856:	f109 0901 	add.w	r9, r9, #1
    385a:	4481      	add	r9, r0
    385c:	f8a7 9002 	strh.w	r9, [r7, #2]
    3860:	e005      	b.n	386e <icmp_input+0x166>
    3862:	f44f 6000 	mov.w	r0, #2048	; 0x800
    3866:	f7fe fc96 	bl	2196 <htons>
    386a:	4448      	add	r0, r9
    386c:	8078      	strh	r0, [r7, #2]
    386e:	f8b8 0008 	ldrh.w	r0, [r8, #8]
    3872:	f7fe fcd2 	bl	221a <ntohs>
    3876:	f060 00ff 	orn	r0, r0, #255	; 0xff
    387a:	b280      	uxth	r0, r0
    387c:	f7fe fc8b 	bl	2196 <htons>
    3880:	2300      	movs	r3, #0
    3882:	f8a8 0008 	strh.w	r0, [r8, #8]
    3886:	f888 300a 	strb.w	r3, [r8, #10]
    388a:	f888 300b 	strb.w	r3, [r8, #11]
    388e:	2114      	movs	r1, #20
    3890:	4640      	mov	r0, r8
    3892:	f7fe fe69 	bl	2568 <inet_chksum>
    3896:	f8a8 000a 	strh.w	r0, [r8, #10]
    389a:	f8b5 3048 	ldrh.w	r3, [r5, #72]	; 0x48
    389e:	4620      	mov	r0, r4
    38a0:	3301      	adds	r3, #1
    38a2:	f8a5 3048 	strh.w	r3, [r5, #72]	; 0x48
    38a6:	4651      	mov	r1, sl
    38a8:	f7fe faaf 	bl	1e0a <pbuf_header>
    38ac:	4602      	mov	r2, r0
    38ae:	b9a0      	cbnz	r0, 38da <icmp_input+0x1d2>
    38b0:	2301      	movs	r3, #1
    38b2:	9000      	str	r0, [sp, #0]
    38b4:	9301      	str	r3, [sp, #4]
    38b6:	4620      	mov	r0, r4
    38b8:	f108 010c 	add.w	r1, r8, #12
    38bc:	33fe      	adds	r3, #254	; 0xfe
    38be:	9602      	str	r6, [sp, #8]
    38c0:	f7fe feb8 	bl	2634 <ip_output_if>
    38c4:	e009      	b.n	38da <icmp_input+0x1d2>
    38c6:	f8b9 3058 	ldrh.w	r3, [r9, #88]	; 0x58
    38ca:	3301      	adds	r3, #1
    38cc:	f8a9 3058 	strh.w	r3, [r9, #88]	; 0x58
    38d0:	f8b9 304e 	ldrh.w	r3, [r9, #78]	; 0x4e
    38d4:	3301      	adds	r3, #1
    38d6:	f8a9 304e 	strh.w	r3, [r9, #78]	; 0x4e
    38da:	4620      	mov	r0, r4
    38dc:	b009      	add	sp, #36	; 0x24
    38de:	e8bd 4ff0 	ldmia.w	sp!, {r4, r5, r6, r7, r8, r9, sl, fp, lr}
    38e2:	f7ff b96e 	b.w	2bc2 <pbuf_free>
    38e6:	4620      	mov	r0, r4
    38e8:	f7ff f96b 	bl	2bc2 <pbuf_free>
    38ec:	f8b5 3052 	ldrh.w	r3, [r5, #82]	; 0x52
    38f0:	3301      	adds	r3, #1
    38f2:	f8a5 3052 	strh.w	r3, [r5, #82]	; 0x52
    38f6:	e007      	b.n	3908 <icmp_input+0x200>
    38f8:	4620      	mov	r0, r4
    38fa:	f7ff f962 	bl	2bc2 <pbuf_free>
    38fe:	f8b5 305c 	ldrh.w	r3, [r5, #92]	; 0x5c
    3902:	3301      	adds	r3, #1
    3904:	f8a5 305c 	strh.w	r3, [r5, #92]	; 0x5c
    3908:	b009      	add	sp, #36	; 0x24
    390a:	e8bd 8ff0 	ldmia.w	sp!, {r4, r5, r6, r7, r8, r9, sl, fp, pc}
    390e:	bf00      	nop
    3910:	20003244 	.word	0x20003244

00003914 <udp_sendto_if>:
    3914:	e92d 4ff0 	stmdb	sp!, {r4, r5, r6, r7, r8, r9, sl, fp, lr}
    3918:	4692      	mov	sl, r2
    391a:	8a42      	ldrh	r2, [r0, #18]
    391c:	b085      	sub	sp, #20
    391e:	4605      	mov	r5, r0
    3920:	460f      	mov	r7, r1
    3922:	4699      	mov	r9, r3
    3924:	f8dd 8038 	ldr.w	r8, [sp, #56]	; 0x38
    3928:	b92a      	cbnz	r2, 3936 <udp_sendto_if+0x22>
    392a:	4601      	mov	r1, r0
    392c:	f7fe fbd6 	bl	20dc <udp_bind>
    3930:	4606      	mov	r6, r0
    3932:	2800      	cmp	r0, #0
    3934:	d161      	bne.n	39fa <udp_sendto_if+0xe6>
    3936:	4638      	mov	r0, r7
    3938:	2108      	movs	r1, #8
    393a:	f7fe fa66 	bl	1e0a <pbuf_header>
    393e:	b158      	cbz	r0, 3958 <udp_sendto_if+0x44>
    3940:	2001      	movs	r0, #1
    3942:	2108      	movs	r1, #8
    3944:	2200      	movs	r2, #0
    3946:	f7ff fb99 	bl	307c <pbuf_alloc>
    394a:	4604      	mov	r4, r0
    394c:	2800      	cmp	r0, #0
    394e:	d051      	beq.n	39f4 <udp_sendto_if+0xe0>
    3950:	4639      	mov	r1, r7
    3952:	f7fe ff5a 	bl	280a <pbuf_chain>
    3956:	e000      	b.n	395a <udp_sendto_if+0x46>
    3958:	463c      	mov	r4, r7
    395a:	8a68      	ldrh	r0, [r5, #18]
    395c:	f7fe fc1b 	bl	2196 <htons>
    3960:	6866      	ldr	r6, [r4, #4]
    3962:	8030      	strh	r0, [r6, #0]
    3964:	4648      	mov	r0, r9
    3966:	f7fe fc16 	bl	2196 <htons>
    396a:	2300      	movs	r3, #0
    396c:	8070      	strh	r0, [r6, #2]
    396e:	71b3      	strb	r3, [r6, #6]
    3970:	71f3      	strb	r3, [r6, #7]
    3972:	682b      	ldr	r3, [r5, #0]
    3974:	b913      	cbnz	r3, 397c <udp_sendto_if+0x68>
    3976:	f108 0904 	add.w	r9, r8, #4
    397a:	e00a      	b.n	3992 <udp_sendto_if+0x7e>
    397c:	f8d8 2004 	ldr.w	r2, [r8, #4]
    3980:	4293      	cmp	r3, r2
    3982:	d005      	beq.n	3990 <udp_sendto_if+0x7c>
    3984:	42bc      	cmp	r4, r7
    3986:	d037      	beq.n	39f8 <udp_sendto_if+0xe4>
    3988:	4620      	mov	r0, r4
    398a:	f7ff f91a 	bl	2bc2 <pbuf_free>
    398e:	e033      	b.n	39f8 <udp_sendto_if+0xe4>
    3990:	46a9      	mov	r9, r5
    3992:	f8b4 b008 	ldrh.w	fp, [r4, #8]
    3996:	4658      	mov	r0, fp
    3998:	f7fe fbfd 	bl	2196 <htons>
    399c:	80b0      	strh	r0, [r6, #4]
    399e:	7c2b      	ldrb	r3, [r5, #16]
    39a0:	f013 0f01 	tst.w	r3, #1
    39a4:	d10d      	bne.n	39c2 <udp_sendto_if+0xae>
    39a6:	f8cd b000 	str.w	fp, [sp]
    39aa:	4620      	mov	r0, r4
    39ac:	4649      	mov	r1, r9
    39ae:	4652      	mov	r2, sl
    39b0:	2311      	movs	r3, #17
    39b2:	f7fe fd8e 	bl	24d2 <inet_chksum_pseudo>
    39b6:	80f0      	strh	r0, [r6, #6]
    39b8:	b918      	cbnz	r0, 39c2 <udp_sendto_if+0xae>
    39ba:	f04f 33ff 	mov.w	r3, #4294967295
    39be:	71b3      	strb	r3, [r6, #6]
    39c0:	71f3      	strb	r3, [r6, #7]
    39c2:	7aaa      	ldrb	r2, [r5, #10]
    39c4:	7aeb      	ldrb	r3, [r5, #11]
    39c6:	9200      	str	r2, [sp, #0]
    39c8:	2211      	movs	r2, #17
    39ca:	9201      	str	r2, [sp, #4]
    39cc:	4620      	mov	r0, r4
    39ce:	4649      	mov	r1, r9
    39d0:	4652      	mov	r2, sl
    39d2:	f8cd 8008 	str.w	r8, [sp, #8]
    39d6:	f7fe fe2d 	bl	2634 <ip_output_if>
    39da:	42bc      	cmp	r4, r7
    39dc:	4606      	mov	r6, r0
    39de:	d002      	beq.n	39e6 <udp_sendto_if+0xd2>
    39e0:	4620      	mov	r0, r4
    39e2:	f7ff f8ee 	bl	2bc2 <pbuf_free>
    39e6:	4b07      	ldr	r3, [pc, #28]	; (3a04 <udp_sendto_if+0xf0>)
    39e8:	f8b3 2060 	ldrh.w	r2, [r3, #96]	; 0x60
    39ec:	3201      	adds	r2, #1
    39ee:	f8a3 2060 	strh.w	r2, [r3, #96]	; 0x60
    39f2:	e002      	b.n	39fa <udp_sendto_if+0xe6>
    39f4:	26ff      	movs	r6, #255	; 0xff
    39f6:	e000      	b.n	39fa <udp_sendto_if+0xe6>
    39f8:	26f7      	movs	r6, #247	; 0xf7
    39fa:	b270      	sxtb	r0, r6
    39fc:	b005      	add	sp, #20
    39fe:	e8bd 8ff0 	ldmia.w	sp!, {r4, r5, r6, r7, r8, r9, sl, fp, pc}
    3a02:	bf00      	nop
    3a04:	20003244 	.word	0x20003244

00003a08 <udp_sendto>:
    3a08:	b5f7      	push	{r0, r1, r2, r4, r5, r6, r7, lr}
    3a0a:	4604      	mov	r4, r0
    3a0c:	4610      	mov	r0, r2
    3a0e:	460f      	mov	r7, r1
    3a10:	4615      	mov	r5, r2
    3a12:	461e      	mov	r6, r3
    3a14:	f7fe fdd6 	bl	25c4 <ip_route>
    3a18:	b938      	cbnz	r0, 3a2a <udp_sendto+0x22>
    3a1a:	4b08      	ldr	r3, [pc, #32]	; (3a3c <udp_sendto+0x34>)
    3a1c:	30fc      	adds	r0, #252	; 0xfc
    3a1e:	f8b3 206e 	ldrh.w	r2, [r3, #110]	; 0x6e
    3a22:	3201      	adds	r2, #1
    3a24:	f8a3 206e 	strh.w	r2, [r3, #110]	; 0x6e
    3a28:	e006      	b.n	3a38 <udp_sendto+0x30>
    3a2a:	9000      	str	r0, [sp, #0]
    3a2c:	4639      	mov	r1, r7
    3a2e:	4620      	mov	r0, r4
    3a30:	462a      	mov	r2, r5
    3a32:	4633      	mov	r3, r6
    3a34:	f7ff ff6e 	bl	3914 <udp_sendto_if>
    3a38:	b240      	sxtb	r0, r0
    3a3a:	bdfe      	pop	{r1, r2, r3, r4, r5, r6, r7, pc}
    3a3c:	20003244 	.word	0x20003244

00003a40 <tcp_zero_window_probe>:
    3a40:	e92d 41f3 	stmdb	sp!, {r0, r1, r4, r5, r6, r7, r8, lr}
    3a44:	6f87      	ldr	r7, [r0, #120]	; 0x78
    3a46:	4605      	mov	r5, r0
    3a48:	b917      	cbnz	r7, 3a50 <tcp_zero_window_probe+0x10>
    3a4a:	6f47      	ldr	r7, [r0, #116]	; 0x74
    3a4c:	2f00      	cmp	r7, #0
    3a4e:	d056      	beq.n	3afe <tcp_zero_window_probe+0xbe>
    3a50:	693b      	ldr	r3, [r7, #16]
    3a52:	8998      	ldrh	r0, [r3, #12]
    3a54:	f7fe fbe1 	bl	221a <ntohs>
    3a58:	f010 0801 	ands.w	r8, r0, #1
    3a5c:	d006      	beq.n	3a6c <tcp_zero_window_probe+0x2c>
    3a5e:	f8b7 800c 	ldrh.w	r8, [r7, #12]
    3a62:	f1d8 0801 	rsbs	r8, r8, #1
    3a66:	bf38      	it	cc
    3a68:	f04f 0800 	movcc.w	r8, #0
    3a6c:	fa5f f888 	uxtb.w	r8, r8
    3a70:	2001      	movs	r0, #1
    3a72:	f1b8 0f00 	cmp.w	r8, #0
    3a76:	bf0c      	ite	eq
    3a78:	2115      	moveq	r1, #21
    3a7a:	2114      	movne	r1, #20
    3a7c:	2200      	movs	r2, #0
    3a7e:	f7ff fafd 	bl	307c <pbuf_alloc>
    3a82:	4604      	mov	r4, r0
    3a84:	2800      	cmp	r0, #0
    3a86:	d03a      	beq.n	3afe <tcp_zero_window_probe+0xbe>
    3a88:	693b      	ldr	r3, [r7, #16]
    3a8a:	4628      	mov	r0, r5
    3a8c:	6861      	ldr	r1, [r4, #4]
    3a8e:	685a      	ldr	r2, [r3, #4]
    3a90:	f7fe fc3a 	bl	2308 <tcp_output_set_header.clone.2.clone.9>
    3a94:	4606      	mov	r6, r0
    3a96:	f1b8 0f00 	cmp.w	r8, #0
    3a9a:	d00c      	beq.n	3ab6 <tcp_zero_window_probe+0x76>
    3a9c:	f64f 70c0 	movw	r0, #65472	; 0xffc0
    3aa0:	f7fe fb79 	bl	2196 <htons>
    3aa4:	4607      	mov	r7, r0
    3aa6:	2011      	movs	r0, #17
    3aa8:	f7fe fb75 	bl	2196 <htons>
    3aac:	89b3      	ldrh	r3, [r6, #12]
    3aae:	401f      	ands	r7, r3
    3ab0:	4338      	orrs	r0, r7
    3ab2:	81b0      	strh	r0, [r6, #12]
    3ab4:	e003      	b.n	3abe <tcp_zero_window_probe+0x7e>
    3ab6:	68ba      	ldr	r2, [r7, #8]
    3ab8:	6863      	ldr	r3, [r4, #4]
    3aba:	7812      	ldrb	r2, [r2, #0]
    3abc:	751a      	strb	r2, [r3, #20]
    3abe:	8923      	ldrh	r3, [r4, #8]
    3ac0:	1d2f      	adds	r7, r5, #4
    3ac2:	9300      	str	r3, [sp, #0]
    3ac4:	4629      	mov	r1, r5
    3ac6:	463a      	mov	r2, r7
    3ac8:	2306      	movs	r3, #6
    3aca:	4620      	mov	r0, r4
    3acc:	f7fe fd01 	bl	24d2 <inet_chksum_pseudo>
    3ad0:	4b0c      	ldr	r3, [pc, #48]	; (3b04 <tcp_zero_window_probe+0xc4>)
    3ad2:	8230      	strh	r0, [r6, #16]
    3ad4:	f8b3 2078 	ldrh.w	r2, [r3, #120]	; 0x78
    3ad8:	4620      	mov	r0, r4
    3ada:	3201      	adds	r2, #1
    3adc:	f8a3 2078 	strh.w	r2, [r3, #120]	; 0x78
    3ae0:	2200      	movs	r2, #0
    3ae2:	9200      	str	r2, [sp, #0]
    3ae4:	3206      	adds	r2, #6
    3ae6:	9201      	str	r2, [sp, #4]
    3ae8:	7aeb      	ldrb	r3, [r5, #11]
    3aea:	4629      	mov	r1, r5
    3aec:	463a      	mov	r2, r7
    3aee:	f7fe fe1b 	bl	2728 <ip_output>
    3af2:	4620      	mov	r0, r4
    3af4:	b002      	add	sp, #8
    3af6:	e8bd 41f0 	ldmia.w	sp!, {r4, r5, r6, r7, r8, lr}
    3afa:	f7ff b862 	b.w	2bc2 <pbuf_free>
    3afe:	b002      	add	sp, #8
    3b00:	e8bd 81f0 	ldmia.w	sp!, {r4, r5, r6, r7, r8, pc}
    3b04:	20003244 	.word	0x20003244

00003b08 <tcp_keepalive>:
    3b08:	b5f7      	push	{r0, r1, r2, r4, r5, r6, r7, lr}
    3b0a:	4605      	mov	r5, r0
    3b0c:	2114      	movs	r1, #20
    3b0e:	2001      	movs	r0, #1
    3b10:	2200      	movs	r2, #0
    3b12:	f7ff fab3 	bl	307c <pbuf_alloc>
    3b16:	4604      	mov	r4, r0
    3b18:	2800      	cmp	r0, #0
    3b1a:	d029      	beq.n	3b70 <tcp_keepalive+0x68>
    3b1c:	6da8      	ldr	r0, [r5, #88]	; 0x58
    3b1e:	1d2e      	adds	r6, r5, #4
    3b20:	3801      	subs	r0, #1
    3b22:	f7fe fbef 	bl	2304 <htonl>
    3b26:	6861      	ldr	r1, [r4, #4]
    3b28:	4602      	mov	r2, r0
    3b2a:	4628      	mov	r0, r5
    3b2c:	f7fe fbec 	bl	2308 <tcp_output_set_header.clone.2.clone.9>
    3b30:	8923      	ldrh	r3, [r4, #8]
    3b32:	4607      	mov	r7, r0
    3b34:	9300      	str	r3, [sp, #0]
    3b36:	4629      	mov	r1, r5
    3b38:	4632      	mov	r2, r6
    3b3a:	2306      	movs	r3, #6
    3b3c:	4620      	mov	r0, r4
    3b3e:	f7fe fcc8 	bl	24d2 <inet_chksum_pseudo>
    3b42:	4b0c      	ldr	r3, [pc, #48]	; (3b74 <tcp_keepalive+0x6c>)
    3b44:	8238      	strh	r0, [r7, #16]
    3b46:	f8b3 2078 	ldrh.w	r2, [r3, #120]	; 0x78
    3b4a:	4620      	mov	r0, r4
    3b4c:	3201      	adds	r2, #1
    3b4e:	f8a3 2078 	strh.w	r2, [r3, #120]	; 0x78
    3b52:	2200      	movs	r2, #0
    3b54:	9200      	str	r2, [sp, #0]
    3b56:	3206      	adds	r2, #6
    3b58:	9201      	str	r2, [sp, #4]
    3b5a:	7aeb      	ldrb	r3, [r5, #11]
    3b5c:	4629      	mov	r1, r5
    3b5e:	4632      	mov	r2, r6
    3b60:	f7fe fde2 	bl	2728 <ip_output>
    3b64:	4620      	mov	r0, r4
    3b66:	b003      	add	sp, #12
    3b68:	e8bd 40f0 	ldmia.w	sp!, {r4, r5, r6, r7, lr}
    3b6c:	f7ff b829 	b.w	2bc2 <pbuf_free>
    3b70:	b003      	add	sp, #12
    3b72:	bdf0      	pop	{r4, r5, r6, r7, pc}
    3b74:	20003244 	.word	0x20003244

00003b78 <tcp_rst>:
    3b78:	e92d 4ff7 	stmdb	sp!, {r0, r1, r2, r4, r5, r6, r7, r8, r9, sl, fp, lr}
    3b7c:	4682      	mov	sl, r0
    3b7e:	468b      	mov	fp, r1
    3b80:	4617      	mov	r7, r2
    3b82:	2001      	movs	r0, #1
    3b84:	2114      	movs	r1, #20
    3b86:	2200      	movs	r2, #0
    3b88:	4698      	mov	r8, r3
    3b8a:	f8bd 9030 	ldrh.w	r9, [sp, #48]	; 0x30
    3b8e:	f8bd 6034 	ldrh.w	r6, [sp, #52]	; 0x34
    3b92:	f7ff fa73 	bl	307c <pbuf_alloc>
    3b96:	4605      	mov	r5, r0
    3b98:	2800      	cmp	r0, #0
    3b9a:	d052      	beq.n	3c42 <tcp_rst+0xca>
    3b9c:	6844      	ldr	r4, [r0, #4]
    3b9e:	4648      	mov	r0, r9
    3ba0:	f7fe faf9 	bl	2196 <htons>
    3ba4:	8020      	strh	r0, [r4, #0]
    3ba6:	4630      	mov	r0, r6
    3ba8:	f7fe faf5 	bl	2196 <htons>
    3bac:	8060      	strh	r0, [r4, #2]
    3bae:	4650      	mov	r0, sl
    3bb0:	f7fe fba8 	bl	2304 <htonl>
    3bb4:	6060      	str	r0, [r4, #4]
    3bb6:	4658      	mov	r0, fp
    3bb8:	f7fe fba4 	bl	2304 <htonl>
    3bbc:	60a0      	str	r0, [r4, #8]
    3bbe:	f64f 70c0 	movw	r0, #65472	; 0xffc0
    3bc2:	f7fe fae8 	bl	2196 <htons>
    3bc6:	4606      	mov	r6, r0
    3bc8:	2014      	movs	r0, #20
    3bca:	f7fe fae4 	bl	2196 <htons>
    3bce:	f8b4 900c 	ldrh.w	r9, [r4, #12]
    3bd2:	ea06 0609 	and.w	r6, r6, r9
    3bd6:	ea40 0606 	orr.w	r6, r0, r6
    3bda:	f44f 6000 	mov.w	r0, #2048	; 0x800
    3bde:	f7fe fada 	bl	2196 <htons>
    3be2:	fa1f f986 	uxth.w	r9, r6
    3be6:	2600      	movs	r6, #0
    3be8:	81e0      	strh	r0, [r4, #14]
    3bea:	74a6      	strb	r6, [r4, #18]
    3bec:	74e6      	strb	r6, [r4, #19]
    3bee:	4648      	mov	r0, r9
    3bf0:	f7fe fb13 	bl	221a <ntohs>
    3bf4:	f000 003f 	and.w	r0, r0, #63	; 0x3f
    3bf8:	f440 40a0 	orr.w	r0, r0, #20480	; 0x5000
    3bfc:	f7fe facb 	bl	2196 <htons>
    3c00:	7426      	strb	r6, [r4, #16]
    3c02:	81a0      	strh	r0, [r4, #12]
    3c04:	7466      	strb	r6, [r4, #17]
    3c06:	892b      	ldrh	r3, [r5, #8]
    3c08:	4639      	mov	r1, r7
    3c0a:	9300      	str	r3, [sp, #0]
    3c0c:	4642      	mov	r2, r8
    3c0e:	2306      	movs	r3, #6
    3c10:	4628      	mov	r0, r5
    3c12:	f7fe fc5e 	bl	24d2 <inet_chksum_pseudo>
    3c16:	4b0c      	ldr	r3, [pc, #48]	; (3c48 <tcp_rst+0xd0>)
    3c18:	8220      	strh	r0, [r4, #16]
    3c1a:	f8b3 2078 	ldrh.w	r2, [r3, #120]	; 0x78
    3c1e:	4628      	mov	r0, r5
    3c20:	3201      	adds	r2, #1
    3c22:	f8a3 2078 	strh.w	r2, [r3, #120]	; 0x78
    3c26:	2306      	movs	r3, #6
    3c28:	9301      	str	r3, [sp, #4]
    3c2a:	4639      	mov	r1, r7
    3c2c:	4642      	mov	r2, r8
    3c2e:	33f9      	adds	r3, #249	; 0xf9
    3c30:	9600      	str	r6, [sp, #0]
    3c32:	f7fe fd79 	bl	2728 <ip_output>
    3c36:	4628      	mov	r0, r5
    3c38:	b003      	add	sp, #12
    3c3a:	e8bd 4ff0 	ldmia.w	sp!, {r4, r5, r6, r7, r8, r9, sl, fp, lr}
    3c3e:	f7fe bfc0 	b.w	2bc2 <pbuf_free>
    3c42:	b003      	add	sp, #12
    3c44:	e8bd 8ff0 	ldmia.w	sp!, {r4, r5, r6, r7, r8, r9, sl, fp, pc}
    3c48:	20003244 	.word	0x20003244

00003c4c <tcp_send_empty_ack>:
    3c4c:	b5f7      	push	{r0, r1, r2, r4, r5, r6, r7, lr}
    3c4e:	4604      	mov	r4, r0
    3c50:	2114      	movs	r1, #20
    3c52:	2001      	movs	r0, #1
    3c54:	2200      	movs	r2, #0
    3c56:	f7ff fa11 	bl	307c <pbuf_alloc>
    3c5a:	4605      	mov	r5, r0
    3c5c:	b338      	cbz	r0, 3cae <tcp_send_empty_ack+0x62>
    3c5e:	f894 3022 	ldrb.w	r3, [r4, #34]	; 0x22
    3c62:	6da0      	ldr	r0, [r4, #88]	; 0x58
    3c64:	f023 0303 	bic.w	r3, r3, #3
    3c68:	f884 3022 	strb.w	r3, [r4, #34]	; 0x22
    3c6c:	f7fe fb4a 	bl	2304 <htonl>
    3c70:	6869      	ldr	r1, [r5, #4]
    3c72:	4602      	mov	r2, r0
    3c74:	4620      	mov	r0, r4
    3c76:	f7fe fb47 	bl	2308 <tcp_output_set_header.clone.2.clone.9>
    3c7a:	892b      	ldrh	r3, [r5, #8]
    3c7c:	1d26      	adds	r6, r4, #4
    3c7e:	4607      	mov	r7, r0
    3c80:	9300      	str	r3, [sp, #0]
    3c82:	4621      	mov	r1, r4
    3c84:	4632      	mov	r2, r6
    3c86:	2306      	movs	r3, #6
    3c88:	4628      	mov	r0, r5
    3c8a:	f7fe fc22 	bl	24d2 <inet_chksum_pseudo>
    3c8e:	8238      	strh	r0, [r7, #16]
    3c90:	7aa2      	ldrb	r2, [r4, #10]
    3c92:	7ae3      	ldrb	r3, [r4, #11]
    3c94:	9200      	str	r2, [sp, #0]
    3c96:	2206      	movs	r2, #6
    3c98:	9201      	str	r2, [sp, #4]
    3c9a:	4621      	mov	r1, r4
    3c9c:	4632      	mov	r2, r6
    3c9e:	4628      	mov	r0, r5
    3ca0:	f7fe fd42 	bl	2728 <ip_output>
    3ca4:	4628      	mov	r0, r5
    3ca6:	f7fe ff8c 	bl	2bc2 <pbuf_free>
    3caa:	2000      	movs	r0, #0
    3cac:	e000      	b.n	3cb0 <tcp_send_empty_ack+0x64>
    3cae:	20fe      	movs	r0, #254	; 0xfe
    3cb0:	b240      	sxtb	r0, r0
    3cb2:	bdfe      	pop	{r1, r2, r3, r4, r5, r6, r7, pc}

00003cb4 <tcp_output>:
    3cb4:	4b89      	ldr	r3, [pc, #548]	; (3edc <tcp_output+0x228>)
    3cb6:	e92d 47f3 	stmdb	sp!, {r0, r1, r4, r5, r6, r7, r8, r9, sl, lr}
    3cba:	681b      	ldr	r3, [r3, #0]
    3cbc:	4604      	mov	r4, r0
    3cbe:	4283      	cmp	r3, r0
    3cc0:	f000 8102 	beq.w	3ec8 <tcp_output+0x214>
    3cc4:	f8b0 3052 	ldrh.w	r3, [r0, #82]	; 0x52
    3cc8:	f8b0 a05c 	ldrh.w	sl, [r0, #92]	; 0x5c
    3ccc:	6f45      	ldr	r5, [r0, #116]	; 0x74
    3cce:	459a      	cmp	sl, r3
    3cd0:	bf28      	it	cs
    3cd2:	469a      	movcs	sl, r3
    3cd4:	f890 3022 	ldrb.w	r3, [r0, #34]	; 0x22
    3cd8:	f013 0f02 	tst.w	r3, #2
    3cdc:	d010      	beq.n	3d00 <tcp_output+0x4c>
    3cde:	b14d      	cbz	r5, 3cf4 <tcp_output+0x40>
    3ce0:	692b      	ldr	r3, [r5, #16]
    3ce2:	6858      	ldr	r0, [r3, #4]
    3ce4:	f7fe fb4d 	bl	2382 <ntohl>
    3ce8:	89aa      	ldrh	r2, [r5, #12]
    3cea:	6ce3      	ldr	r3, [r4, #76]	; 0x4c
    3cec:	1ad3      	subs	r3, r2, r3
    3cee:	181b      	adds	r3, r3, r0
    3cf0:	4553      	cmp	r3, sl
    3cf2:	d905      	bls.n	3d00 <tcp_output+0x4c>
    3cf4:	4620      	mov	r0, r4
    3cf6:	b002      	add	sp, #8
    3cf8:	e8bd 47f0 	ldmia.w	sp!, {r4, r5, r6, r7, r8, r9, sl, lr}
    3cfc:	f7ff bfa6 	b.w	3c4c <tcp_send_empty_ack>
    3d00:	6fa7      	ldr	r7, [r4, #120]	; 0x78
    3d02:	b90f      	cbnz	r7, 3d08 <tcp_output+0x54>
    3d04:	e0c2      	b.n	3e8c <tcp_output+0x1d8>
    3d06:	461f      	mov	r7, r3
    3d08:	683b      	ldr	r3, [r7, #0]
    3d0a:	2b00      	cmp	r3, #0
    3d0c:	d1fb      	bne.n	3d06 <tcp_output+0x52>
    3d0e:	e0bd      	b.n	3e8c <tcp_output+0x1d8>
    3d10:	6fa2      	ldr	r2, [r4, #120]	; 0x78
    3d12:	b17a      	cbz	r2, 3d34 <tcp_output+0x80>
    3d14:	f894 1022 	ldrb.w	r1, [r4, #34]	; 0x22
    3d18:	f011 0f44 	tst.w	r1, #68	; 0x44
    3d1c:	d10a      	bne.n	3d34 <tcp_output+0x80>
    3d1e:	6f62      	ldr	r2, [r4, #116]	; 0x74
    3d20:	2a00      	cmp	r2, #0
    3d22:	f000 80d5 	beq.w	3ed0 <tcp_output+0x21c>
    3d26:	6810      	ldr	r0, [r2, #0]
    3d28:	b920      	cbnz	r0, 3d34 <tcp_output+0x80>
    3d2a:	8990      	ldrh	r0, [r2, #12]
    3d2c:	8f22      	ldrh	r2, [r4, #56]	; 0x38
    3d2e:	4290      	cmp	r0, r2
    3d30:	f0c0 80ce 	bcc.w	3ed0 <tcp_output+0x21c>
    3d34:	682b      	ldr	r3, [r5, #0]
    3d36:	6763      	str	r3, [r4, #116]	; 0x74
    3d38:	7c23      	ldrb	r3, [r4, #16]
    3d3a:	2b02      	cmp	r3, #2
    3d3c:	d00c      	beq.n	3d58 <tcp_output+0xa4>
    3d3e:	2010      	movs	r0, #16
    3d40:	f7fe fa29 	bl	2196 <htons>
    3d44:	89b3      	ldrh	r3, [r6, #12]
    3d46:	ea40 0303 	orr.w	r3, r0, r3
    3d4a:	81b3      	strh	r3, [r6, #12]
    3d4c:	f894 3022 	ldrb.w	r3, [r4, #34]	; 0x22
    3d50:	f023 0303 	bic.w	r3, r3, #3
    3d54:	f884 3022 	strb.w	r3, [r4, #34]	; 0x22
    3d58:	f8d4 8024 	ldr.w	r8, [r4, #36]	; 0x24
    3d5c:	692e      	ldr	r6, [r5, #16]
    3d5e:	4640      	mov	r0, r8
    3d60:	f7fe fad0 	bl	2304 <htonl>
    3d64:	60b0      	str	r0, [r6, #8]
    3d66:	f8b4 902a 	ldrh.w	r9, [r4, #42]	; 0x2a
    3d6a:	4648      	mov	r0, r9
    3d6c:	f7fe fa13 	bl	2196 <htons>
    3d70:	eb09 0308 	add.w	r3, r9, r8
    3d74:	81f0      	strh	r0, [r6, #14]
    3d76:	62e3      	str	r3, [r4, #44]	; 0x2c
    3d78:	7bab      	ldrb	r3, [r5, #14]
    3d7a:	f013 0f01 	tst.w	r3, #1
    3d7e:	d003      	beq.n	3d88 <tcp_output+0xd4>
    3d80:	4857      	ldr	r0, [pc, #348]	; (3ee0 <tcp_output+0x22c>)
    3d82:	f7fe fabf 	bl	2304 <htonl>
    3d86:	6170      	str	r0, [r6, #20]
    3d88:	6823      	ldr	r3, [r4, #0]
    3d8a:	b933      	cbnz	r3, 3d9a <tcp_output+0xe6>
    3d8c:	1d20      	adds	r0, r4, #4
    3d8e:	f7fe fc19 	bl	25c4 <ip_route>
    3d92:	2800      	cmp	r0, #0
    3d94:	d041      	beq.n	3e1a <tcp_output+0x166>
    3d96:	6843      	ldr	r3, [r0, #4]
    3d98:	6023      	str	r3, [r4, #0]
    3d9a:	f9b4 3036 	ldrsh.w	r3, [r4, #54]	; 0x36
    3d9e:	f1b3 3fff 	cmp.w	r3, #4294967295
    3da2:	d101      	bne.n	3da8 <tcp_output+0xf4>
    3da4:	2300      	movs	r3, #0
    3da6:	86e3      	strh	r3, [r4, #54]	; 0x36
    3da8:	6be3      	ldr	r3, [r4, #60]	; 0x3c
    3daa:	b93b      	cbnz	r3, 3dbc <tcp_output+0x108>
    3dac:	4b4d      	ldr	r3, [pc, #308]	; (3ee4 <tcp_output+0x230>)
    3dae:	681b      	ldr	r3, [r3, #0]
    3db0:	63e3      	str	r3, [r4, #60]	; 0x3c
    3db2:	692b      	ldr	r3, [r5, #16]
    3db4:	6858      	ldr	r0, [r3, #4]
    3db6:	f7fe fae4 	bl	2382 <ntohl>
    3dba:	6420      	str	r0, [r4, #64]	; 0x40
    3dbc:	686e      	ldr	r6, [r5, #4]
    3dbe:	f8d5 8010 	ldr.w	r8, [r5, #16]
    3dc2:	6873      	ldr	r3, [r6, #4]
    3dc4:	8972      	ldrh	r2, [r6, #10]
    3dc6:	ebc3 0308 	rsb	r3, r3, r8
    3dca:	1ad2      	subs	r2, r2, r3
    3dcc:	8172      	strh	r2, [r6, #10]
    3dce:	8932      	ldrh	r2, [r6, #8]
    3dd0:	f104 0904 	add.w	r9, r4, #4
    3dd4:	1ad3      	subs	r3, r2, r3
    3dd6:	b29b      	uxth	r3, r3
    3dd8:	2200      	movs	r2, #0
    3dda:	8133      	strh	r3, [r6, #8]
    3ddc:	f8c6 8004 	str.w	r8, [r6, #4]
    3de0:	4621      	mov	r1, r4
    3de2:	f888 2010 	strb.w	r2, [r8, #16]
    3de6:	f888 2011 	strb.w	r2, [r8, #17]
    3dea:	4630      	mov	r0, r6
    3dec:	9300      	str	r3, [sp, #0]
    3dee:	464a      	mov	r2, r9
    3df0:	2306      	movs	r3, #6
    3df2:	f7fe fb6e 	bl	24d2 <inet_chksum_pseudo>
    3df6:	4b3c      	ldr	r3, [pc, #240]	; (3ee8 <tcp_output+0x234>)
    3df8:	f8a8 0010 	strh.w	r0, [r8, #16]
    3dfc:	f8b3 2078 	ldrh.w	r2, [r3, #120]	; 0x78
    3e00:	4630      	mov	r0, r6
    3e02:	3201      	adds	r2, #1
    3e04:	f8a3 2078 	strh.w	r2, [r3, #120]	; 0x78
    3e08:	7aa2      	ldrb	r2, [r4, #10]
    3e0a:	7ae3      	ldrb	r3, [r4, #11]
    3e0c:	9200      	str	r2, [sp, #0]
    3e0e:	2206      	movs	r2, #6
    3e10:	9201      	str	r2, [sp, #4]
    3e12:	4621      	mov	r1, r4
    3e14:	464a      	mov	r2, r9
    3e16:	f7fe fc87 	bl	2728 <ip_output>
    3e1a:	692e      	ldr	r6, [r5, #16]
    3e1c:	6870      	ldr	r0, [r6, #4]
    3e1e:	f7fe fab0 	bl	2382 <ntohl>
    3e22:	4680      	mov	r8, r0
    3e24:	89b0      	ldrh	r0, [r6, #12]
    3e26:	f7fe f9f8 	bl	221a <ntohs>
    3e2a:	89ab      	ldrh	r3, [r5, #12]
    3e2c:	f000 0003 	and.w	r0, r0, #3
    3e30:	2800      	cmp	r0, #0
    3e32:	bf0c      	ite	eq
    3e34:	4618      	moveq	r0, r3
    3e36:	1c58      	addne	r0, r3, #1
    3e38:	6da2      	ldr	r2, [r4, #88]	; 0x58
    3e3a:	eb00 0308 	add.w	r3, r0, r8
    3e3e:	429a      	cmp	r2, r3
    3e40:	bfb8      	it	lt
    3e42:	65a3      	strlt	r3, [r4, #88]	; 0x58
    3e44:	b1f0      	cbz	r0, 3e84 <tcp_output+0x1d0>
    3e46:	6fa6      	ldr	r6, [r4, #120]	; 0x78
    3e48:	2300      	movs	r3, #0
    3e4a:	602b      	str	r3, [r5, #0]
    3e4c:	b90e      	cbnz	r6, 3e52 <tcp_output+0x19e>
    3e4e:	67a5      	str	r5, [r4, #120]	; 0x78
    3e50:	e016      	b.n	3e80 <tcp_output+0x1cc>
    3e52:	693b      	ldr	r3, [r7, #16]
    3e54:	6858      	ldr	r0, [r3, #4]
    3e56:	f7fe fa94 	bl	2382 <ntohl>
    3e5a:	4580      	cmp	r8, r0
    3e5c:	da0f      	bge.n	3e7e <tcp_output+0x1ca>
    3e5e:	f104 0978 	add.w	r9, r4, #120	; 0x78
    3e62:	e002      	b.n	3e6a <tcp_output+0x1b6>
    3e64:	46b1      	mov	r9, r6
    3e66:	6836      	ldr	r6, [r6, #0]
    3e68:	b12e      	cbz	r6, 3e76 <tcp_output+0x1c2>
    3e6a:	6933      	ldr	r3, [r6, #16]
    3e6c:	6858      	ldr	r0, [r3, #4]
    3e6e:	f7fe fa88 	bl	2382 <ntohl>
    3e72:	4540      	cmp	r0, r8
    3e74:	dbf6      	blt.n	3e64 <tcp_output+0x1b0>
    3e76:	602e      	str	r6, [r5, #0]
    3e78:	f8c9 5000 	str.w	r5, [r9]
    3e7c:	e005      	b.n	3e8a <tcp_output+0x1d6>
    3e7e:	603d      	str	r5, [r7, #0]
    3e80:	462f      	mov	r7, r5
    3e82:	e002      	b.n	3e8a <tcp_output+0x1d6>
    3e84:	4628      	mov	r0, r5
    3e86:	f7ff f845 	bl	2f14 <tcp_seg_free>
    3e8a:	6f65      	ldr	r5, [r4, #116]	; 0x74
    3e8c:	b1b5      	cbz	r5, 3ebc <tcp_output+0x208>
    3e8e:	692e      	ldr	r6, [r5, #16]
    3e90:	6870      	ldr	r0, [r6, #4]
    3e92:	f7fe fa76 	bl	2382 <ntohl>
    3e96:	89aa      	ldrh	r2, [r5, #12]
    3e98:	6ce3      	ldr	r3, [r4, #76]	; 0x4c
    3e9a:	1ad3      	subs	r3, r2, r3
    3e9c:	181b      	adds	r3, r3, r0
    3e9e:	4553      	cmp	r3, sl
    3ea0:	f67f af36 	bls.w	3d10 <tcp_output+0x5c>
    3ea4:	f894 20a0 	ldrb.w	r2, [r4, #160]	; 0xa0
    3ea8:	b942      	cbnz	r2, 3ebc <tcp_output+0x208>
    3eaa:	f8b4 105c 	ldrh.w	r1, [r4, #92]	; 0x5c
    3eae:	428b      	cmp	r3, r1
    3eb0:	d904      	bls.n	3ebc <tcp_output+0x208>
    3eb2:	2301      	movs	r3, #1
    3eb4:	f8c4 209c 	str.w	r2, [r4, #156]	; 0x9c
    3eb8:	f884 30a0 	strb.w	r3, [r4, #160]	; 0xa0
    3ebc:	f894 3022 	ldrb.w	r3, [r4, #34]	; 0x22
    3ec0:	f003 037f 	and.w	r3, r3, #127	; 0x7f
    3ec4:	f884 3022 	strb.w	r3, [r4, #34]	; 0x22
    3ec8:	2000      	movs	r0, #0
    3eca:	b002      	add	sp, #8
    3ecc:	e8bd 87f0 	ldmia.w	sp!, {r4, r5, r6, r7, r8, r9, sl, pc}
    3ed0:	f011 0fa0 	tst.w	r1, #160	; 0xa0
    3ed4:	f47f af2e 	bne.w	3d34 <tcp_output+0x80>
    3ed8:	e7e4      	b.n	3ea4 <tcp_output+0x1f0>
    3eda:	bf00      	nop
    3edc:	200034ac 	.word	0x200034ac
    3ee0:	02040200 	.word	0x02040200
    3ee4:	20003240 	.word	0x20003240
    3ee8:	20003244 	.word	0x20003244

00003eec <tcp_rexmit_rto>:
    3eec:	6f82      	ldr	r2, [r0, #120]	; 0x78
    3eee:	b510      	push	{r4, lr}
    3ef0:	b19a      	cbz	r2, 3f1a <tcp_rexmit_rto+0x2e>
    3ef2:	4611      	mov	r1, r2
    3ef4:	e000      	b.n	3ef8 <tcp_rexmit_rto+0xc>
    3ef6:	4619      	mov	r1, r3
    3ef8:	680b      	ldr	r3, [r1, #0]
    3efa:	2b00      	cmp	r3, #0
    3efc:	d1fb      	bne.n	3ef6 <tcp_rexmit_rto+0xa>
    3efe:	6f44      	ldr	r4, [r0, #116]	; 0x74
    3f00:	600c      	str	r4, [r1, #0]
    3f02:	6742      	str	r2, [r0, #116]	; 0x74
    3f04:	f890 204a 	ldrb.w	r2, [r0, #74]	; 0x4a
    3f08:	6783      	str	r3, [r0, #120]	; 0x78
    3f0a:	3201      	adds	r2, #1
    3f0c:	f880 204a 	strb.w	r2, [r0, #74]	; 0x4a
    3f10:	63c3      	str	r3, [r0, #60]	; 0x3c
    3f12:	e8bd 4010 	ldmia.w	sp!, {r4, lr}
    3f16:	f7ff becd 	b.w	3cb4 <tcp_output>
    3f1a:	bd10      	pop	{r4, pc}

00003f1c <tcp_pcb_remove>:
    3f1c:	6803      	ldr	r3, [r0, #0]
    3f1e:	b510      	push	{r4, lr}
    3f20:	428b      	cmp	r3, r1
    3f22:	460c      	mov	r4, r1
    3f24:	d102      	bne.n	3f2c <tcp_pcb_remove+0x10>
    3f26:	68cb      	ldr	r3, [r1, #12]
    3f28:	6003      	str	r3, [r0, #0]
    3f2a:	e00d      	b.n	3f48 <tcp_pcb_remove+0x2c>
    3f2c:	4a13      	ldr	r2, [pc, #76]	; (3f7c <tcp_pcb_remove+0x60>)
    3f2e:	6013      	str	r3, [r2, #0]
    3f30:	e007      	b.n	3f42 <tcp_pcb_remove+0x26>
    3f32:	68d9      	ldr	r1, [r3, #12]
    3f34:	42a1      	cmp	r1, r4
    3f36:	d103      	bne.n	3f40 <tcp_pcb_remove+0x24>
    3f38:	6013      	str	r3, [r2, #0]
    3f3a:	68e2      	ldr	r2, [r4, #12]
    3f3c:	60da      	str	r2, [r3, #12]
    3f3e:	e003      	b.n	3f48 <tcp_pcb_remove+0x2c>
    3f40:	460b      	mov	r3, r1
    3f42:	2b00      	cmp	r3, #0
    3f44:	d1f5      	bne.n	3f32 <tcp_pcb_remove+0x16>
    3f46:	6013      	str	r3, [r2, #0]
    3f48:	2300      	movs	r3, #0
    3f4a:	60e3      	str	r3, [r4, #12]
    3f4c:	4620      	mov	r0, r4
    3f4e:	f7fe ffff 	bl	2f50 <tcp_pcb_purge>
    3f52:	7c23      	ldrb	r3, [r4, #16]
    3f54:	2b0a      	cmp	r3, #10
    3f56:	d00d      	beq.n	3f74 <tcp_pcb_remove+0x58>
    3f58:	2b01      	cmp	r3, #1
    3f5a:	d00b      	beq.n	3f74 <tcp_pcb_remove+0x58>
    3f5c:	f894 3022 	ldrb.w	r3, [r4, #34]	; 0x22
    3f60:	f013 0f01 	tst.w	r3, #1
    3f64:	d006      	beq.n	3f74 <tcp_pcb_remove+0x58>
    3f66:	f043 0302 	orr.w	r3, r3, #2
    3f6a:	f884 3022 	strb.w	r3, [r4, #34]	; 0x22
    3f6e:	4620      	mov	r0, r4
    3f70:	f7ff fea0 	bl	3cb4 <tcp_output>
    3f74:	2300      	movs	r3, #0
    3f76:	7423      	strb	r3, [r4, #16]
    3f78:	bd10      	pop	{r4, pc}
    3f7a:	bf00      	nop
    3f7c:	200001ec 	.word	0x200001ec

00003f80 <tcp_abandon>:
    3f80:	e92d 4ff0 	stmdb	sp!, {r4, r5, r6, r7, r8, r9, sl, fp, lr}
    3f84:	7c03      	ldrb	r3, [r0, #16]
    3f86:	b085      	sub	sp, #20
    3f88:	2b0a      	cmp	r3, #10
    3f8a:	4604      	mov	r4, r0
    3f8c:	468a      	mov	sl, r1
    3f8e:	d108      	bne.n	3fa2 <tcp_abandon+0x22>
    3f90:	4621      	mov	r1, r4
    3f92:	481f      	ldr	r0, [pc, #124]	; (4010 <tcp_abandon+0x90>)
    3f94:	f7ff ffc2 	bl	3f1c <tcp_pcb_remove>
    3f98:	2002      	movs	r0, #2
    3f9a:	4621      	mov	r1, r4
    3f9c:	f7fe fc3e 	bl	281c <memp_free>
    3fa0:	e033      	b.n	400a <tcp_abandon+0x8a>
    3fa2:	6803      	ldr	r3, [r0, #0]
    3fa4:	6d87      	ldr	r7, [r0, #88]	; 0x58
    3fa6:	9302      	str	r3, [sp, #8]
    3fa8:	6843      	ldr	r3, [r0, #4]
    3faa:	6a46      	ldr	r6, [r0, #36]	; 0x24
    3fac:	f8b0 9018 	ldrh.w	r9, [r0, #24]
    3fb0:	f8b0 8020 	ldrh.w	r8, [r0, #32]
    3fb4:	f8d0 5094 	ldr.w	r5, [r0, #148]	; 0x94
    3fb8:	f8d0 b014 	ldr.w	fp, [r0, #20]
    3fbc:	4621      	mov	r1, r4
    3fbe:	4815      	ldr	r0, [pc, #84]	; (4014 <tcp_abandon+0x94>)
    3fc0:	9303      	str	r3, [sp, #12]
    3fc2:	f7ff ffab 	bl	3f1c <tcp_pcb_remove>
    3fc6:	6fa0      	ldr	r0, [r4, #120]	; 0x78
    3fc8:	b108      	cbz	r0, 3fce <tcp_abandon+0x4e>
    3fca:	f7fe ffb3 	bl	2f34 <tcp_segs_free>
    3fce:	6f60      	ldr	r0, [r4, #116]	; 0x74
    3fd0:	b108      	cbz	r0, 3fd6 <tcp_abandon+0x56>
    3fd2:	f7fe ffaf 	bl	2f34 <tcp_segs_free>
    3fd6:	6fe0      	ldr	r0, [r4, #124]	; 0x7c
    3fd8:	b108      	cbz	r0, 3fde <tcp_abandon+0x5e>
    3fda:	f7fe ffab 	bl	2f34 <tcp_segs_free>
    3fde:	2002      	movs	r0, #2
    3fe0:	4621      	mov	r1, r4
    3fe2:	f7fe fc1b 	bl	281c <memp_free>
    3fe6:	b11d      	cbz	r5, 3ff0 <tcp_abandon+0x70>
    3fe8:	4658      	mov	r0, fp
    3fea:	f06f 0104 	mvn.w	r1, #4
    3fee:	47a8      	blx	r5
    3ff0:	f1ba 0f00 	cmp.w	sl, #0
    3ff4:	d009      	beq.n	400a <tcp_abandon+0x8a>
    3ff6:	4638      	mov	r0, r7
    3ff8:	4631      	mov	r1, r6
    3ffa:	aa02      	add	r2, sp, #8
    3ffc:	ab03      	add	r3, sp, #12
    3ffe:	f8cd 9000 	str.w	r9, [sp]
    4002:	f8cd 8004 	str.w	r8, [sp, #4]
    4006:	f7ff fdb7 	bl	3b78 <tcp_rst>
    400a:	b005      	add	sp, #20
    400c:	e8bd 8ff0 	ldmia.w	sp!, {r4, r5, r6, r7, r8, r9, sl, fp, pc}
    4010:	200034bc 	.word	0x200034bc
    4014:	20003224 	.word	0x20003224

00004018 <tcp_alloc>:
    4018:	b5f8      	push	{r3, r4, r5, r6, r7, lr}
    401a:	4606      	mov	r6, r0
    401c:	2002      	movs	r0, #2
    401e:	f7fe fc31 	bl	2884 <memp_malloc>
    4022:	4d3e      	ldr	r5, [pc, #248]	; (411c <tcp_alloc+0x104>)
    4024:	4604      	mov	r4, r0
    4026:	2800      	cmp	r0, #0
    4028:	d144      	bne.n	40b4 <tcp_alloc+0x9c>
    402a:	4b3d      	ldr	r3, [pc, #244]	; (4120 <tcp_alloc+0x108>)
    402c:	682c      	ldr	r4, [r5, #0]
    402e:	681b      	ldr	r3, [r3, #0]
    4030:	4602      	mov	r2, r0
    4032:	e007      	b.n	4044 <tcp_alloc+0x2c>
    4034:	6b19      	ldr	r1, [r3, #48]	; 0x30
    4036:	1a61      	subs	r1, r4, r1
    4038:	4291      	cmp	r1, r2
    403a:	bf28      	it	cs
    403c:	4618      	movcs	r0, r3
    403e:	68db      	ldr	r3, [r3, #12]
    4040:	bf28      	it	cs
    4042:	460a      	movcs	r2, r1
    4044:	2b00      	cmp	r3, #0
    4046:	d1f5      	bne.n	4034 <tcp_alloc+0x1c>
    4048:	b110      	cbz	r0, 4050 <tcp_alloc+0x38>
    404a:	2101      	movs	r1, #1
    404c:	f7ff ff98 	bl	3f80 <tcp_abandon>
    4050:	2002      	movs	r0, #2
    4052:	f7fe fc17 	bl	2884 <memp_malloc>
    4056:	4604      	mov	r4, r0
    4058:	bb30      	cbnz	r0, 40a8 <tcp_alloc+0x90>
    405a:	4b32      	ldr	r3, [pc, #200]	; (4124 <tcp_alloc+0x10c>)
    405c:	f8d5 e000 	ldr.w	lr, [r5]
    4060:	681b      	ldr	r3, [r3, #0]
    4062:	247f      	movs	r4, #127	; 0x7f
    4064:	4602      	mov	r2, r0
    4066:	e00d      	b.n	4084 <tcp_alloc+0x6c>
    4068:	7c59      	ldrb	r1, [r3, #17]
    406a:	42b1      	cmp	r1, r6
    406c:	d809      	bhi.n	4082 <tcp_alloc+0x6a>
    406e:	42a1      	cmp	r1, r4
    4070:	d807      	bhi.n	4082 <tcp_alloc+0x6a>
    4072:	6b1f      	ldr	r7, [r3, #48]	; 0x30
    4074:	ebc7 070e 	rsb	r7, r7, lr
    4078:	4297      	cmp	r7, r2
    407a:	d302      	bcc.n	4082 <tcp_alloc+0x6a>
    407c:	460c      	mov	r4, r1
    407e:	463a      	mov	r2, r7
    4080:	4618      	mov	r0, r3
    4082:	68db      	ldr	r3, [r3, #12]
    4084:	2b00      	cmp	r3, #0
    4086:	d1ef      	bne.n	4068 <tcp_alloc+0x50>
    4088:	b110      	cbz	r0, 4090 <tcp_alloc+0x78>
    408a:	2101      	movs	r1, #1
    408c:	f7ff ff78 	bl	3f80 <tcp_abandon>
    4090:	2002      	movs	r0, #2
    4092:	f7fe fbf7 	bl	2884 <memp_malloc>
    4096:	4604      	mov	r4, r0
    4098:	2800      	cmp	r0, #0
    409a:	d03d      	beq.n	4118 <tcp_alloc+0x100>
    409c:	4b22      	ldr	r3, [pc, #136]	; (4128 <tcp_alloc+0x110>)
    409e:	f8b3 20b4 	ldrh.w	r2, [r3, #180]	; 0xb4
    40a2:	3a01      	subs	r2, #1
    40a4:	f8a3 20b4 	strh.w	r2, [r3, #180]	; 0xb4
    40a8:	4b1f      	ldr	r3, [pc, #124]	; (4128 <tcp_alloc+0x110>)
    40aa:	f8b3 20b4 	ldrh.w	r2, [r3, #180]	; 0xb4
    40ae:	3a01      	subs	r2, #1
    40b0:	f8a3 20b4 	strh.w	r2, [r3, #180]	; 0xb4
    40b4:	2100      	movs	r1, #0
    40b6:	22a4      	movs	r2, #164	; 0xa4
    40b8:	4620      	mov	r0, r4
    40ba:	f003 fdd3 	bl	7c64 <memset>
    40be:	2340      	movs	r3, #64	; 0x40
    40c0:	7463      	strb	r3, [r4, #17]
    40c2:	f44f 6340 	mov.w	r3, #3072	; 0xc00
    40c6:	f8a4 306e 	strh.w	r3, [r4, #110]	; 0x6e
    40ca:	f44f 6300 	mov.w	r3, #2048	; 0x800
    40ce:	8523      	strh	r3, [r4, #40]	; 0x28
    40d0:	8563      	strh	r3, [r4, #42]	; 0x2a
    40d2:	23ff      	movs	r3, #255	; 0xff
    40d4:	72e3      	strb	r3, [r4, #11]
    40d6:	f44f 7300 	mov.w	r3, #512	; 0x200
    40da:	8723      	strh	r3, [r4, #56]	; 0x38
    40dc:	2306      	movs	r3, #6
    40de:	f8a4 3048 	strh.w	r3, [r4, #72]	; 0x48
    40e2:	f8a4 3046 	strh.w	r3, [r4, #70]	; 0x46
    40e6:	f04f 33ff 	mov.w	r3, #4294967295
    40ea:	86e3      	strh	r3, [r4, #54]	; 0x36
    40ec:	2301      	movs	r3, #1
    40ee:	f8a4 3052 	strh.w	r3, [r4, #82]	; 0x52
    40f2:	f7fd ffe7 	bl	20c4 <tcp_next_iss>
    40f6:	682b      	ldr	r3, [r5, #0]
    40f8:	2600      	movs	r6, #0
    40fa:	6323      	str	r3, [r4, #48]	; 0x30
    40fc:	4b0b      	ldr	r3, [pc, #44]	; (412c <tcp_alloc+0x114>)
    40fe:	6660      	str	r0, [r4, #100]	; 0x64
    4100:	f8c4 3088 	str.w	r3, [r4, #136]	; 0x88
    4104:	4b0a      	ldr	r3, [pc, #40]	; (4130 <tcp_alloc+0x118>)
    4106:	65a0      	str	r0, [r4, #88]	; 0x58
    4108:	64e0      	str	r0, [r4, #76]	; 0x4c
    410a:	66a0      	str	r0, [r4, #104]	; 0x68
    410c:	f884 6034 	strb.w	r6, [r4, #52]	; 0x34
    4110:	f8c4 3098 	str.w	r3, [r4, #152]	; 0x98
    4114:	f884 60a1 	strb.w	r6, [r4, #161]	; 0xa1
    4118:	4620      	mov	r0, r4
    411a:	bdf8      	pop	{r3, r4, r5, r6, r7, pc}
    411c:	20003240 	.word	0x20003240
    4120:	200034bc 	.word	0x200034bc
    4124:	20003224 	.word	0x20003224
    4128:	20003244 	.word	0x20003244
    412c:	00005221 	.word	0x00005221
    4130:	006ddd00 	.word	0x006ddd00

00004134 <tcp_new>:
    4134:	2040      	movs	r0, #64	; 0x40
    4136:	f7ff bf6f 	b.w	4018 <tcp_alloc>
	...

0000413c <netif_set_ipaddr>:
    413c:	b570      	push	{r4, r5, r6, lr}
    413e:	6843      	ldr	r3, [r0, #4]
    4140:	680a      	ldr	r2, [r1, #0]
    4142:	4604      	mov	r4, r0
    4144:	429a      	cmp	r2, r3
    4146:	460d      	mov	r5, r1
    4148:	d01a      	beq.n	4180 <netif_set_ipaddr+0x44>
    414a:	4b0f      	ldr	r3, [pc, #60]	; (4188 <netif_set_ipaddr+0x4c>)
    414c:	6818      	ldr	r0, [r3, #0]
    414e:	e008      	b.n	4162 <netif_set_ipaddr+0x26>
    4150:	6802      	ldr	r2, [r0, #0]
    4152:	6863      	ldr	r3, [r4, #4]
    4154:	68c6      	ldr	r6, [r0, #12]
    4156:	429a      	cmp	r2, r3
    4158:	d102      	bne.n	4160 <netif_set_ipaddr+0x24>
    415a:	2101      	movs	r1, #1
    415c:	f7ff ff10 	bl	3f80 <tcp_abandon>
    4160:	4630      	mov	r0, r6
    4162:	2800      	cmp	r0, #0
    4164:	d1f4      	bne.n	4150 <netif_set_ipaddr+0x14>
    4166:	4b09      	ldr	r3, [pc, #36]	; (418c <netif_set_ipaddr+0x50>)
    4168:	681b      	ldr	r3, [r3, #0]
    416a:	e007      	b.n	417c <netif_set_ipaddr+0x40>
    416c:	681a      	ldr	r2, [r3, #0]
    416e:	b122      	cbz	r2, 417a <netif_set_ipaddr+0x3e>
    4170:	6861      	ldr	r1, [r4, #4]
    4172:	428a      	cmp	r2, r1
    4174:	bf04      	itt	eq
    4176:	682a      	ldreq	r2, [r5, #0]
    4178:	601a      	streq	r2, [r3, #0]
    417a:	68db      	ldr	r3, [r3, #12]
    417c:	2b00      	cmp	r3, #0
    417e:	d1f5      	bne.n	416c <netif_set_ipaddr+0x30>
    4180:	682b      	ldr	r3, [r5, #0]
    4182:	6063      	str	r3, [r4, #4]
    4184:	bd70      	pop	{r4, r5, r6, pc}
    4186:	bf00      	nop
    4188:	20003224 	.word	0x20003224
    418c:	200001e4 	.word	0x200001e4

00004190 <autoip_tmr>:
    4190:	b570      	push	{r4, r5, r6, lr}
    4192:	4b43      	ldr	r3, [pc, #268]	; (42a0 <autoip_tmr+0x110>)
    4194:	b086      	sub	sp, #24
    4196:	681c      	ldr	r4, [r3, #0]
    4198:	e07d      	b.n	4296 <autoip_tmr+0x106>
    419a:	6a63      	ldr	r3, [r4, #36]	; 0x24
    419c:	2b00      	cmp	r3, #0
    419e:	d079      	beq.n	4294 <autoip_tmr+0x104>
    41a0:	7a1a      	ldrb	r2, [r3, #8]
    41a2:	b10a      	cbz	r2, 41a8 <autoip_tmr+0x18>
    41a4:	3a01      	subs	r2, #1
    41a6:	721a      	strb	r2, [r3, #8]
    41a8:	6a65      	ldr	r5, [r4, #36]	; 0x24
    41aa:	792b      	ldrb	r3, [r5, #4]
    41ac:	2b01      	cmp	r3, #1
    41ae:	d002      	beq.n	41b6 <autoip_tmr+0x26>
    41b0:	2b02      	cmp	r3, #2
    41b2:	d16f      	bne.n	4294 <autoip_tmr+0x104>
    41b4:	e03b      	b.n	422e <autoip_tmr+0x9e>
    41b6:	88ea      	ldrh	r2, [r5, #6]
    41b8:	b112      	cbz	r2, 41c0 <autoip_tmr+0x30>
    41ba:	3a01      	subs	r2, #1
    41bc:	80ea      	strh	r2, [r5, #6]
    41be:	e069      	b.n	4294 <autoip_tmr+0x104>
    41c0:	7969      	ldrb	r1, [r5, #5]
    41c2:	2902      	cmp	r1, #2
    41c4:	d906      	bls.n	41d4 <autoip_tmr+0x44>
    41c6:	2302      	movs	r3, #2
    41c8:	712b      	strb	r3, [r5, #4]
    41ca:	6a63      	ldr	r3, [r4, #36]	; 0x24
    41cc:	715a      	strb	r2, [r3, #5]
    41ce:	6a63      	ldr	r3, [r4, #36]	; 0x24
    41d0:	2214      	movs	r2, #20
    41d2:	e02a      	b.n	422a <autoip_tmr+0x9a>
    41d4:	4a33      	ldr	r2, [pc, #204]	; (42a4 <autoip_tmr+0x114>)
    41d6:	f104 012b 	add.w	r1, r4, #43	; 0x2b
    41da:	9200      	str	r2, [sp, #0]
    41dc:	4a32      	ldr	r2, [pc, #200]	; (42a8 <autoip_tmr+0x118>)
    41de:	9303      	str	r3, [sp, #12]
    41e0:	9201      	str	r2, [sp, #4]
    41e2:	460b      	mov	r3, r1
    41e4:	4a31      	ldr	r2, [pc, #196]	; (42ac <autoip_tmr+0x11c>)
    41e6:	4620      	mov	r0, r4
    41e8:	9502      	str	r5, [sp, #8]
    41ea:	f7ff f893 	bl	3314 <etharp_raw>
    41ee:	6a63      	ldr	r3, [r4, #36]	; 0x24
    41f0:	795a      	ldrb	r2, [r3, #5]
    41f2:	3201      	adds	r2, #1
    41f4:	715a      	strb	r2, [r3, #5]
    41f6:	f894 102e 	ldrb.w	r1, [r4, #46]	; 0x2e
    41fa:	f894 3030 	ldrb.w	r3, [r4, #48]	; 0x30
    41fe:	0409      	lsls	r1, r1, #16
    4200:	ea41 6103 	orr.w	r1, r1, r3, lsl #24
    4204:	f894 302f 	ldrb.w	r3, [r4, #47]	; 0x2f
    4208:	f894 202d 	ldrb.w	r2, [r4, #45]	; 0x2d
    420c:	4319      	orrs	r1, r3
    420e:	6a63      	ldr	r3, [r4, #36]	; 0x24
    4210:	ea41 2102 	orr.w	r1, r1, r2, lsl #8
    4214:	b10b      	cbz	r3, 421a <autoip_tmr+0x8a>
    4216:	7a5a      	ldrb	r2, [r3, #9]
    4218:	e000      	b.n	421c <autoip_tmr+0x8c>
    421a:	461a      	mov	r2, r3
    421c:	1851      	adds	r1, r2, r1
    421e:	220a      	movs	r2, #10
    4220:	fbb1 f0f2 	udiv	r0, r1, r2
    4224:	fb02 1210 	mls	r2, r2, r0, r1
    4228:	320a      	adds	r2, #10
    422a:	80da      	strh	r2, [r3, #6]
    422c:	e032      	b.n	4294 <autoip_tmr+0x104>
    422e:	88eb      	ldrh	r3, [r5, #6]
    4230:	b113      	cbz	r3, 4238 <autoip_tmr+0xa8>
    4232:	3b01      	subs	r3, #1
    4234:	80eb      	strh	r3, [r5, #6]
    4236:	e02d      	b.n	4294 <autoip_tmr+0x104>
    4238:	796e      	ldrb	r6, [r5, #5]
    423a:	b9be      	cbnz	r6, 426c <autoip_tmr+0xdc>
    423c:	481c      	ldr	r0, [pc, #112]	; (42b0 <autoip_tmr+0x120>)
    423e:	f7fe f861 	bl	2304 <htonl>
    4242:	9005      	str	r0, [sp, #20]
    4244:	4630      	mov	r0, r6
    4246:	f7fe f85d 	bl	2304 <htonl>
    424a:	4629      	mov	r1, r5
    424c:	9004      	str	r0, [sp, #16]
    424e:	4620      	mov	r0, r4
    4250:	f7ff ff74 	bl	413c <netif_set_ipaddr>
    4254:	4620      	mov	r0, r4
    4256:	a905      	add	r1, sp, #20
    4258:	f7fd fdbd 	bl	1dd6 <netif_set_netmask>
    425c:	4620      	mov	r0, r4
    425e:	a904      	add	r1, sp, #16
    4260:	f7fd fdb5 	bl	1dce <netif_set_gw>
    4264:	4620      	mov	r0, r4
    4266:	f7ff f8d5 	bl	3414 <netif_set_up>
    426a:	e002      	b.n	4272 <autoip_tmr+0xe2>
    426c:	4620      	mov	r0, r4
    426e:	f7ff f8e1 	bl	3434 <autoip_arp_announce>
    4272:	6a63      	ldr	r3, [r4, #36]	; 0x24
    4274:	2214      	movs	r2, #20
    4276:	80da      	strh	r2, [r3, #6]
    4278:	795a      	ldrb	r2, [r3, #5]
    427a:	3201      	adds	r2, #1
    427c:	715a      	strb	r2, [r3, #5]
    427e:	6a63      	ldr	r3, [r4, #36]	; 0x24
    4280:	795a      	ldrb	r2, [r3, #5]
    4282:	2a01      	cmp	r2, #1
    4284:	d906      	bls.n	4294 <autoip_tmr+0x104>
    4286:	2203      	movs	r2, #3
    4288:	711a      	strb	r2, [r3, #4]
    428a:	6a62      	ldr	r2, [r4, #36]	; 0x24
    428c:	2300      	movs	r3, #0
    428e:	7153      	strb	r3, [r2, #5]
    4290:	6a62      	ldr	r2, [r4, #36]	; 0x24
    4292:	80d3      	strh	r3, [r2, #6]
    4294:	6824      	ldr	r4, [r4, #0]
    4296:	2c00      	cmp	r4, #0
    4298:	f47f af7f 	bne.w	419a <autoip_tmr+0xa>
    429c:	b006      	add	sp, #24
    429e:	bd70      	pop	{r4, r5, r6, pc}
    42a0:	20003228 	.word	0x20003228
    42a4:	0000a5f8 	.word	0x0000a5f8
    42a8:	0000a5fc 	.word	0x0000a5fc
    42ac:	0000a636 	.word	0x0000a636
    42b0:	ffff0000 	.word	0xffff0000

000042b4 <netif_set_addr>:
    42b4:	b570      	push	{r4, r5, r6, lr}
    42b6:	4604      	mov	r4, r0
    42b8:	4615      	mov	r5, r2
    42ba:	461e      	mov	r6, r3
    42bc:	f7ff ff3e 	bl	413c <netif_set_ipaddr>
    42c0:	4620      	mov	r0, r4
    42c2:	4629      	mov	r1, r5
    42c4:	f7fd fd87 	bl	1dd6 <netif_set_netmask>
    42c8:	4620      	mov	r0, r4
    42ca:	4631      	mov	r1, r6
    42cc:	e8bd 4070 	ldmia.w	sp!, {r4, r5, r6, lr}
    42d0:	f7fd bd7d 	b.w	1dce <netif_set_gw>

000042d4 <netif_add>:
    42d4:	b5f8      	push	{r3, r4, r5, r6, r7, lr}
    42d6:	2500      	movs	r5, #0
    42d8:	f880 5031 	strb.w	r5, [r0, #49]	; 0x31
    42dc:	9e06      	ldr	r6, [sp, #24]
    42de:	4604      	mov	r4, r0
    42e0:	61c6      	str	r6, [r0, #28]
    42e2:	4e0d      	ldr	r6, [pc, #52]	; (4318 <netif_add+0x44>)
    42e4:	6045      	str	r5, [r0, #4]
    42e6:	7837      	ldrb	r7, [r6, #0]
    42e8:	6085      	str	r5, [r0, #8]
    42ea:	f880 7034 	strb.w	r7, [r0, #52]	; 0x34
    42ee:	3701      	adds	r7, #1
    42f0:	7037      	strb	r7, [r6, #0]
    42f2:	9e08      	ldr	r6, [sp, #32]
    42f4:	60c5      	str	r5, [r0, #12]
    42f6:	6205      	str	r5, [r0, #32]
    42f8:	6245      	str	r5, [r0, #36]	; 0x24
    42fa:	6106      	str	r6, [r0, #16]
    42fc:	f7ff ffda 	bl	42b4 <netif_set_addr>
    4300:	4620      	mov	r0, r4
    4302:	9b07      	ldr	r3, [sp, #28]
    4304:	4798      	blx	r3
    4306:	b920      	cbnz	r0, 4312 <netif_add+0x3e>
    4308:	4b04      	ldr	r3, [pc, #16]	; (431c <netif_add+0x48>)
    430a:	681a      	ldr	r2, [r3, #0]
    430c:	6022      	str	r2, [r4, #0]
    430e:	601c      	str	r4, [r3, #0]
    4310:	e000      	b.n	4314 <netif_add+0x40>
    4312:	462c      	mov	r4, r5
    4314:	4620      	mov	r0, r4
    4316:	bdf8      	pop	{r3, r4, r5, r6, r7, pc}
    4318:	2000020c 	.word	0x2000020c
    431c:	20003228 	.word	0x20003228

00004320 <dhcp_bind>:
    4320:	b537      	push	{r0, r1, r2, r4, r5, lr}
    4322:	4605      	mov	r5, r0
    4324:	2800      	cmp	r0, #0
    4326:	d065      	beq.n	43f4 <dhcp_bind+0xd4>
    4328:	6a04      	ldr	r4, [r0, #32]
    432a:	2c00      	cmp	r4, #0
    432c:	d062      	beq.n	43f4 <dhcp_bind+0xd4>
    432e:	6ca3      	ldr	r3, [r4, #72]	; 0x48
    4330:	f1b3 3fff 	cmp.w	r3, #4294967295
    4334:	d00d      	beq.n	4352 <dhcp_bind+0x32>
    4336:	223c      	movs	r2, #60	; 0x3c
    4338:	331e      	adds	r3, #30
    433a:	fbb3 f3f2 	udiv	r3, r3, r2
    433e:	f64f 72ff 	movw	r2, #65535	; 0xffff
    4342:	4293      	cmp	r3, r2
    4344:	bf28      	it	cs
    4346:	4613      	movcs	r3, r2
    4348:	b29b      	uxth	r3, r3
    434a:	8423      	strh	r3, [r4, #32]
    434c:	b90b      	cbnz	r3, 4352 <dhcp_bind+0x32>
    434e:	2301      	movs	r3, #1
    4350:	8423      	strh	r3, [r4, #32]
    4352:	6ce3      	ldr	r3, [r4, #76]	; 0x4c
    4354:	f1b3 3fff 	cmp.w	r3, #4294967295
    4358:	d00d      	beq.n	4376 <dhcp_bind+0x56>
    435a:	223c      	movs	r2, #60	; 0x3c
    435c:	331e      	adds	r3, #30
    435e:	fbb3 f3f2 	udiv	r3, r3, r2
    4362:	f64f 72ff 	movw	r2, #65535	; 0xffff
    4366:	4293      	cmp	r3, r2
    4368:	bf28      	it	cs
    436a:	4613      	movcs	r3, r2
    436c:	b29b      	uxth	r3, r3
    436e:	8463      	strh	r3, [r4, #34]	; 0x22
    4370:	b90b      	cbnz	r3, 4376 <dhcp_bind+0x56>
    4372:	2301      	movs	r3, #1
    4374:	8463      	strh	r3, [r4, #34]	; 0x22
    4376:	6ae0      	ldr	r0, [r4, #44]	; 0x2c
    4378:	9001      	str	r0, [sp, #4]
    437a:	b980      	cbnz	r0, 439e <dhcp_bind+0x7e>
    437c:	f7fe f801 	bl	2382 <ntohl>
    4380:	0e00      	lsrs	r0, r0, #24
    4382:	f010 0f80 	tst.w	r0, #128	; 0x80
    4386:	d102      	bne.n	438e <dhcp_bind+0x6e>
    4388:	f04f 407f 	mov.w	r0, #4278190080	; 0xff000000
    438c:	e004      	b.n	4398 <dhcp_bind+0x78>
    438e:	28bf      	cmp	r0, #191	; 0xbf
    4390:	bf94      	ite	ls
    4392:	4819      	ldrls	r0, [pc, #100]	; (43f8 <dhcp_bind+0xd8>)
    4394:	f06f 00ff 	mvnhi.w	r0, #255	; 0xff
    4398:	f7fd ffb4 	bl	2304 <htonl>
    439c:	9001      	str	r0, [sp, #4]
    439e:	6b23      	ldr	r3, [r4, #48]	; 0x30
    43a0:	9300      	str	r3, [sp, #0]
    43a2:	b94b      	cbnz	r3, 43b8 <dhcp_bind+0x98>
    43a4:	2001      	movs	r0, #1
    43a6:	f7fd ffad 	bl	2304 <htonl>
    43aa:	6aa3      	ldr	r3, [r4, #40]	; 0x28
    43ac:	9a01      	ldr	r2, [sp, #4]
    43ae:	ea02 0303 	and.w	r3, r2, r3
    43b2:	ea40 0303 	orr.w	r3, r0, r3
    43b6:	9300      	str	r3, [sp, #0]
    43b8:	f894 3050 	ldrb.w	r3, [r4, #80]	; 0x50
    43bc:	2b01      	cmp	r3, #1
    43be:	d105      	bne.n	43cc <dhcp_bind+0xac>
    43c0:	4628      	mov	r0, r5
    43c2:	f7fd fee0 	bl	2186 <autoip_stop>
    43c6:	2300      	movs	r3, #0
    43c8:	f884 3050 	strb.w	r3, [r4, #80]	; 0x50
    43cc:	4628      	mov	r0, r5
    43ce:	f104 0128 	add.w	r1, r4, #40	; 0x28
    43d2:	f7ff feb3 	bl	413c <netif_set_ipaddr>
    43d6:	4628      	mov	r0, r5
    43d8:	a901      	add	r1, sp, #4
    43da:	f7fd fcfc 	bl	1dd6 <netif_set_netmask>
    43de:	4669      	mov	r1, sp
    43e0:	4628      	mov	r0, r5
    43e2:	f7fd fcf4 	bl	1dce <netif_set_gw>
    43e6:	4628      	mov	r0, r5
    43e8:	f7ff f814 	bl	3414 <netif_set_up>
    43ec:	4620      	mov	r0, r4
    43ee:	210a      	movs	r1, #10
    43f0:	f7fd faa2 	bl	1938 <dhcp_set_state>
    43f4:	bd3e      	pop	{r1, r2, r3, r4, r5, pc}
    43f6:	bf00      	nop
    43f8:	ffff0000 	.word	0xffff0000

000043fc <tcp_slowtmr>:
    43fc:	e92d 43f0 	stmdb	sp!, {r4, r5, r6, r7, r8, r9, lr}
    4400:	4d99      	ldr	r5, [pc, #612]	; (4668 <tcp_slowtmr+0x26c>)
    4402:	4e9a      	ldr	r6, [pc, #616]	; (466c <tcp_slowtmr+0x270>)
    4404:	682b      	ldr	r3, [r5, #0]
    4406:	b085      	sub	sp, #20
    4408:	3301      	adds	r3, #1
    440a:	602b      	str	r3, [r5, #0]
    440c:	6834      	ldr	r4, [r6, #0]
    440e:	f04f 0900 	mov.w	r9, #0
    4412:	e107      	b.n	4624 <tcp_slowtmr+0x228>
    4414:	7c21      	ldrb	r1, [r4, #16]
    4416:	f894 204a 	ldrb.w	r2, [r4, #74]	; 0x4a
    441a:	2902      	cmp	r1, #2
    441c:	d101      	bne.n	4422 <tcp_slowtmr+0x26>
    441e:	2a06      	cmp	r2, #6
    4420:	d050      	beq.n	44c4 <tcp_slowtmr+0xc8>
    4422:	2a0c      	cmp	r2, #12
    4424:	d04e      	beq.n	44c4 <tcp_slowtmr+0xc8>
    4426:	f894 30a0 	ldrb.w	r3, [r4, #160]	; 0xa0
    442a:	b1bb      	cbz	r3, 445c <tcp_slowtmr+0x60>
    442c:	4990      	ldr	r1, [pc, #576]	; (4670 <tcp_slowtmr+0x274>)
    442e:	f8d4 209c 	ldr.w	r2, [r4, #156]	; 0x9c
    4432:	18c9      	adds	r1, r1, r3
    4434:	f811 1c01 	ldrb.w	r1, [r1, #-1]
    4438:	3201      	adds	r2, #1
    443a:	428a      	cmp	r2, r1
    443c:	f8c4 209c 	str.w	r2, [r4, #156]	; 0x9c
    4440:	f04f 0200 	mov.w	r2, #0
    4444:	d341      	bcc.n	44ca <tcp_slowtmr+0xce>
    4446:	2b06      	cmp	r3, #6
    4448:	f8c4 209c 	str.w	r2, [r4, #156]	; 0x9c
    444c:	d802      	bhi.n	4454 <tcp_slowtmr+0x58>
    444e:	3301      	adds	r3, #1
    4450:	f884 30a0 	strb.w	r3, [r4, #160]	; 0xa0
    4454:	4620      	mov	r0, r4
    4456:	f7ff faf3 	bl	3a40 <tcp_zero_window_probe>
    445a:	e03a      	b.n	44d2 <tcp_slowtmr+0xd6>
    445c:	8ee3      	ldrh	r3, [r4, #54]	; 0x36
    445e:	f413 4f00 	tst.w	r3, #32768	; 0x8000
    4462:	d101      	bne.n	4468 <tcp_slowtmr+0x6c>
    4464:	3301      	adds	r3, #1
    4466:	86e3      	strh	r3, [r4, #54]	; 0x36
    4468:	6fa3      	ldr	r3, [r4, #120]	; 0x78
    446a:	2b00      	cmp	r3, #0
    446c:	d02f      	beq.n	44ce <tcp_slowtmr+0xd2>
    446e:	f9b4 0036 	ldrsh.w	r0, [r4, #54]	; 0x36
    4472:	f9b4 3048 	ldrsh.w	r3, [r4, #72]	; 0x48
    4476:	4298      	cmp	r0, r3
    4478:	db2b      	blt.n	44d2 <tcp_slowtmr+0xd6>
    447a:	2902      	cmp	r1, #2
    447c:	d00a      	beq.n	4494 <tcp_slowtmr+0x98>
    447e:	f9b4 1044 	ldrsh.w	r1, [r4, #68]	; 0x44
    4482:	f9b4 3046 	ldrsh.w	r3, [r4, #70]	; 0x46
    4486:	eb03 03e1 	add.w	r3, r3, r1, asr #3
    448a:	497a      	ldr	r1, [pc, #488]	; (4674 <tcp_slowtmr+0x278>)
    448c:	5c8a      	ldrb	r2, [r1, r2]
    448e:	4093      	lsls	r3, r2
    4490:	f8a4 3048 	strh.w	r3, [r4, #72]	; 0x48
    4494:	2300      	movs	r3, #0
    4496:	86e3      	strh	r3, [r4, #54]	; 0x36
    4498:	f8b4 2052 	ldrh.w	r2, [r4, #82]	; 0x52
    449c:	f8b4 305c 	ldrh.w	r3, [r4, #92]	; 0x5c
    44a0:	429a      	cmp	r2, r3
    44a2:	bf28      	it	cs
    44a4:	461a      	movcs	r2, r3
    44a6:	8f23      	ldrh	r3, [r4, #56]	; 0x38
    44a8:	0852      	lsrs	r2, r2, #1
    44aa:	429a      	cmp	r2, r3
    44ac:	f8a4 2054 	strh.w	r2, [r4, #84]	; 0x54
    44b0:	d202      	bcs.n	44b8 <tcp_slowtmr+0xbc>
    44b2:	005a      	lsls	r2, r3, #1
    44b4:	f8a4 2054 	strh.w	r2, [r4, #84]	; 0x54
    44b8:	f8a4 3052 	strh.w	r3, [r4, #82]	; 0x52
    44bc:	4620      	mov	r0, r4
    44be:	f7ff fd15 	bl	3eec <tcp_rexmit_rto>
    44c2:	e006      	b.n	44d2 <tcp_slowtmr+0xd6>
    44c4:	f04f 0801 	mov.w	r8, #1
    44c8:	e005      	b.n	44d6 <tcp_slowtmr+0xda>
    44ca:	4690      	mov	r8, r2
    44cc:	e003      	b.n	44d6 <tcp_slowtmr+0xda>
    44ce:	4698      	mov	r8, r3
    44d0:	e001      	b.n	44d6 <tcp_slowtmr+0xda>
    44d2:	f04f 0800 	mov.w	r8, #0
    44d6:	7c23      	ldrb	r3, [r4, #16]
    44d8:	2b06      	cmp	r3, #6
    44da:	d108      	bne.n	44ee <tcp_slowtmr+0xf2>
    44dc:	6829      	ldr	r1, [r5, #0]
    44de:	6b22      	ldr	r2, [r4, #48]	; 0x30
    44e0:	1a8a      	subs	r2, r1, r2
    44e2:	2a28      	cmp	r2, #40	; 0x28
    44e4:	bf84      	itt	hi
    44e6:	f108 0801 	addhi.w	r8, r8, #1
    44ea:	fa5f f888 	uxtbhi.w	r8, r8
    44ee:	8927      	ldrh	r7, [r4, #8]
    44f0:	f017 0708 	ands.w	r7, r7, #8
    44f4:	d028      	beq.n	4548 <tcp_slowtmr+0x14c>
    44f6:	2b04      	cmp	r3, #4
    44f8:	d001      	beq.n	44fe <tcp_slowtmr+0x102>
    44fa:	2b07      	cmp	r3, #7
    44fc:	d123      	bne.n	4546 <tcp_slowtmr+0x14a>
    44fe:	6b23      	ldr	r3, [r4, #48]	; 0x30
    4500:	682a      	ldr	r2, [r5, #0]
    4502:	f8d4 0098 	ldr.w	r0, [r4, #152]	; 0x98
    4506:	1ad2      	subs	r2, r2, r3
    4508:	4b5b      	ldr	r3, [pc, #364]	; (4678 <tcp_slowtmr+0x27c>)
    450a:	f44f 71fa 	mov.w	r1, #500	; 0x1f4
    450e:	18c3      	adds	r3, r0, r3
    4510:	fbb3 f3f1 	udiv	r3, r3, r1
    4514:	429a      	cmp	r2, r3
    4516:	d905      	bls.n	4524 <tcp_slowtmr+0x128>
    4518:	f108 0801 	add.w	r8, r8, #1
    451c:	fa5f f888 	uxtb.w	r8, r8
    4520:	2701      	movs	r7, #1
    4522:	e011      	b.n	4548 <tcp_slowtmr+0x14c>
    4524:	f894 30a1 	ldrb.w	r3, [r4, #161]	; 0xa1
    4528:	4f54      	ldr	r7, [pc, #336]	; (467c <tcp_slowtmr+0x280>)
    452a:	fb07 0003 	mla	r0, r7, r3, r0
    452e:	fbb0 f1f1 	udiv	r1, r0, r1
    4532:	428a      	cmp	r2, r1
    4534:	d907      	bls.n	4546 <tcp_slowtmr+0x14a>
    4536:	4620      	mov	r0, r4
    4538:	f7ff fae6 	bl	3b08 <tcp_keepalive>
    453c:	f894 30a1 	ldrb.w	r3, [r4, #161]	; 0xa1
    4540:	3301      	adds	r3, #1
    4542:	f884 30a1 	strb.w	r3, [r4, #161]	; 0xa1
    4546:	2700      	movs	r7, #0
    4548:	6fe0      	ldr	r0, [r4, #124]	; 0x7c
    454a:	b160      	cbz	r0, 4566 <tcp_slowtmr+0x16a>
    454c:	6b23      	ldr	r3, [r4, #48]	; 0x30
    454e:	682a      	ldr	r2, [r5, #0]
    4550:	2106      	movs	r1, #6
    4552:	1ad2      	subs	r2, r2, r3
    4554:	f9b4 3048 	ldrsh.w	r3, [r4, #72]	; 0x48
    4558:	434b      	muls	r3, r1
    455a:	429a      	cmp	r2, r3
    455c:	d303      	bcc.n	4566 <tcp_slowtmr+0x16a>
    455e:	f7fe fce9 	bl	2f34 <tcp_segs_free>
    4562:	2300      	movs	r3, #0
    4564:	67e3      	str	r3, [r4, #124]	; 0x7c
    4566:	7c23      	ldrb	r3, [r4, #16]
    4568:	2b03      	cmp	r3, #3
    456a:	d109      	bne.n	4580 <tcp_slowtmr+0x184>
    456c:	682a      	ldr	r2, [r5, #0]
    456e:	6b23      	ldr	r3, [r4, #48]	; 0x30
    4570:	1ad3      	subs	r3, r2, r3
    4572:	2b28      	cmp	r3, #40	; 0x28
    4574:	d90b      	bls.n	458e <tcp_slowtmr+0x192>
    4576:	f108 0801 	add.w	r8, r8, #1
    457a:	fa5f f888 	uxtb.w	r8, r8
    457e:	e006      	b.n	458e <tcp_slowtmr+0x192>
    4580:	2b09      	cmp	r3, #9
    4582:	d104      	bne.n	458e <tcp_slowtmr+0x192>
    4584:	682a      	ldr	r2, [r5, #0]
    4586:	6b23      	ldr	r3, [r4, #48]	; 0x30
    4588:	1ad3      	subs	r3, r2, r3
    458a:	2bf0      	cmp	r3, #240	; 0xf0
    458c:	d802      	bhi.n	4594 <tcp_slowtmr+0x198>
    458e:	f1b8 0f00 	cmp.w	r8, #0
    4592:	d02d      	beq.n	45f0 <tcp_slowtmr+0x1f4>
    4594:	4620      	mov	r0, r4
    4596:	f7fe fcdb 	bl	2f50 <tcp_pcb_purge>
    459a:	68e3      	ldr	r3, [r4, #12]
    459c:	f1b9 0f00 	cmp.w	r9, #0
    45a0:	d002      	beq.n	45a8 <tcp_slowtmr+0x1ac>
    45a2:	f8c9 300c 	str.w	r3, [r9, #12]
    45a6:	e000      	b.n	45aa <tcp_slowtmr+0x1ae>
    45a8:	6033      	str	r3, [r6, #0]
    45aa:	f8d4 3094 	ldr.w	r3, [r4, #148]	; 0x94
    45ae:	b11b      	cbz	r3, 45b8 <tcp_slowtmr+0x1bc>
    45b0:	6960      	ldr	r0, [r4, #20]
    45b2:	f06f 0104 	mvn.w	r1, #4
    45b6:	4798      	blx	r3
    45b8:	b14f      	cbz	r7, 45ce <tcp_slowtmr+0x1d2>
    45ba:	8b23      	ldrh	r3, [r4, #24]
    45bc:	4622      	mov	r2, r4
    45be:	9300      	str	r3, [sp, #0]
    45c0:	8c23      	ldrh	r3, [r4, #32]
    45c2:	9301      	str	r3, [sp, #4]
    45c4:	6da0      	ldr	r0, [r4, #88]	; 0x58
    45c6:	6a61      	ldr	r1, [r4, #36]	; 0x24
    45c8:	1d23      	adds	r3, r4, #4
    45ca:	f7ff fad5 	bl	3b78 <tcp_rst>
    45ce:	2002      	movs	r0, #2
    45d0:	4621      	mov	r1, r4
    45d2:	68e7      	ldr	r7, [r4, #12]
    45d4:	f7fe f922 	bl	281c <memp_free>
    45d8:	f8d6 9000 	ldr.w	r9, [r6]
    45dc:	e000      	b.n	45e0 <tcp_slowtmr+0x1e4>
    45de:	4699      	mov	r9, r3
    45e0:	f1b9 0f00 	cmp.w	r9, #0
    45e4:	d01d      	beq.n	4622 <tcp_slowtmr+0x226>
    45e6:	f8d9 300c 	ldr.w	r3, [r9, #12]
    45ea:	42bb      	cmp	r3, r7
    45ec:	d1f7      	bne.n	45de <tcp_slowtmr+0x1e2>
    45ee:	e018      	b.n	4622 <tcp_slowtmr+0x226>
    45f0:	f894 3034 	ldrb.w	r3, [r4, #52]	; 0x34
    45f4:	f894 2035 	ldrb.w	r2, [r4, #53]	; 0x35
    45f8:	3301      	adds	r3, #1
    45fa:	b2db      	uxtb	r3, r3
    45fc:	429a      	cmp	r2, r3
    45fe:	f884 3034 	strb.w	r3, [r4, #52]	; 0x34
    4602:	d80b      	bhi.n	461c <tcp_slowtmr+0x220>
    4604:	f8d4 3090 	ldr.w	r3, [r4, #144]	; 0x90
    4608:	f884 8034 	strb.w	r8, [r4, #52]	; 0x34
    460c:	b11b      	cbz	r3, 4616 <tcp_slowtmr+0x21a>
    460e:	6960      	ldr	r0, [r4, #20]
    4610:	4621      	mov	r1, r4
    4612:	4798      	blx	r3
    4614:	b910      	cbnz	r0, 461c <tcp_slowtmr+0x220>
    4616:	4620      	mov	r0, r4
    4618:	f7ff fb4c 	bl	3cb4 <tcp_output>
    461c:	46a1      	mov	r9, r4
    461e:	68e4      	ldr	r4, [r4, #12]
    4620:	e000      	b.n	4624 <tcp_slowtmr+0x228>
    4622:	463c      	mov	r4, r7
    4624:	2c00      	cmp	r4, #0
    4626:	f47f aef5 	bne.w	4414 <tcp_slowtmr+0x18>
    462a:	4e15      	ldr	r6, [pc, #84]	; (4680 <tcp_slowtmr+0x284>)
    462c:	6831      	ldr	r1, [r6, #0]
    462e:	e00f      	b.n	4650 <tcp_slowtmr+0x254>
    4630:	682a      	ldr	r2, [r5, #0]
    4632:	6b0b      	ldr	r3, [r1, #48]	; 0x30
    4634:	1ad3      	subs	r3, r2, r3
    4636:	2bf0      	cmp	r3, #240	; 0xf0
    4638:	d80d      	bhi.n	4656 <tcp_slowtmr+0x25a>
    463a:	460c      	mov	r4, r1
    463c:	68c9      	ldr	r1, [r1, #12]
    463e:	e007      	b.n	4650 <tcp_slowtmr+0x254>
    4640:	60e3      	str	r3, [r4, #12]
    4642:	e000      	b.n	4646 <tcp_slowtmr+0x24a>
    4644:	6033      	str	r3, [r6, #0]
    4646:	68cf      	ldr	r7, [r1, #12]
    4648:	2002      	movs	r0, #2
    464a:	f7fe f8e7 	bl	281c <memp_free>
    464e:	4639      	mov	r1, r7
    4650:	2900      	cmp	r1, #0
    4652:	d1ed      	bne.n	4630 <tcp_slowtmr+0x234>
    4654:	e016      	b.n	4684 <tcp_slowtmr+0x288>
    4656:	4608      	mov	r0, r1
    4658:	9103      	str	r1, [sp, #12]
    465a:	f7fe fc79 	bl	2f50 <tcp_pcb_purge>
    465e:	9903      	ldr	r1, [sp, #12]
    4660:	68cb      	ldr	r3, [r1, #12]
    4662:	2c00      	cmp	r4, #0
    4664:	d1ec      	bne.n	4640 <tcp_slowtmr+0x244>
    4666:	e7ed      	b.n	4644 <tcp_slowtmr+0x248>
    4668:	20003240 	.word	0x20003240
    466c:	20003224 	.word	0x20003224
    4670:	0000a62f 	.word	0x0000a62f
    4674:	0000a622 	.word	0x0000a622
    4678:	000a4cb8 	.word	0x000a4cb8
    467c:	000124f8 	.word	0x000124f8
    4680:	200034bc 	.word	0x200034bc
    4684:	b005      	add	sp, #20
    4686:	e8bd 83f0 	ldmia.w	sp!, {r4, r5, r6, r7, r8, r9, pc}
    468a:	bf00      	nop

0000468c <tcp_recved>:
    468c:	8d03      	ldrh	r3, [r0, #40]	; 0x28
    468e:	b510      	push	{r4, lr}
    4690:	18cb      	adds	r3, r1, r3
    4692:	b29b      	uxth	r3, r3
    4694:	f5b3 6f00 	cmp.w	r3, #2048	; 0x800
    4698:	8503      	strh	r3, [r0, #40]	; 0x28
    469a:	bf84      	itt	hi
    469c:	f44f 6300 	movhi.w	r3, #2048	; 0x800
    46a0:	8503      	strhhi	r3, [r0, #40]	; 0x28
    46a2:	4604      	mov	r4, r0
    46a4:	f7fd fce0 	bl	2068 <tcp_update_rcv_ann_wnd>
    46a8:	f5b0 7f00 	cmp.w	r0, #512	; 0x200
    46ac:	db0a      	blt.n	46c4 <tcp_recved+0x38>
    46ae:	f894 3022 	ldrb.w	r3, [r4, #34]	; 0x22
    46b2:	4620      	mov	r0, r4
    46b4:	f043 0302 	orr.w	r3, r3, #2
    46b8:	f884 3022 	strb.w	r3, [r4, #34]	; 0x22
    46bc:	e8bd 4010 	ldmia.w	sp!, {r4, lr}
    46c0:	f7ff baf8 	b.w	3cb4 <tcp_output>
    46c4:	bd10      	pop	{r4, pc}
	...

000046c8 <tcp_receive>:
    46c8:	e92d 4ff7 	stmdb	sp!, {r0, r1, r2, r4, r5, r6, r7, r8, r9, sl, fp, lr}
    46cc:	4b6d      	ldr	r3, [pc, #436]	; (4884 <tcp_receive+0x1bc>)
    46ce:	4604      	mov	r4, r0
    46d0:	781b      	ldrb	r3, [r3, #0]
    46d2:	4e6d      	ldr	r6, [pc, #436]	; (4888 <tcp_receive+0x1c0>)
    46d4:	f013 0f10 	tst.w	r3, #16
    46d8:	f000 813b 	beq.w	4952 <tcp_receive+0x28a>
    46dc:	6e23      	ldr	r3, [r4, #96]	; 0x60
    46de:	6832      	ldr	r2, [r6, #0]
    46e0:	f8b0 005c 	ldrh.w	r0, [r0, #92]	; 0x5c
    46e4:	4293      	cmp	r3, r2
    46e6:	6e61      	ldr	r1, [r4, #100]	; 0x64
    46e8:	4d68      	ldr	r5, [pc, #416]	; (488c <tcp_receive+0x1c4>)
    46ea:	db0b      	blt.n	4704 <tcp_receive+0x3c>
    46ec:	d102      	bne.n	46f4 <tcp_receive+0x2c>
    46ee:	682b      	ldr	r3, [r5, #0]
    46f0:	4299      	cmp	r1, r3
    46f2:	db07      	blt.n	4704 <tcp_receive+0x3c>
    46f4:	682b      	ldr	r3, [r5, #0]
    46f6:	4299      	cmp	r1, r3
    46f8:	d113      	bne.n	4722 <tcp_receive+0x5a>
    46fa:	4b65      	ldr	r3, [pc, #404]	; (4890 <tcp_receive+0x1c8>)
    46fc:	681b      	ldr	r3, [r3, #0]
    46fe:	89db      	ldrh	r3, [r3, #14]
    4700:	4283      	cmp	r3, r0
    4702:	d90e      	bls.n	4722 <tcp_receive+0x5a>
    4704:	4b62      	ldr	r3, [pc, #392]	; (4890 <tcp_receive+0x1c8>)
    4706:	681b      	ldr	r3, [r3, #0]
    4708:	89db      	ldrh	r3, [r3, #14]
    470a:	6622      	str	r2, [r4, #96]	; 0x60
    470c:	682a      	ldr	r2, [r5, #0]
    470e:	f8a4 305c 	strh.w	r3, [r4, #92]	; 0x5c
    4712:	6662      	str	r2, [r4, #100]	; 0x64
    4714:	b12b      	cbz	r3, 4722 <tcp_receive+0x5a>
    4716:	f894 30a0 	ldrb.w	r3, [r4, #160]	; 0xa0
    471a:	b113      	cbz	r3, 4722 <tcp_receive+0x5a>
    471c:	2300      	movs	r3, #0
    471e:	f884 30a0 	strb.w	r3, [r4, #160]	; 0xa0
    4722:	682b      	ldr	r3, [r5, #0]
    4724:	6ce2      	ldr	r2, [r4, #76]	; 0x4c
    4726:	4293      	cmp	r3, r2
    4728:	dc2f      	bgt.n	478a <tcp_receive+0xc2>
    472a:	2700      	movs	r7, #0
    472c:	f8a4 706c 	strh.w	r7, [r4, #108]	; 0x6c
    4730:	4f58      	ldr	r7, [pc, #352]	; (4894 <tcp_receive+0x1cc>)
    4732:	883f      	ldrh	r7, [r7, #0]
    4734:	bb2f      	cbnz	r7, 4782 <tcp_receive+0xba>
    4736:	f8b4 c05c 	ldrh.w	ip, [r4, #92]	; 0x5c
    473a:	6e67      	ldr	r7, [r4, #100]	; 0x64
    473c:	1841      	adds	r1, r0, r1
    473e:	4467      	add	r7, ip
    4740:	428f      	cmp	r7, r1
    4742:	d11e      	bne.n	4782 <tcp_receive+0xba>
    4744:	f9b4 1036 	ldrsh.w	r1, [r4, #54]	; 0x36
    4748:	2900      	cmp	r1, #0
    474a:	db1a      	blt.n	4782 <tcp_receive+0xba>
    474c:	429a      	cmp	r2, r3
    474e:	d118      	bne.n	4782 <tcp_receive+0xba>
    4750:	f894 3050 	ldrb.w	r3, [r4, #80]	; 0x50
    4754:	3301      	adds	r3, #1
    4756:	b2db      	uxtb	r3, r3
    4758:	2b03      	cmp	r3, #3
    475a:	f884 3050 	strb.w	r3, [r4, #80]	; 0x50
    475e:	d90a      	bls.n	4776 <tcp_receive+0xae>
    4760:	f8b4 2052 	ldrh.w	r2, [r4, #82]	; 0x52
    4764:	8f23      	ldrh	r3, [r4, #56]	; 0x38
    4766:	18d3      	adds	r3, r2, r3
    4768:	b29b      	uxth	r3, r3
    476a:	4293      	cmp	r3, r2
    476c:	f240 80ad 	bls.w	48ca <tcp_receive+0x202>
    4770:	f8a4 3052 	strh.w	r3, [r4, #82]	; 0x52
    4774:	e0a9      	b.n	48ca <tcp_receive+0x202>
    4776:	f040 80a8 	bne.w	48ca <tcp_receive+0x202>
    477a:	4620      	mov	r0, r4
    477c:	f7fd fe7c 	bl	2478 <tcp_rexmit_fast>
    4780:	e0a3      	b.n	48ca <tcp_receive+0x202>
    4782:	2300      	movs	r3, #0
    4784:	f884 3050 	strb.w	r3, [r4, #80]	; 0x50
    4788:	e09f      	b.n	48ca <tcp_receive+0x202>
    478a:	1c51      	adds	r1, r2, #1
    478c:	428b      	cmp	r3, r1
    478e:	db74      	blt.n	487a <tcp_receive+0x1b2>
    4790:	6da1      	ldr	r1, [r4, #88]	; 0x58
    4792:	428b      	cmp	r3, r1
    4794:	dc71      	bgt.n	487a <tcp_receive+0x1b2>
    4796:	f894 1022 	ldrb.w	r1, [r4, #34]	; 0x22
    479a:	f011 0f04 	tst.w	r1, #4
    479e:	d007      	beq.n	47b0 <tcp_receive+0xe8>
    47a0:	f021 0104 	bic.w	r1, r1, #4
    47a4:	f884 1022 	strb.w	r1, [r4, #34]	; 0x22
    47a8:	f8b4 1054 	ldrh.w	r1, [r4, #84]	; 0x54
    47ac:	f8a4 1052 	strh.w	r1, [r4, #82]	; 0x52
    47b0:	f9b4 7044 	ldrsh.w	r7, [r4, #68]	; 0x44
    47b4:	f8b4 0046 	ldrh.w	r0, [r4, #70]	; 0x46
    47b8:	1a9a      	subs	r2, r3, r2
    47ba:	eb00 00e7 	add.w	r0, r0, r7, asr #3
    47be:	f8a4 0048 	strh.w	r0, [r4, #72]	; 0x48
    47c2:	64e3      	str	r3, [r4, #76]	; 0x4c
    47c4:	f8b4 006e 	ldrh.w	r0, [r4, #110]	; 0x6e
    47c8:	7c23      	ldrb	r3, [r4, #16]
    47ca:	2100      	movs	r1, #0
    47cc:	f8a4 206c 	strh.w	r2, [r4, #108]	; 0x6c
    47d0:	2b03      	cmp	r3, #3
    47d2:	4402      	add	r2, r0
    47d4:	f884 104a 	strb.w	r1, [r4, #74]	; 0x4a
    47d8:	f8a4 206e 	strh.w	r2, [r4, #110]	; 0x6e
    47dc:	f884 1050 	strb.w	r1, [r4, #80]	; 0x50
    47e0:	d92b      	bls.n	483a <tcp_receive+0x172>
    47e2:	f8b4 3052 	ldrh.w	r3, [r4, #82]	; 0x52
    47e6:	f8b4 2054 	ldrh.w	r2, [r4, #84]	; 0x54
    47ea:	429a      	cmp	r2, r3
    47ec:	d901      	bls.n	47f2 <tcp_receive+0x12a>
    47ee:	8f22      	ldrh	r2, [r4, #56]	; 0x38
    47f0:	e003      	b.n	47fa <tcp_receive+0x132>
    47f2:	8f22      	ldrh	r2, [r4, #56]	; 0x38
    47f4:	4352      	muls	r2, r2
    47f6:	fb92 f2f3 	sdiv	r2, r2, r3
    47fa:	189a      	adds	r2, r3, r2
    47fc:	b292      	uxth	r2, r2
    47fe:	429a      	cmp	r2, r3
    4800:	d91b      	bls.n	483a <tcp_receive+0x172>
    4802:	f8a4 2052 	strh.w	r2, [r4, #82]	; 0x52
    4806:	e018      	b.n	483a <tcp_receive+0x172>
    4808:	683b      	ldr	r3, [r7, #0]
    480a:	6878      	ldr	r0, [r7, #4]
    480c:	67a3      	str	r3, [r4, #120]	; 0x78
    480e:	f7fd fb30 	bl	1e72 <pbuf_clen>
    4812:	f8b4 306c 	ldrh.w	r3, [r4, #108]	; 0x6c
    4816:	b12b      	cbz	r3, 4824 <tcp_receive+0x15c>
    4818:	f018 0f01 	tst.w	r8, #1
    481c:	d002      	beq.n	4824 <tcp_receive+0x15c>
    481e:	3b01      	subs	r3, #1
    4820:	f8a4 306c 	strh.w	r3, [r4, #108]	; 0x6c
    4824:	6878      	ldr	r0, [r7, #4]
    4826:	f7fd fb24 	bl	1e72 <pbuf_clen>
    482a:	f8b4 3070 	ldrh.w	r3, [r4, #112]	; 0x70
    482e:	1a1b      	subs	r3, r3, r0
    4830:	f8a4 3070 	strh.w	r3, [r4, #112]	; 0x70
    4834:	4638      	mov	r0, r7
    4836:	f7fe fb6d 	bl	2f14 <tcp_seg_free>
    483a:	6fa7      	ldr	r7, [r4, #120]	; 0x78
    483c:	b1b7      	cbz	r7, 486c <tcp_receive+0x1a4>
    483e:	f8d7 8010 	ldr.w	r8, [r7, #16]
    4842:	f8d8 0004 	ldr.w	r0, [r8, #4]
    4846:	f7fd fd9c 	bl	2382 <ntohl>
    484a:	4681      	mov	r9, r0
    484c:	f8b8 000c 	ldrh.w	r0, [r8, #12]
    4850:	f7fd fce3 	bl	221a <ntohs>
    4854:	89bb      	ldrh	r3, [r7, #12]
    4856:	f000 0203 	and.w	r2, r0, #3
    485a:	2a00      	cmp	r2, #0
    485c:	bf18      	it	ne
    485e:	3301      	addne	r3, #1
    4860:	4499      	add	r9, r3
    4862:	682b      	ldr	r3, [r5, #0]
    4864:	4680      	mov	r8, r0
    4866:	4599      	cmp	r9, r3
    4868:	ddce      	ble.n	4808 <tcp_receive+0x140>
    486a:	e287      	b.n	4d7c <tcp_receive+0x6b4>
    486c:	f04f 33ff 	mov.w	r3, #4294967295
    4870:	86e3      	strh	r3, [r4, #54]	; 0x36
    4872:	2300      	movs	r3, #0
    4874:	f884 3034 	strb.w	r3, [r4, #52]	; 0x34
    4878:	e027      	b.n	48ca <tcp_receive+0x202>
    487a:	2700      	movs	r7, #0
    487c:	f8a4 706c 	strh.w	r7, [r4, #108]	; 0x6c
    4880:	e023      	b.n	48ca <tcp_receive+0x202>
    4882:	bf00      	nop
    4884:	200050b8 	.word	0x200050b8
    4888:	2000322c 	.word	0x2000322c
    488c:	20003448 	.word	0x20003448
    4890:	20003334 	.word	0x20003334
    4894:	20003376 	.word	0x20003376
    4898:	683b      	ldr	r3, [r7, #0]
    489a:	6878      	ldr	r0, [r7, #4]
    489c:	6763      	str	r3, [r4, #116]	; 0x74
    489e:	f7fd fae8 	bl	1e72 <pbuf_clen>
    48a2:	f8b4 306c 	ldrh.w	r3, [r4, #108]	; 0x6c
    48a6:	b12b      	cbz	r3, 48b4 <tcp_receive+0x1ec>
    48a8:	f019 0f01 	tst.w	r9, #1
    48ac:	d002      	beq.n	48b4 <tcp_receive+0x1ec>
    48ae:	3b01      	subs	r3, #1
    48b0:	f8a4 306c 	strh.w	r3, [r4, #108]	; 0x6c
    48b4:	6878      	ldr	r0, [r7, #4]
    48b6:	f7fd fadc 	bl	1e72 <pbuf_clen>
    48ba:	f8b4 3070 	ldrh.w	r3, [r4, #112]	; 0x70
    48be:	1a1b      	subs	r3, r3, r0
    48c0:	f8a4 3070 	strh.w	r3, [r4, #112]	; 0x70
    48c4:	4638      	mov	r0, r7
    48c6:	f7fe fb25 	bl	2f14 <tcp_seg_free>
    48ca:	6f67      	ldr	r7, [r4, #116]	; 0x74
    48cc:	b1cf      	cbz	r7, 4902 <tcp_receive+0x23a>
    48ce:	f8d7 9010 	ldr.w	r9, [r7, #16]
    48d2:	f8d5 8000 	ldr.w	r8, [r5]
    48d6:	f8d9 0004 	ldr.w	r0, [r9, #4]
    48da:	f7fd fd52 	bl	2382 <ntohl>
    48de:	4682      	mov	sl, r0
    48e0:	f8b9 000c 	ldrh.w	r0, [r9, #12]
    48e4:	f7fd fc99 	bl	221a <ntohs>
    48e8:	89bb      	ldrh	r3, [r7, #12]
    48ea:	f000 0203 	and.w	r2, r0, #3
    48ee:	2a00      	cmp	r2, #0
    48f0:	bf18      	it	ne
    48f2:	3301      	addne	r3, #1
    48f4:	449a      	add	sl, r3
    48f6:	45d0      	cmp	r8, sl
    48f8:	4681      	mov	r9, r0
    48fa:	db02      	blt.n	4902 <tcp_receive+0x23a>
    48fc:	6da3      	ldr	r3, [r4, #88]	; 0x58
    48fe:	4598      	cmp	r8, r3
    4900:	ddca      	ble.n	4898 <tcp_receive+0x1d0>
    4902:	6be3      	ldr	r3, [r4, #60]	; 0x3c
    4904:	b32b      	cbz	r3, 4952 <tcp_receive+0x28a>
    4906:	6c21      	ldr	r1, [r4, #64]	; 0x40
    4908:	682a      	ldr	r2, [r5, #0]
    490a:	4291      	cmp	r1, r2
    490c:	da21      	bge.n	4952 <tcp_receive+0x28a>
    490e:	4aa9      	ldr	r2, [pc, #676]	; (4bb4 <tcp_receive+0x4ec>)
    4910:	f8b4 1044 	ldrh.w	r1, [r4, #68]	; 0x44
    4914:	6812      	ldr	r2, [r2, #0]
    4916:	b208      	sxth	r0, r1
    4918:	1ad2      	subs	r2, r2, r3
    491a:	eba2 02e0 	sub.w	r2, r2, r0, asr #3
    491e:	b292      	uxth	r2, r2
    4920:	b293      	uxth	r3, r2
    4922:	1851      	adds	r1, r2, r1
    4924:	f413 4f00 	tst.w	r3, #32768	; 0x8000
    4928:	f8a4 1044 	strh.w	r1, [r4, #68]	; 0x44
    492c:	d001      	beq.n	4932 <tcp_receive+0x26a>
    492e:	4253      	negs	r3, r2
    4930:	b29b      	uxth	r3, r3
    4932:	f8b4 2046 	ldrh.w	r2, [r4, #70]	; 0x46
    4936:	b209      	sxth	r1, r1
    4938:	b210      	sxth	r0, r2
    493a:	eba2 02a0 	sub.w	r2, r2, r0, asr #2
    493e:	18d3      	adds	r3, r2, r3
    4940:	b29b      	uxth	r3, r3
    4942:	f8a4 3046 	strh.w	r3, [r4, #70]	; 0x46
    4946:	eb03 03e1 	add.w	r3, r3, r1, asr #3
    494a:	f8a4 3048 	strh.w	r3, [r4, #72]	; 0x48
    494e:	2300      	movs	r3, #0
    4950:	63e3      	str	r3, [r4, #60]	; 0x3c
    4952:	4b99      	ldr	r3, [pc, #612]	; (4bb8 <tcp_receive+0x4f0>)
    4954:	8819      	ldrh	r1, [r3, #0]
    4956:	4698      	mov	r8, r3
    4958:	6a63      	ldr	r3, [r4, #36]	; 0x24
    495a:	2900      	cmp	r1, #0
    495c:	f000 81f6 	beq.w	4d4c <tcp_receive+0x684>
    4960:	6832      	ldr	r2, [r6, #0]
    4962:	1c50      	adds	r0, r2, #1
    4964:	4283      	cmp	r3, r0
    4966:	db25      	blt.n	49b4 <tcp_receive+0x2ec>
    4968:	1e50      	subs	r0, r2, #1
    496a:	1841      	adds	r1, r0, r1
    496c:	428b      	cmp	r3, r1
    496e:	dc21      	bgt.n	49b4 <tcp_receive+0x2ec>
    4970:	4f92      	ldr	r7, [pc, #584]	; (4bbc <tcp_receive+0x4f4>)
    4972:	1a99      	subs	r1, r3, r2
    4974:	687d      	ldr	r5, [r7, #4]
    4976:	896b      	ldrh	r3, [r5, #10]
    4978:	428b      	cmp	r3, r1
    497a:	da0a      	bge.n	4992 <tcp_receive+0x2ca>
    497c:	892a      	ldrh	r2, [r5, #8]
    497e:	1a52      	subs	r2, r2, r1
    4980:	e004      	b.n	498c <tcp_receive+0x2c4>
    4982:	1ac9      	subs	r1, r1, r3
    4984:	2300      	movs	r3, #0
    4986:	812a      	strh	r2, [r5, #8]
    4988:	816b      	strh	r3, [r5, #10]
    498a:	682d      	ldr	r5, [r5, #0]
    498c:	896b      	ldrh	r3, [r5, #10]
    498e:	428b      	cmp	r3, r1
    4990:	dbf7      	blt.n	4982 <tcp_receive+0x2ba>
    4992:	4249      	negs	r1, r1
    4994:	b209      	sxth	r1, r1
    4996:	4628      	mov	r0, r5
    4998:	f7fd fa37 	bl	1e0a <pbuf_header>
    499c:	686b      	ldr	r3, [r5, #4]
    499e:	6831      	ldr	r1, [r6, #0]
    49a0:	89ba      	ldrh	r2, [r7, #12]
    49a2:	60bb      	str	r3, [r7, #8]
    49a4:	6a63      	ldr	r3, [r4, #36]	; 0x24
    49a6:	188a      	adds	r2, r1, r2
    49a8:	1ad2      	subs	r2, r2, r3
    49aa:	81ba      	strh	r2, [r7, #12]
    49ac:	693a      	ldr	r2, [r7, #16]
    49ae:	6033      	str	r3, [r6, #0]
    49b0:	6053      	str	r3, [r2, #4]
    49b2:	e00a      	b.n	49ca <tcp_receive+0x302>
    49b4:	429a      	cmp	r2, r3
    49b6:	da08      	bge.n	49ca <tcp_receive+0x302>
    49b8:	f894 3022 	ldrb.w	r3, [r4, #34]	; 0x22
    49bc:	4620      	mov	r0, r4
    49be:	f043 0302 	orr.w	r3, r3, #2
    49c2:	f884 3022 	strb.w	r3, [r4, #34]	; 0x22
    49c6:	f7ff f975 	bl	3cb4 <tcp_output>
    49ca:	6833      	ldr	r3, [r6, #0]
    49cc:	6a62      	ldr	r2, [r4, #36]	; 0x24
    49ce:	4293      	cmp	r3, r2
    49d0:	f2c0 81b6 	blt.w	4d40 <tcp_receive+0x678>
    49d4:	8d27      	ldrh	r7, [r4, #40]	; 0x28
    49d6:	1e51      	subs	r1, r2, #1
    49d8:	19c9      	adds	r1, r1, r7
    49da:	428b      	cmp	r3, r1
    49dc:	f300 81b0 	bgt.w	4d40 <tcp_receive+0x678>
    49e0:	429a      	cmp	r2, r3
    49e2:	f040 813f 	bne.w	4c64 <tcp_receive+0x59c>
    49e6:	4d75      	ldr	r5, [pc, #468]	; (4bbc <tcp_receive+0x4f4>)
    49e8:	f8d5 9010 	ldr.w	r9, [r5, #16]
    49ec:	f8b9 b00c 	ldrh.w	fp, [r9, #12]
    49f0:	4658      	mov	r0, fp
    49f2:	f7fd fc12 	bl	221a <ntohs>
    49f6:	89ab      	ldrh	r3, [r5, #12]
    49f8:	f000 0203 	and.w	r2, r0, #3
    49fc:	2a00      	cmp	r2, #0
    49fe:	bf18      	it	ne
    4a00:	3301      	addne	r3, #1
    4a02:	b29b      	uxth	r3, r3
    4a04:	42bb      	cmp	r3, r7
    4a06:	4682      	mov	sl, r0
    4a08:	f8a8 3000 	strh.w	r3, [r8]
    4a0c:	d92f      	bls.n	4a6e <tcp_receive+0x3a6>
    4a0e:	f010 0f01 	tst.w	r0, #1
    4a12:	d010      	beq.n	4a36 <tcp_receive+0x36e>
    4a14:	f64f 70c0 	movw	r0, #65472	; 0xffc0
    4a18:	f7fd fbbd 	bl	2196 <htons>
    4a1c:	4603      	mov	r3, r0
    4a1e:	f00a 003e 	and.w	r0, sl, #62	; 0x3e
    4a22:	9301      	str	r3, [sp, #4]
    4a24:	f7fd fbb7 	bl	2196 <htons>
    4a28:	9b01      	ldr	r3, [sp, #4]
    4a2a:	ea03 0b0b 	and.w	fp, r3, fp
    4a2e:	ea40 0b0b 	orr.w	fp, r0, fp
    4a32:	f8a9 b00c 	strh.w	fp, [r9, #12]
    4a36:	81af      	strh	r7, [r5, #12]
    4a38:	f8b9 000c 	ldrh.w	r0, [r9, #12]
    4a3c:	f7fd fbed 	bl	221a <ntohs>
    4a40:	f010 0f02 	tst.w	r0, #2
    4a44:	d002      	beq.n	4a4c <tcp_receive+0x384>
    4a46:	4b5d      	ldr	r3, [pc, #372]	; (4bbc <tcp_receive+0x4f4>)
    4a48:	3f01      	subs	r7, #1
    4a4a:	819f      	strh	r7, [r3, #12]
    4a4c:	6868      	ldr	r0, [r5, #4]
    4a4e:	89a9      	ldrh	r1, [r5, #12]
    4a50:	f7fe faa4 	bl	2f9c <pbuf_realloc>
    4a54:	692b      	ldr	r3, [r5, #16]
    4a56:	8998      	ldrh	r0, [r3, #12]
    4a58:	f7fd fbdf 	bl	221a <ntohs>
    4a5c:	89ab      	ldrh	r3, [r5, #12]
    4a5e:	f000 0003 	and.w	r0, r0, #3
    4a62:	2800      	cmp	r0, #0
    4a64:	bf0c      	ite	eq
    4a66:	4618      	moveq	r0, r3
    4a68:	1c58      	addne	r0, r3, #1
    4a6a:	f8a8 0000 	strh.w	r0, [r8]
    4a6e:	6fe7      	ldr	r7, [r4, #124]	; 0x7c
    4a70:	2f00      	cmp	r7, #0
    4a72:	d07f      	beq.n	4b74 <tcp_receive+0x4ac>
    4a74:	692b      	ldr	r3, [r5, #16]
    4a76:	8998      	ldrh	r0, [r3, #12]
    4a78:	f7fd fbcf 	bl	221a <ntohs>
    4a7c:	f010 0f01 	tst.w	r0, #1
    4a80:	d104      	bne.n	4a8c <tcp_receive+0x3c4>
    4a82:	e043      	b.n	4b0c <tcp_receive+0x444>
    4a84:	6803      	ldr	r3, [r0, #0]
    4a86:	67e3      	str	r3, [r4, #124]	; 0x7c
    4a88:	f7fe fa44 	bl	2f14 <tcp_seg_free>
    4a8c:	6fe0      	ldr	r0, [r4, #124]	; 0x7c
    4a8e:	2800      	cmp	r0, #0
    4a90:	d1f8      	bne.n	4a84 <tcp_receive+0x3bc>
    4a92:	e06f      	b.n	4b74 <tcp_receive+0x4ac>
    4a94:	8980      	ldrh	r0, [r0, #12]
    4a96:	f7fd fbc0 	bl	221a <ntohs>
    4a9a:	f010 0f01 	tst.w	r0, #1
    4a9e:	d02a      	beq.n	4af6 <tcp_receive+0x42e>
    4aa0:	f8d5 9010 	ldr.w	r9, [r5, #16]
    4aa4:	f8b9 a00c 	ldrh.w	sl, [r9, #12]
    4aa8:	4650      	mov	r0, sl
    4aaa:	f7fd fbb6 	bl	221a <ntohs>
    4aae:	f010 0f02 	tst.w	r0, #2
    4ab2:	4683      	mov	fp, r0
    4ab4:	d11f      	bne.n	4af6 <tcp_receive+0x42e>
    4ab6:	f64f 70c0 	movw	r0, #65472	; 0xffc0
    4aba:	f7fd fb6c 	bl	2196 <htons>
    4abe:	4603      	mov	r3, r0
    4ac0:	f00b 003e 	and.w	r0, fp, #62	; 0x3e
    4ac4:	f040 0001 	orr.w	r0, r0, #1
    4ac8:	9301      	str	r3, [sp, #4]
    4aca:	f7fd fb64 	bl	2196 <htons>
    4ace:	9b01      	ldr	r3, [sp, #4]
    4ad0:	ea03 0a0a 	and.w	sl, r3, sl
    4ad4:	ea40 000a 	orr.w	r0, r0, sl
    4ad8:	b280      	uxth	r0, r0
    4ada:	f8a9 000c 	strh.w	r0, [r9, #12]
    4ade:	f7fd fb9c 	bl	221a <ntohs>
    4ae2:	4b36      	ldr	r3, [pc, #216]	; (4bbc <tcp_receive+0x4f4>)
    4ae4:	f000 0003 	and.w	r0, r0, #3
    4ae8:	899b      	ldrh	r3, [r3, #12]
    4aea:	2800      	cmp	r0, #0
    4aec:	bf0c      	ite	eq
    4aee:	4618      	moveq	r0, r3
    4af0:	1c58      	addne	r0, r3, #1
    4af2:	4b31      	ldr	r3, [pc, #196]	; (4bb8 <tcp_receive+0x4f0>)
    4af4:	8018      	strh	r0, [r3, #0]
    4af6:	f8d7 9000 	ldr.w	r9, [r7]
    4afa:	4638      	mov	r0, r7
    4afc:	f7fe fa0a 	bl	2f14 <tcp_seg_free>
    4b00:	f1b9 0f00 	cmp.w	r9, #0
    4b04:	d101      	bne.n	4b0a <tcp_receive+0x442>
    4b06:	464f      	mov	r7, r9
    4b08:	e033      	b.n	4b72 <tcp_receive+0x4aa>
    4b0a:	464f      	mov	r7, r9
    4b0c:	6938      	ldr	r0, [r7, #16]
    4b0e:	6831      	ldr	r1, [r6, #0]
    4b10:	f8b8 2000 	ldrh.w	r2, [r8]
    4b14:	6843      	ldr	r3, [r0, #4]
    4b16:	f8b7 e00c 	ldrh.w	lr, [r7, #12]
    4b1a:	1852      	adds	r2, r2, r1
    4b1c:	449e      	add	lr, r3
    4b1e:	4572      	cmp	r2, lr
    4b20:	dab8      	bge.n	4a94 <tcp_receive+0x3cc>
    4b22:	e127      	b.n	4d74 <tcp_receive+0x6ac>
    4b24:	6fe3      	ldr	r3, [r4, #124]	; 0x7c
    4b26:	691b      	ldr	r3, [r3, #16]
    4b28:	f8d3 9004 	ldr.w	r9, [r3, #4]
    4b2c:	692b      	ldr	r3, [r5, #16]
    4b2e:	ebc1 0909 	rsb	r9, r1, r9
    4b32:	fa1f f989 	uxth.w	r9, r9
    4b36:	f8a5 900c 	strh.w	r9, [r5, #12]
    4b3a:	8998      	ldrh	r0, [r3, #12]
    4b3c:	f7fd fb6d 	bl	221a <ntohs>
    4b40:	f010 0f02 	tst.w	r0, #2
    4b44:	d004      	beq.n	4b50 <tcp_receive+0x488>
    4b46:	4b1d      	ldr	r3, [pc, #116]	; (4bbc <tcp_receive+0x4f4>)
    4b48:	f109 39ff 	add.w	r9, r9, #4294967295
    4b4c:	f8a3 900c 	strh.w	r9, [r3, #12]
    4b50:	6868      	ldr	r0, [r5, #4]
    4b52:	89a9      	ldrh	r1, [r5, #12]
    4b54:	f7fe fa22 	bl	2f9c <pbuf_realloc>
    4b58:	692b      	ldr	r3, [r5, #16]
    4b5a:	8998      	ldrh	r0, [r3, #12]
    4b5c:	f7fd fb5d 	bl	221a <ntohs>
    4b60:	89ab      	ldrh	r3, [r5, #12]
    4b62:	f000 0003 	and.w	r0, r0, #3
    4b66:	2800      	cmp	r0, #0
    4b68:	bf0c      	ite	eq
    4b6a:	4618      	moveq	r0, r3
    4b6c:	1c58      	addne	r0, r3, #1
    4b6e:	f8a8 0000 	strh.w	r0, [r8]
    4b72:	67e7      	str	r7, [r4, #124]	; 0x7c
    4b74:	f8b8 3000 	ldrh.w	r3, [r8]
    4b78:	6832      	ldr	r2, [r6, #0]
    4b7a:	4620      	mov	r0, r4
    4b7c:	189a      	adds	r2, r3, r2
    4b7e:	6262      	str	r2, [r4, #36]	; 0x24
    4b80:	8d22      	ldrh	r2, [r4, #40]	; 0x28
    4b82:	1ad3      	subs	r3, r2, r3
    4b84:	8523      	strh	r3, [r4, #40]	; 0x28
    4b86:	f7fd fa6f 	bl	2068 <tcp_update_rcv_ann_wnd>
    4b8a:	686b      	ldr	r3, [r5, #4]
    4b8c:	891a      	ldrh	r2, [r3, #8]
    4b8e:	b122      	cbz	r2, 4b9a <tcp_receive+0x4d2>
    4b90:	4a0b      	ldr	r2, [pc, #44]	; (4bc0 <tcp_receive+0x4f8>)
    4b92:	6013      	str	r3, [r2, #0]
    4b94:	4b09      	ldr	r3, [pc, #36]	; (4bbc <tcp_receive+0x4f4>)
    4b96:	2200      	movs	r2, #0
    4b98:	605a      	str	r2, [r3, #4]
    4b9a:	692b      	ldr	r3, [r5, #16]
    4b9c:	8998      	ldrh	r0, [r3, #12]
    4b9e:	f7fd fb3c 	bl	221a <ntohs>
    4ba2:	f010 0f01 	tst.w	r0, #1
    4ba6:	d049      	beq.n	4c3c <tcp_receive+0x574>
    4ba8:	4b06      	ldr	r3, [pc, #24]	; (4bc4 <tcp_receive+0x4fc>)
    4baa:	781a      	ldrb	r2, [r3, #0]
    4bac:	f042 0220 	orr.w	r2, r2, #32
    4bb0:	701a      	strb	r2, [r3, #0]
    4bb2:	e043      	b.n	4c3c <tcp_receive+0x574>
    4bb4:	20003240 	.word	0x20003240
    4bb8:	20003376 	.word	0x20003376
    4bbc:	200001c8 	.word	0x200001c8
    4bc0:	200001f0 	.word	0x200001f0
    4bc4:	20003374 	.word	0x20003374
    4bc8:	6037      	str	r7, [r6, #0]
    4bca:	8998      	ldrh	r0, [r3, #12]
    4bcc:	f7fd fb25 	bl	221a <ntohs>
    4bd0:	f000 0003 	and.w	r0, r0, #3
    4bd4:	f8b5 800c 	ldrh.w	r8, [r5, #12]
    4bd8:	3800      	subs	r0, #0
    4bda:	bf18      	it	ne
    4bdc:	2001      	movne	r0, #1
    4bde:	eb00 0308 	add.w	r3, r0, r8
    4be2:	19df      	adds	r7, r3, r7
    4be4:	8d23      	ldrh	r3, [r4, #40]	; 0x28
    4be6:	6267      	str	r7, [r4, #36]	; 0x24
    4be8:	ebc8 0803 	rsb	r8, r8, r3
    4bec:	ebc0 0008 	rsb	r0, r0, r8
    4bf0:	8520      	strh	r0, [r4, #40]	; 0x28
    4bf2:	4620      	mov	r0, r4
    4bf4:	f7fd fa38 	bl	2068 <tcp_update_rcv_ann_wnd>
    4bf8:	6869      	ldr	r1, [r5, #4]
    4bfa:	890b      	ldrh	r3, [r1, #8]
    4bfc:	b143      	cbz	r3, 4c10 <tcp_receive+0x548>
    4bfe:	4b62      	ldr	r3, [pc, #392]	; (4d88 <tcp_receive+0x6c0>)
    4c00:	6818      	ldr	r0, [r3, #0]
    4c02:	b110      	cbz	r0, 4c0a <tcp_receive+0x542>
    4c04:	f7fd f93e 	bl	1e84 <pbuf_cat>
    4c08:	e000      	b.n	4c0c <tcp_receive+0x544>
    4c0a:	6019      	str	r1, [r3, #0]
    4c0c:	2300      	movs	r3, #0
    4c0e:	606b      	str	r3, [r5, #4]
    4c10:	692b      	ldr	r3, [r5, #16]
    4c12:	8998      	ldrh	r0, [r3, #12]
    4c14:	f7fd fb01 	bl	221a <ntohs>
    4c18:	f010 0f01 	tst.w	r0, #1
    4c1c:	d009      	beq.n	4c32 <tcp_receive+0x56a>
    4c1e:	4b5b      	ldr	r3, [pc, #364]	; (4d8c <tcp_receive+0x6c4>)
    4c20:	781a      	ldrb	r2, [r3, #0]
    4c22:	f042 0220 	orr.w	r2, r2, #32
    4c26:	701a      	strb	r2, [r3, #0]
    4c28:	7c23      	ldrb	r3, [r4, #16]
    4c2a:	2b04      	cmp	r3, #4
    4c2c:	d101      	bne.n	4c32 <tcp_receive+0x56a>
    4c2e:	3303      	adds	r3, #3
    4c30:	7423      	strb	r3, [r4, #16]
    4c32:	682b      	ldr	r3, [r5, #0]
    4c34:	4628      	mov	r0, r5
    4c36:	67e3      	str	r3, [r4, #124]	; 0x7c
    4c38:	f7fe f96c 	bl	2f14 <tcp_seg_free>
    4c3c:	6fe5      	ldr	r5, [r4, #124]	; 0x7c
    4c3e:	b125      	cbz	r5, 4c4a <tcp_receive+0x582>
    4c40:	692b      	ldr	r3, [r5, #16]
    4c42:	6a62      	ldr	r2, [r4, #36]	; 0x24
    4c44:	685f      	ldr	r7, [r3, #4]
    4c46:	4297      	cmp	r7, r2
    4c48:	d0be      	beq.n	4bc8 <tcp_receive+0x500>
    4c4a:	f894 3022 	ldrb.w	r3, [r4, #34]	; 0x22
    4c4e:	f013 0f01 	tst.w	r3, #1
    4c52:	d002      	beq.n	4c5a <tcp_receive+0x592>
    4c54:	f023 0301 	bic.w	r3, r3, #1
    4c58:	e082      	b.n	4d60 <tcp_receive+0x698>
    4c5a:	f043 0301 	orr.w	r3, r3, #1
    4c5e:	f884 3022 	strb.w	r3, [r4, #34]	; 0x22
    4c62:	e08d      	b.n	4d80 <tcp_receive+0x6b8>
    4c64:	4620      	mov	r0, r4
    4c66:	f7fe fff1 	bl	3c4c <tcp_send_empty_ack>
    4c6a:	6fe5      	ldr	r5, [r4, #124]	; 0x7c
    4c6c:	b925      	cbnz	r5, 4c78 <tcp_receive+0x5b0>
    4c6e:	4848      	ldr	r0, [pc, #288]	; (4d90 <tcp_receive+0x6c8>)
    4c70:	f7fd fe46 	bl	2900 <tcp_seg_copy>
    4c74:	67e0      	str	r0, [r4, #124]	; 0x7c
    4c76:	e083      	b.n	4d80 <tcp_receive+0x6b8>
    4c78:	4b46      	ldr	r3, [pc, #280]	; (4d94 <tcp_receive+0x6cc>)
    4c7a:	2700      	movs	r7, #0
    4c7c:	681b      	ldr	r3, [r3, #0]
    4c7e:	e001      	b.n	4c84 <tcp_receive+0x5bc>
    4c80:	462f      	mov	r7, r5
    4c82:	4605      	mov	r5, r0
    4c84:	6929      	ldr	r1, [r5, #16]
    4c86:	684a      	ldr	r2, [r1, #4]
    4c88:	4293      	cmp	r3, r2
    4c8a:	d10b      	bne.n	4ca4 <tcp_receive+0x5dc>
    4c8c:	4840      	ldr	r0, [pc, #256]	; (4d90 <tcp_receive+0x6c8>)
    4c8e:	89ab      	ldrh	r3, [r5, #12]
    4c90:	8982      	ldrh	r2, [r0, #12]
    4c92:	429a      	cmp	r2, r3
    4c94:	d974      	bls.n	4d80 <tcp_receive+0x6b8>
    4c96:	f7fd fe33 	bl	2900 <tcp_seg_copy>
    4c9a:	2800      	cmp	r0, #0
    4c9c:	d070      	beq.n	4d80 <tcp_receive+0x6b8>
    4c9e:	b14f      	cbz	r7, 4cb4 <tcp_receive+0x5ec>
    4ca0:	6038      	str	r0, [r7, #0]
    4ca2:	e008      	b.n	4cb6 <tcp_receive+0x5ee>
    4ca4:	b96f      	cbnz	r7, 4cc2 <tcp_receive+0x5fa>
    4ca6:	4293      	cmp	r3, r2
    4ca8:	da29      	bge.n	4cfe <tcp_receive+0x636>
    4caa:	4839      	ldr	r0, [pc, #228]	; (4d90 <tcp_receive+0x6c8>)
    4cac:	f7fd fe28 	bl	2900 <tcp_seg_copy>
    4cb0:	2800      	cmp	r0, #0
    4cb2:	d065      	beq.n	4d80 <tcp_receive+0x6b8>
    4cb4:	67e0      	str	r0, [r4, #124]	; 0x7c
    4cb6:	4629      	mov	r1, r5
    4cb8:	b003      	add	sp, #12
    4cba:	e8bd 4ff0 	ldmia.w	sp!, {r4, r5, r6, r7, r8, r9, sl, fp, lr}
    4cbe:	f7fe b993 	b.w	2fe8 <tcp_oos_insert_segment>
    4cc2:	6938      	ldr	r0, [r7, #16]
    4cc4:	6840      	ldr	r0, [r0, #4]
    4cc6:	3001      	adds	r0, #1
    4cc8:	4283      	cmp	r3, r0
    4cca:	db18      	blt.n	4cfe <tcp_receive+0x636>
    4ccc:	1e50      	subs	r0, r2, #1
    4cce:	4283      	cmp	r3, r0
    4cd0:	dc15      	bgt.n	4cfe <tcp_receive+0x636>
    4cd2:	482f      	ldr	r0, [pc, #188]	; (4d90 <tcp_receive+0x6c8>)
    4cd4:	f7fd fe14 	bl	2900 <tcp_seg_copy>
    4cd8:	4604      	mov	r4, r0
    4cda:	2800      	cmp	r0, #0
    4cdc:	d050      	beq.n	4d80 <tcp_receive+0x6b8>
    4cde:	693b      	ldr	r3, [r7, #16]
    4ce0:	89ba      	ldrh	r2, [r7, #12]
    4ce2:	685b      	ldr	r3, [r3, #4]
    4ce4:	6831      	ldr	r1, [r6, #0]
    4ce6:	18d2      	adds	r2, r2, r3
    4ce8:	428a      	cmp	r2, r1
    4cea:	dd05      	ble.n	4cf8 <tcp_receive+0x630>
    4cec:	1ac9      	subs	r1, r1, r3
    4cee:	b289      	uxth	r1, r1
    4cf0:	81b9      	strh	r1, [r7, #12]
    4cf2:	6878      	ldr	r0, [r7, #4]
    4cf4:	f7fe f952 	bl	2f9c <pbuf_realloc>
    4cf8:	603c      	str	r4, [r7, #0]
    4cfa:	4620      	mov	r0, r4
    4cfc:	e7db      	b.n	4cb6 <tcp_receive+0x5ee>
    4cfe:	6828      	ldr	r0, [r5, #0]
    4d00:	2800      	cmp	r0, #0
    4d02:	d1bd      	bne.n	4c80 <tcp_receive+0x5b8>
    4d04:	4293      	cmp	r3, r2
    4d06:	dd3b      	ble.n	4d80 <tcp_receive+0x6b8>
    4d08:	8988      	ldrh	r0, [r1, #12]
    4d0a:	f7fd fa86 	bl	221a <ntohs>
    4d0e:	f010 0f01 	tst.w	r0, #1
    4d12:	d135      	bne.n	4d80 <tcp_receive+0x6b8>
    4d14:	481e      	ldr	r0, [pc, #120]	; (4d90 <tcp_receive+0x6c8>)
    4d16:	f7fd fdf3 	bl	2900 <tcp_seg_copy>
    4d1a:	6028      	str	r0, [r5, #0]
    4d1c:	2800      	cmp	r0, #0
    4d1e:	d02f      	beq.n	4d80 <tcp_receive+0x6b8>
    4d20:	692b      	ldr	r3, [r5, #16]
    4d22:	89aa      	ldrh	r2, [r5, #12]
    4d24:	685b      	ldr	r3, [r3, #4]
    4d26:	6831      	ldr	r1, [r6, #0]
    4d28:	18d2      	adds	r2, r2, r3
    4d2a:	428a      	cmp	r2, r1
    4d2c:	dd28      	ble.n	4d80 <tcp_receive+0x6b8>
    4d2e:	1ac9      	subs	r1, r1, r3
    4d30:	6868      	ldr	r0, [r5, #4]
    4d32:	b289      	uxth	r1, r1
    4d34:	81a9      	strh	r1, [r5, #12]
    4d36:	b003      	add	sp, #12
    4d38:	e8bd 4ff0 	ldmia.w	sp!, {r4, r5, r6, r7, r8, r9, sl, fp, lr}
    4d3c:	f7fe b92e 	b.w	2f9c <pbuf_realloc>
    4d40:	4620      	mov	r0, r4
    4d42:	b003      	add	sp, #12
    4d44:	e8bd 4ff0 	ldmia.w	sp!, {r4, r5, r6, r7, r8, r9, sl, fp, lr}
    4d48:	f7fe bf80 	b.w	3c4c <tcp_send_empty_ack>
    4d4c:	6832      	ldr	r2, [r6, #0]
    4d4e:	429a      	cmp	r2, r3
    4d50:	db04      	blt.n	4d5c <tcp_receive+0x694>
    4d52:	8d21      	ldrh	r1, [r4, #40]	; 0x28
    4d54:	3b01      	subs	r3, #1
    4d56:	185b      	adds	r3, r3, r1
    4d58:	429a      	cmp	r2, r3
    4d5a:	dd11      	ble.n	4d80 <tcp_receive+0x6b8>
    4d5c:	f894 3022 	ldrb.w	r3, [r4, #34]	; 0x22
    4d60:	f043 0302 	orr.w	r3, r3, #2
    4d64:	4620      	mov	r0, r4
    4d66:	f884 3022 	strb.w	r3, [r4, #34]	; 0x22
    4d6a:	b003      	add	sp, #12
    4d6c:	e8bd 4ff0 	ldmia.w	sp!, {r4, r5, r6, r7, r8, r9, sl, fp, lr}
    4d70:	f7fe bfa0 	b.w	3cb4 <tcp_output>
    4d74:	429a      	cmp	r2, r3
    4d76:	f73f aed5 	bgt.w	4b24 <tcp_receive+0x45c>
    4d7a:	e6fa      	b.n	4b72 <tcp_receive+0x4aa>
    4d7c:	2300      	movs	r3, #0
    4d7e:	e577      	b.n	4870 <tcp_receive+0x1a8>
    4d80:	b003      	add	sp, #12
    4d82:	e8bd 8ff0 	ldmia.w	sp!, {r4, r5, r6, r7, r8, r9, sl, fp, pc}
    4d86:	bf00      	nop
    4d88:	200001f0 	.word	0x200001f0
    4d8c:	20003374 	.word	0x20003374
    4d90:	200001c8 	.word	0x200001c8
    4d94:	2000322c 	.word	0x2000322c

00004d98 <tcp_enqueue>:
    4d98:	e92d 4ff0 	stmdb	sp!, {r4, r5, r6, r7, r8, r9, sl, fp, lr}
    4d9c:	b08b      	sub	sp, #44	; 0x2c
    4d9e:	9108      	str	r1, [sp, #32]
    4da0:	4699      	mov	r9, r3
    4da2:	f89d 1050 	ldrb.w	r1, [sp, #80]	; 0x50
    4da6:	f89d 3054 	ldrb.w	r3, [sp, #84]	; 0x54
    4daa:	4604      	mov	r4, r0
    4dac:	9106      	str	r1, [sp, #24]
    4dae:	9304      	str	r3, [sp, #16]
    4db0:	4692      	mov	sl, r2
    4db2:	b942      	cbnz	r2, 4dc6 <tcp_enqueue+0x2e>
    4db4:	b91b      	cbnz	r3, 4dbe <tcp_enqueue+0x26>
    4db6:	f019 0f03 	tst.w	r9, #3
    4dba:	f000 81ae 	beq.w	511a <tcp_enqueue+0x382>
    4dbe:	9908      	ldr	r1, [sp, #32]
    4dc0:	2900      	cmp	r1, #0
    4dc2:	f040 81aa 	bne.w	511a <tcp_enqueue+0x382>
    4dc6:	f8b4 306e 	ldrh.w	r3, [r4, #110]	; 0x6e
    4dca:	4553      	cmp	r3, sl
    4dcc:	d316      	bcc.n	4dfc <tcp_enqueue+0x64>
    4dce:	9a04      	ldr	r2, [sp, #16]
    4dd0:	f8b4 7070 	ldrh.w	r7, [r4, #112]	; 0x70
    4dd4:	f012 0301 	ands.w	r3, r2, #1
    4dd8:	bf18      	it	ne
    4dda:	2304      	movne	r3, #4
    4ddc:	f012 0202 	ands.w	r2, r2, #2
    4de0:	bf18      	it	ne
    4de2:	220c      	movne	r2, #12
    4de4:	18d2      	adds	r2, r2, r3
    4de6:	6ea3      	ldr	r3, [r4, #104]	; 0x68
    4de8:	2f17      	cmp	r7, #23
    4dea:	9203      	str	r2, [sp, #12]
    4dec:	9307      	str	r3, [sp, #28]
    4dee:	d90c      	bls.n	4e0a <tcp_enqueue+0x72>
    4df0:	4b9b      	ldr	r3, [pc, #620]	; (5060 <tcp_enqueue+0x2c8>)
    4df2:	f8b3 2084 	ldrh.w	r2, [r3, #132]	; 0x84
    4df6:	3201      	adds	r2, #1
    4df8:	f8a3 2084 	strh.w	r2, [r3, #132]	; 0x84
    4dfc:	f894 3022 	ldrb.w	r3, [r4, #34]	; 0x22
    4e00:	f063 037f 	orn	r3, r3, #127	; 0x7f
    4e04:	f884 3022 	strb.w	r3, [r4, #34]	; 0x22
    4e08:	e18f      	b.n	512a <tcp_enqueue+0x392>
    4e0a:	9903      	ldr	r1, [sp, #12]
    4e0c:	2600      	movs	r6, #0
    4e0e:	088b      	lsrs	r3, r1, #2
    4e10:	3305      	adds	r3, #5
    4e12:	031b      	lsls	r3, r3, #12
    4e14:	9309      	str	r3, [sp, #36]	; 0x24
    4e16:	f8dd b020 	ldr.w	fp, [sp, #32]
    4e1a:	f8cd a014 	str.w	sl, [sp, #20]
    4e1e:	46b0      	mov	r8, r6
    4e20:	e000      	b.n	4e24 <tcp_enqueue+0x8c>
    4e22:	46a8      	mov	r8, r5
    4e24:	8f23      	ldrh	r3, [r4, #56]	; 0x38
    4e26:	2004      	movs	r0, #4
    4e28:	9301      	str	r3, [sp, #4]
    4e2a:	f7fd fd2b 	bl	2884 <memp_malloc>
    4e2e:	9b01      	ldr	r3, [sp, #4]
    4e30:	4605      	mov	r5, r0
    4e32:	2800      	cmp	r0, #0
    4e34:	f000 8160 	beq.w	50f8 <tcp_enqueue+0x360>
    4e38:	2200      	movs	r2, #0
    4e3a:	6002      	str	r2, [r0, #0]
    4e3c:	6042      	str	r2, [r0, #4]
    4e3e:	b116      	cbz	r6, 4e46 <tcp_enqueue+0xae>
    4e40:	f8c8 0000 	str.w	r0, [r8]
    4e44:	e000      	b.n	4e48 <tcp_enqueue+0xb0>
    4e46:	4606      	mov	r6, r0
    4e48:	9a03      	ldr	r2, [sp, #12]
    4e4a:	9906      	ldr	r1, [sp, #24]
    4e4c:	ebc2 0803 	rsb	r8, r2, r3
    4e50:	9b05      	ldr	r3, [sp, #20]
    4e52:	4543      	cmp	r3, r8
    4e54:	bfb8      	it	lt
    4e56:	4698      	movlt	r8, r3
    4e58:	f011 0001 	ands.w	r0, r1, #1
    4e5c:	fa1f f888 	uxth.w	r8, r8
    4e60:	d01d      	beq.n	4e9e <tcp_enqueue+0x106>
    4e62:	eb08 0102 	add.w	r1, r8, r2
    4e66:	2000      	movs	r0, #0
    4e68:	b289      	uxth	r1, r1
    4e6a:	4602      	mov	r2, r0
    4e6c:	f7fe f906 	bl	307c <pbuf_alloc>
    4e70:	6068      	str	r0, [r5, #4]
    4e72:	2800      	cmp	r0, #0
    4e74:	f000 8140 	beq.w	50f8 <tcp_enqueue+0x360>
    4e78:	9001      	str	r0, [sp, #4]
    4e7a:	f7fc fffa 	bl	1e72 <pbuf_clen>
    4e7e:	9a08      	ldr	r2, [sp, #32]
    4e80:	19c7      	adds	r7, r0, r7
    4e82:	b2bf      	uxth	r7, r7
    4e84:	9b01      	ldr	r3, [sp, #4]
    4e86:	b132      	cbz	r2, 4e96 <tcp_enqueue+0xfe>
    4e88:	6858      	ldr	r0, [r3, #4]
    4e8a:	9b03      	ldr	r3, [sp, #12]
    4e8c:	4659      	mov	r1, fp
    4e8e:	18c0      	adds	r0, r0, r3
    4e90:	4642      	mov	r2, r8
    4e92:	f002 fd4d 	bl	7930 <memcpy>
    4e96:	686b      	ldr	r3, [r5, #4]
    4e98:	685b      	ldr	r3, [r3, #4]
    4e9a:	60ab      	str	r3, [r5, #8]
    4e9c:	e024      	b.n	4ee8 <tcp_enqueue+0x150>
    4e9e:	9903      	ldr	r1, [sp, #12]
    4ea0:	4602      	mov	r2, r0
    4ea2:	f7fe f8eb 	bl	307c <pbuf_alloc>
    4ea6:	6068      	str	r0, [r5, #4]
    4ea8:	2800      	cmp	r0, #0
    4eaa:	f000 8125 	beq.w	50f8 <tcp_enqueue+0x360>
    4eae:	f7fc ffe0 	bl	1e72 <pbuf_clen>
    4eb2:	9905      	ldr	r1, [sp, #20]
    4eb4:	19c7      	adds	r7, r0, r7
    4eb6:	b2bf      	uxth	r7, r7
    4eb8:	b1b1      	cbz	r1, 4ee8 <tcp_enqueue+0x150>
    4eba:	4641      	mov	r1, r8
    4ebc:	2003      	movs	r0, #3
    4ebe:	2201      	movs	r2, #1
    4ec0:	f7fe f8dc 	bl	307c <pbuf_alloc>
    4ec4:	4601      	mov	r1, r0
    4ec6:	b930      	cbnz	r0, 4ed6 <tcp_enqueue+0x13e>
    4ec8:	6868      	ldr	r0, [r5, #4]
    4eca:	9102      	str	r1, [sp, #8]
    4ecc:	f7fd fe79 	bl	2bc2 <pbuf_free>
    4ed0:	9902      	ldr	r1, [sp, #8]
    4ed2:	6069      	str	r1, [r5, #4]
    4ed4:	e110      	b.n	50f8 <tcp_enqueue+0x360>
    4ed6:	f8c0 b004 	str.w	fp, [r0, #4]
    4eda:	3701      	adds	r7, #1
    4edc:	f8c5 b008 	str.w	fp, [r5, #8]
    4ee0:	6868      	ldr	r0, [r5, #4]
    4ee2:	b2bf      	uxth	r7, r7
    4ee4:	f7fc ffce 	bl	1e84 <pbuf_cat>
    4ee8:	2f18      	cmp	r7, #24
    4eea:	f200 8105 	bhi.w	50f8 <tcp_enqueue+0x360>
    4eee:	f8a5 800c 	strh.w	r8, [r5, #12]
    4ef2:	6868      	ldr	r0, [r5, #4]
    4ef4:	2114      	movs	r1, #20
    4ef6:	f7fc ff88 	bl	1e0a <pbuf_header>
    4efa:	4602      	mov	r2, r0
    4efc:	2800      	cmp	r0, #0
    4efe:	f040 808e 	bne.w	501e <tcp_enqueue+0x286>
    4f02:	686b      	ldr	r3, [r5, #4]
    4f04:	8b20      	ldrh	r0, [r4, #24]
    4f06:	685b      	ldr	r3, [r3, #4]
    4f08:	44c3      	add	fp, r8
    4f0a:	612b      	str	r3, [r5, #16]
    4f0c:	9202      	str	r2, [sp, #8]
    4f0e:	9301      	str	r3, [sp, #4]
    4f10:	f7fd f941 	bl	2196 <htons>
    4f14:	9b01      	ldr	r3, [sp, #4]
    4f16:	8018      	strh	r0, [r3, #0]
    4f18:	8c20      	ldrh	r0, [r4, #32]
    4f1a:	9301      	str	r3, [sp, #4]
    4f1c:	f7fd f93b 	bl	2196 <htons>
    4f20:	9b01      	ldr	r3, [sp, #4]
    4f22:	8058      	strh	r0, [r3, #2]
    4f24:	9807      	ldr	r0, [sp, #28]
    4f26:	9301      	str	r3, [sp, #4]
    4f28:	f7fd f9ec 	bl	2304 <htonl>
    4f2c:	9b01      	ldr	r3, [sp, #4]
    4f2e:	6058      	str	r0, [r3, #4]
    4f30:	9a02      	ldr	r2, [sp, #8]
    4f32:	f64f 70c0 	movw	r0, #65472	; 0xffc0
    4f36:	749a      	strb	r2, [r3, #18]
    4f38:	74da      	strb	r2, [r3, #19]
    4f3a:	9301      	str	r3, [sp, #4]
    4f3c:	f7fd f92b 	bl	2196 <htons>
    4f40:	4602      	mov	r2, r0
    4f42:	4648      	mov	r0, r9
    4f44:	9202      	str	r2, [sp, #8]
    4f46:	f7fd f926 	bl	2196 <htons>
    4f4a:	9b01      	ldr	r3, [sp, #4]
    4f4c:	9a02      	ldr	r2, [sp, #8]
    4f4e:	8999      	ldrh	r1, [r3, #12]
    4f50:	400a      	ands	r2, r1
    4f52:	ea40 0202 	orr.w	r2, r0, r2
    4f56:	819a      	strh	r2, [r3, #12]
    4f58:	9a04      	ldr	r2, [sp, #16]
    4f5a:	73aa      	strb	r2, [r5, #14]
    4f5c:	8998      	ldrh	r0, [r3, #12]
    4f5e:	9301      	str	r3, [sp, #4]
    4f60:	f7fd f95b 	bl	221a <ntohs>
    4f64:	9909      	ldr	r1, [sp, #36]	; 0x24
    4f66:	f000 003f 	and.w	r0, r0, #63	; 0x3f
    4f6a:	ea41 0000 	orr.w	r0, r1, r0
    4f6e:	f7fd f912 	bl	2196 <htons>
    4f72:	9b01      	ldr	r3, [sp, #4]
    4f74:	8198      	strh	r0, [r3, #12]
    4f76:	9a05      	ldr	r2, [sp, #20]
    4f78:	ebc8 0302 	rsb	r3, r8, r2
    4f7c:	b29b      	uxth	r3, r3
    4f7e:	9305      	str	r3, [sp, #20]
    4f80:	9b07      	ldr	r3, [sp, #28]
    4f82:	9905      	ldr	r1, [sp, #20]
    4f84:	4443      	add	r3, r8
    4f86:	9307      	str	r3, [sp, #28]
    4f88:	2900      	cmp	r1, #0
    4f8a:	f47f af4a 	bne.w	4e22 <tcp_enqueue+0x8a>
    4f8e:	f8d4 b074 	ldr.w	fp, [r4, #116]	; 0x74
    4f92:	f1bb 0f00 	cmp.w	fp, #0
    4f96:	d101      	bne.n	4f9c <tcp_enqueue+0x204>
    4f98:	e07c      	b.n	5094 <tcp_enqueue+0x2fc>
    4f9a:	469b      	mov	fp, r3
    4f9c:	f8db 3000 	ldr.w	r3, [fp]
    4fa0:	2b00      	cmp	r3, #0
    4fa2:	d1fa      	bne.n	4f9a <tcp_enqueue+0x202>
    4fa4:	f8db 2010 	ldr.w	r2, [fp, #16]
    4fa8:	f8bb 300c 	ldrh.w	r3, [fp, #12]
    4fac:	8990      	ldrh	r0, [r2, #12]
    4fae:	9202      	str	r2, [sp, #8]
    4fb0:	9301      	str	r3, [sp, #4]
    4fb2:	f7fd f932 	bl	221a <ntohs>
    4fb6:	9b01      	ldr	r3, [sp, #4]
    4fb8:	f000 0103 	and.w	r1, r0, #3
    4fbc:	f010 0003 	ands.w	r0, r0, #3
    4fc0:	bf18      	it	ne
    4fc2:	2001      	movne	r0, #1
    4fc4:	18c0      	adds	r0, r0, r3
    4fc6:	9a02      	ldr	r2, [sp, #8]
    4fc8:	2800      	cmp	r0, #0
    4fca:	d065      	beq.n	5098 <tcp_enqueue+0x300>
    4fcc:	2900      	cmp	r1, #0
    4fce:	d163      	bne.n	5098 <tcp_enqueue+0x300>
    4fd0:	f019 0f03 	tst.w	r9, #3
    4fd4:	d002      	beq.n	4fdc <tcp_enqueue+0x244>
    4fd6:	f1b9 0f01 	cmp.w	r9, #1
    4fda:	d15d      	bne.n	5098 <tcp_enqueue+0x300>
    4fdc:	89b0      	ldrh	r0, [r6, #12]
    4fde:	8f21      	ldrh	r1, [r4, #56]	; 0x38
    4fe0:	18c0      	adds	r0, r0, r3
    4fe2:	4288      	cmp	r0, r1
    4fe4:	dc58      	bgt.n	5098 <tcp_enqueue+0x300>
    4fe6:	f89b 000e 	ldrb.w	r0, [fp, #14]
    4fea:	7bb1      	ldrb	r1, [r6, #14]
    4fec:	4288      	cmp	r0, r1
    4fee:	d153      	bne.n	5098 <tcp_enqueue+0x300>
    4ff0:	6850      	ldr	r0, [r2, #4]
    4ff2:	9301      	str	r3, [sp, #4]
    4ff4:	f7fd f9c5 	bl	2382 <ntohl>
    4ff8:	6931      	ldr	r1, [r6, #16]
    4ffa:	4602      	mov	r2, r0
    4ffc:	6848      	ldr	r0, [r1, #4]
    4ffe:	9202      	str	r2, [sp, #8]
    5000:	f7fd f9bf 	bl	2382 <ntohl>
    5004:	9a02      	ldr	r2, [sp, #8]
    5006:	9b01      	ldr	r3, [sp, #4]
    5008:	18d3      	adds	r3, r2, r3
    500a:	4283      	cmp	r3, r0
    500c:	d144      	bne.n	5098 <tcp_enqueue+0x300>
    500e:	9a03      	ldr	r2, [sp, #12]
    5010:	f06f 0113 	mvn.w	r1, #19
    5014:	6870      	ldr	r0, [r6, #4]
    5016:	1a89      	subs	r1, r1, r2
    5018:	f7fc fef7 	bl	1e0a <pbuf_header>
    501c:	b130      	cbz	r0, 502c <tcp_enqueue+0x294>
    501e:	4b10      	ldr	r3, [pc, #64]	; (5060 <tcp_enqueue+0x2c8>)
    5020:	f8b3 208c 	ldrh.w	r2, [r3, #140]	; 0x8c
    5024:	3201      	adds	r2, #1
    5026:	f8a3 208c 	strh.w	r2, [r3, #140]	; 0x8c
    502a:	e065      	b.n	50f8 <tcp_enqueue+0x360>
    502c:	6870      	ldr	r0, [r6, #4]
    502e:	8943      	ldrh	r3, [r0, #10]
    5030:	b933      	cbnz	r3, 5040 <tcp_enqueue+0x2a8>
    5032:	6802      	ldr	r2, [r0, #0]
    5034:	3f01      	subs	r7, #1
    5036:	6072      	str	r2, [r6, #4]
    5038:	6003      	str	r3, [r0, #0]
    503a:	b2bf      	uxth	r7, r7
    503c:	f7fd fdc1 	bl	2bc2 <pbuf_free>
    5040:	f019 0f01 	tst.w	r9, #1
    5044:	d00e      	beq.n	5064 <tcp_enqueue+0x2cc>
    5046:	f8db 3010 	ldr.w	r3, [fp, #16]
    504a:	2001      	movs	r0, #1
    504c:	9301      	str	r3, [sp, #4]
    504e:	f7fd f8a2 	bl	2196 <htons>
    5052:	9b01      	ldr	r3, [sp, #4]
    5054:	899a      	ldrh	r2, [r3, #12]
    5056:	ea40 0202 	orr.w	r2, r0, r2
    505a:	819a      	strh	r2, [r3, #12]
    505c:	e010      	b.n	5080 <tcp_enqueue+0x2e8>
    505e:	bf00      	nop
    5060:	20003244 	.word	0x20003244
    5064:	f8db 0004 	ldr.w	r0, [fp, #4]
    5068:	6871      	ldr	r1, [r6, #4]
    506a:	f7fc ff0b 	bl	1e84 <pbuf_cat>
    506e:	89b2      	ldrh	r2, [r6, #12]
    5070:	f8bb 300c 	ldrh.w	r3, [fp, #12]
    5074:	18d3      	adds	r3, r2, r3
    5076:	f8ab 300c 	strh.w	r3, [fp, #12]
    507a:	6833      	ldr	r3, [r6, #0]
    507c:	f8cb 3000 	str.w	r3, [fp]
    5080:	42b5      	cmp	r5, r6
    5082:	bf04      	itt	eq
    5084:	f8bb 800c 	ldrheq.w	r8, [fp, #12]
    5088:	465d      	moveq	r5, fp
    508a:	4631      	mov	r1, r6
    508c:	2004      	movs	r0, #4
    508e:	f7fd fbc5 	bl	281c <memp_free>
    5092:	e003      	b.n	509c <tcp_enqueue+0x304>
    5094:	6766      	str	r6, [r4, #116]	; 0x74
    5096:	e001      	b.n	509c <tcp_enqueue+0x304>
    5098:	f8cb 6000 	str.w	r6, [fp]
    509c:	f019 0f02 	tst.w	r9, #2
    50a0:	f009 0301 	and.w	r3, r9, #1
    50a4:	d100      	bne.n	50a8 <tcp_enqueue+0x310>
    50a6:	b11b      	cbz	r3, 50b0 <tcp_enqueue+0x318>
    50a8:	f10a 0a01 	add.w	sl, sl, #1
    50ac:	fa1f fa8a 	uxth.w	sl, sl
    50b0:	b12b      	cbz	r3, 50be <tcp_enqueue+0x326>
    50b2:	f894 3022 	ldrb.w	r3, [r4, #34]	; 0x22
    50b6:	f043 0320 	orr.w	r3, r3, #32
    50ba:	f884 3022 	strb.w	r3, [r4, #34]	; 0x22
    50be:	6ea3      	ldr	r3, [r4, #104]	; 0x68
    50c0:	f8a4 7070 	strh.w	r7, [r4, #112]	; 0x70
    50c4:	4453      	add	r3, sl
    50c6:	66a3      	str	r3, [r4, #104]	; 0x68
    50c8:	f8b4 306e 	ldrh.w	r3, [r4, #110]	; 0x6e
    50cc:	ebca 0a03 	rsb	sl, sl, r3
    50d0:	f8a4 a06e 	strh.w	sl, [r4, #110]	; 0x6e
    50d4:	b355      	cbz	r5, 512c <tcp_enqueue+0x394>
    50d6:	f1b8 0f00 	cmp.w	r8, #0
    50da:	d020      	beq.n	511e <tcp_enqueue+0x386>
    50dc:	692c      	ldr	r4, [r5, #16]
    50de:	b304      	cbz	r4, 5122 <tcp_enqueue+0x38a>
    50e0:	9b06      	ldr	r3, [sp, #24]
    50e2:	f013 0502 	ands.w	r5, r3, #2
    50e6:	d11e      	bne.n	5126 <tcp_enqueue+0x38e>
    50e8:	2008      	movs	r0, #8
    50ea:	f7fd f854 	bl	2196 <htons>
    50ee:	89a3      	ldrh	r3, [r4, #12]
    50f0:	ea40 0303 	orr.w	r3, r0, r3
    50f4:	81a3      	strh	r3, [r4, #12]
    50f6:	e019      	b.n	512c <tcp_enqueue+0x394>
    50f8:	f894 3022 	ldrb.w	r3, [r4, #34]	; 0x22
    50fc:	f063 037f 	orn	r3, r3, #127	; 0x7f
    5100:	f884 3022 	strb.w	r3, [r4, #34]	; 0x22
    5104:	4b0b      	ldr	r3, [pc, #44]	; (5134 <tcp_enqueue+0x39c>)
    5106:	f8b3 2084 	ldrh.w	r2, [r3, #132]	; 0x84
    510a:	3201      	adds	r2, #1
    510c:	f8a3 2084 	strh.w	r2, [r3, #132]	; 0x84
    5110:	b15e      	cbz	r6, 512a <tcp_enqueue+0x392>
    5112:	4630      	mov	r0, r6
    5114:	f7fd ff0e 	bl	2f34 <tcp_segs_free>
    5118:	e007      	b.n	512a <tcp_enqueue+0x392>
    511a:	25f6      	movs	r5, #246	; 0xf6
    511c:	e006      	b.n	512c <tcp_enqueue+0x394>
    511e:	4645      	mov	r5, r8
    5120:	e004      	b.n	512c <tcp_enqueue+0x394>
    5122:	4625      	mov	r5, r4
    5124:	e002      	b.n	512c <tcp_enqueue+0x394>
    5126:	2500      	movs	r5, #0
    5128:	e000      	b.n	512c <tcp_enqueue+0x394>
    512a:	25ff      	movs	r5, #255	; 0xff
    512c:	b268      	sxtb	r0, r5
    512e:	b00b      	add	sp, #44	; 0x2c
    5130:	e8bd 8ff0 	ldmia.w	sp!, {r4, r5, r6, r7, r8, r9, sl, fp, pc}
    5134:	20003244 	.word	0x20003244

00005138 <tcp_write>:
    5138:	b573      	push	{r0, r1, r4, r5, r6, lr}
    513a:	7c06      	ldrb	r6, [r0, #16]
    513c:	2e07      	cmp	r6, #7
    513e:	d80c      	bhi.n	515a <tcp_write+0x22>
    5140:	f990 5010 	ldrsb.w	r5, [r0, #16]
    5144:	f04f 5664 	mov.w	r6, #956301312	; 0x39000000
    5148:	40ae      	lsls	r6, r5
    514a:	d506      	bpl.n	515a <tcp_write+0x22>
    514c:	b13a      	cbz	r2, 515e <tcp_write+0x26>
    514e:	9300      	str	r3, [sp, #0]
    5150:	2300      	movs	r3, #0
    5152:	9301      	str	r3, [sp, #4]
    5154:	f7ff fe20 	bl	4d98 <tcp_enqueue>
    5158:	e002      	b.n	5160 <tcp_write+0x28>
    515a:	20f8      	movs	r0, #248	; 0xf8
    515c:	e000      	b.n	5160 <tcp_write+0x28>
    515e:	4610      	mov	r0, r2
    5160:	b240      	sxtb	r0, r0
    5162:	bd7c      	pop	{r2, r3, r4, r5, r6, pc}

00005164 <tcp_send_ctrl>:
    5164:	b507      	push	{r0, r1, r2, lr}
    5166:	460b      	mov	r3, r1
    5168:	2201      	movs	r2, #1
    516a:	2100      	movs	r1, #0
    516c:	9200      	str	r2, [sp, #0]
    516e:	460a      	mov	r2, r1
    5170:	9101      	str	r1, [sp, #4]
    5172:	f7ff fe11 	bl	4d98 <tcp_enqueue>
    5176:	bd0e      	pop	{r1, r2, r3, pc}

00005178 <tcp_close>:
    5178:	b538      	push	{r3, r4, r5, lr}
    517a:	7c03      	ldrb	r3, [r0, #16]
    517c:	4604      	mov	r4, r0
    517e:	2b07      	cmp	r3, #7
    5180:	d82e      	bhi.n	51e0 <tcp_close+0x68>
    5182:	e8df f003 	tbb	[pc, r3]
    5186:	1f04      	.short	0x1f04
    5188:	2d2f2f25 	.word	0x2d2f2f25
    518c:	362d      	.short	0x362d
    518e:	4a20      	ldr	r2, [pc, #128]	; (5210 <tcp_close+0x98>)
    5190:	6813      	ldr	r3, [r2, #0]
    5192:	4283      	cmp	r3, r0
    5194:	d101      	bne.n	519a <tcp_close+0x22>
    5196:	68c3      	ldr	r3, [r0, #12]
    5198:	e00c      	b.n	51b4 <tcp_close+0x3c>
    519a:	4a1e      	ldr	r2, [pc, #120]	; (5214 <tcp_close+0x9c>)
    519c:	6013      	str	r3, [r2, #0]
    519e:	e007      	b.n	51b0 <tcp_close+0x38>
    51a0:	68d9      	ldr	r1, [r3, #12]
    51a2:	42a1      	cmp	r1, r4
    51a4:	d103      	bne.n	51ae <tcp_close+0x36>
    51a6:	6013      	str	r3, [r2, #0]
    51a8:	68e2      	ldr	r2, [r4, #12]
    51aa:	60da      	str	r2, [r3, #12]
    51ac:	e003      	b.n	51b6 <tcp_close+0x3e>
    51ae:	460b      	mov	r3, r1
    51b0:	2b00      	cmp	r3, #0
    51b2:	d1f5      	bne.n	51a0 <tcp_close+0x28>
    51b4:	6013      	str	r3, [r2, #0]
    51b6:	2500      	movs	r5, #0
    51b8:	60e5      	str	r5, [r4, #12]
    51ba:	2002      	movs	r0, #2
    51bc:	4621      	mov	r1, r4
    51be:	f7fd fb2d 	bl	281c <memp_free>
    51c2:	e022      	b.n	520a <tcp_close+0x92>
    51c4:	4814      	ldr	r0, [pc, #80]	; (5218 <tcp_close+0xa0>)
    51c6:	4621      	mov	r1, r4
    51c8:	f7fe fea8 	bl	3f1c <tcp_pcb_remove>
    51cc:	2003      	movs	r0, #3
    51ce:	e004      	b.n	51da <tcp_close+0x62>
    51d0:	4812      	ldr	r0, [pc, #72]	; (521c <tcp_close+0xa4>)
    51d2:	4621      	mov	r1, r4
    51d4:	f7fe fea2 	bl	3f1c <tcp_pcb_remove>
    51d8:	2002      	movs	r0, #2
    51da:	4621      	mov	r1, r4
    51dc:	f7fd fb1e 	bl	281c <memp_free>
    51e0:	2500      	movs	r5, #0
    51e2:	e012      	b.n	520a <tcp_close+0x92>
    51e4:	2101      	movs	r1, #1
    51e6:	f7ff ffbd 	bl	5164 <tcp_send_ctrl>
    51ea:	4605      	mov	r5, r0
    51ec:	b940      	cbnz	r0, 5200 <tcp_close+0x88>
    51ee:	2305      	movs	r3, #5
    51f0:	e005      	b.n	51fe <tcp_close+0x86>
    51f2:	2101      	movs	r1, #1
    51f4:	f7ff ffb6 	bl	5164 <tcp_send_ctrl>
    51f8:	4605      	mov	r5, r0
    51fa:	b908      	cbnz	r0, 5200 <tcp_close+0x88>
    51fc:	2309      	movs	r3, #9
    51fe:	7423      	strb	r3, [r4, #16]
    5200:	b11c      	cbz	r4, 520a <tcp_close+0x92>
    5202:	b915      	cbnz	r5, 520a <tcp_close+0x92>
    5204:	4620      	mov	r0, r4
    5206:	f7fe fd55 	bl	3cb4 <tcp_output>
    520a:	b268      	sxtb	r0, r5
    520c:	bd38      	pop	{r3, r4, r5, pc}
    520e:	bf00      	nop
    5210:	20000208 	.word	0x20000208
    5214:	200001ec 	.word	0x200001ec
    5218:	200001e4 	.word	0x200001e4
    521c:	20003224 	.word	0x20003224

00005220 <tcp_recv_null>:
    5220:	b510      	push	{r4, lr}
    5222:	4608      	mov	r0, r1
    5224:	4614      	mov	r4, r2
    5226:	b132      	cbz	r2, 5236 <tcp_recv_null+0x16>
    5228:	8911      	ldrh	r1, [r2, #8]
    522a:	f7ff fa2f 	bl	468c <tcp_recved>
    522e:	4620      	mov	r0, r4
    5230:	f7fd fcc7 	bl	2bc2 <pbuf_free>
    5234:	e004      	b.n	5240 <tcp_recv_null+0x20>
    5236:	b91b      	cbnz	r3, 5240 <tcp_recv_null+0x20>
    5238:	e8bd 4010 	ldmia.w	sp!, {r4, lr}
    523c:	f7ff bf9c 	b.w	5178 <tcp_close>
    5240:	2000      	movs	r0, #0
    5242:	bd10      	pop	{r4, pc}

00005244 <tcp_fasttmr>:
    5244:	b538      	push	{r3, r4, r5, lr}
    5246:	4b16      	ldr	r3, [pc, #88]	; (52a0 <tcp_fasttmr+0x5c>)
    5248:	681c      	ldr	r4, [r3, #0]
    524a:	e025      	b.n	5298 <tcp_fasttmr+0x54>
    524c:	f8d4 2080 	ldr.w	r2, [r4, #128]	; 0x80
    5250:	b17a      	cbz	r2, 5272 <tcp_fasttmr+0x2e>
    5252:	f8d4 5088 	ldr.w	r5, [r4, #136]	; 0x88
    5256:	b125      	cbz	r5, 5262 <tcp_fasttmr+0x1e>
    5258:	6960      	ldr	r0, [r4, #20]
    525a:	4621      	mov	r1, r4
    525c:	2300      	movs	r3, #0
    525e:	47a8      	blx	r5
    5260:	e004      	b.n	526c <tcp_fasttmr+0x28>
    5262:	4628      	mov	r0, r5
    5264:	4621      	mov	r1, r4
    5266:	462b      	mov	r3, r5
    5268:	f7ff ffda 	bl	5220 <tcp_recv_null>
    526c:	b908      	cbnz	r0, 5272 <tcp_fasttmr+0x2e>
    526e:	f8c4 0080 	str.w	r0, [r4, #128]	; 0x80
    5272:	f894 3022 	ldrb.w	r3, [r4, #34]	; 0x22
    5276:	f013 0f01 	tst.w	r3, #1
    527a:	d00c      	beq.n	5296 <tcp_fasttmr+0x52>
    527c:	f043 0302 	orr.w	r3, r3, #2
    5280:	f884 3022 	strb.w	r3, [r4, #34]	; 0x22
    5284:	4620      	mov	r0, r4
    5286:	f7fe fd15 	bl	3cb4 <tcp_output>
    528a:	f894 3022 	ldrb.w	r3, [r4, #34]	; 0x22
    528e:	f023 0303 	bic.w	r3, r3, #3
    5292:	f884 3022 	strb.w	r3, [r4, #34]	; 0x22
    5296:	68e4      	ldr	r4, [r4, #12]
    5298:	2c00      	cmp	r4, #0
    529a:	d1d7      	bne.n	524c <tcp_fasttmr+0x8>
    529c:	bd38      	pop	{r3, r4, r5, pc}
    529e:	bf00      	nop
    52a0:	20003224 	.word	0x20003224

000052a4 <tcp_tmr>:
    52a4:	b510      	push	{r4, lr}
    52a6:	f7ff ffcd 	bl	5244 <tcp_fasttmr>
    52aa:	4a06      	ldr	r2, [pc, #24]	; (52c4 <tcp_tmr+0x20>)
    52ac:	7813      	ldrb	r3, [r2, #0]
    52ae:	3301      	adds	r3, #1
    52b0:	b2db      	uxtb	r3, r3
    52b2:	f013 0f01 	tst.w	r3, #1
    52b6:	7013      	strb	r3, [r2, #0]
    52b8:	d003      	beq.n	52c2 <tcp_tmr+0x1e>
    52ba:	e8bd 4010 	ldmia.w	sp!, {r4, lr}
    52be:	f7ff b89d 	b.w	43fc <tcp_slowtmr>
    52c2:	bd10      	pop	{r4, pc}
    52c4:	200034b2 	.word	0x200034b2

000052c8 <tcp_input>:
    52c8:	e92d 4ff0 	stmdb	sp!, {r4, r5, r6, r7, r8, r9, sl, fp, lr}
    52cc:	4c9c      	ldr	r4, [pc, #624]	; (5540 <tcp_input+0x278>)
    52ce:	f8d0 8004 	ldr.w	r8, [r0, #4]
    52d2:	f8b4 207a 	ldrh.w	r2, [r4, #122]	; 0x7a
    52d6:	f8df b294 	ldr.w	fp, [pc, #660]	; 556c <tcp_input+0x2a4>
    52da:	3201      	adds	r2, #1
    52dc:	f8a4 207a 	strh.w	r2, [r4, #122]	; 0x7a
    52e0:	f8cb 8000 	str.w	r8, [fp]
    52e4:	b08f      	sub	sp, #60	; 0x3c
    52e6:	4605      	mov	r5, r0
    52e8:	f8b8 0000 	ldrh.w	r0, [r8]
    52ec:	9104      	str	r1, [sp, #16]
    52ee:	f7fc ff94 	bl	221a <ntohs>
    52f2:	0a00      	lsrs	r0, r0, #8
    52f4:	f000 090f 	and.w	r9, r0, #15
    52f8:	ea4f 0189 	mov.w	r1, r9, lsl #2
    52fc:	f8df a270 	ldr.w	sl, [pc, #624]	; 5570 <tcp_input+0x2a8>
    5300:	eb08 0701 	add.w	r7, r8, r1
    5304:	f8ca 7000 	str.w	r7, [sl]
    5308:	4628      	mov	r0, r5
    530a:	4249      	negs	r1, r1
    530c:	f7fc fd7d 	bl	1e0a <pbuf_header>
    5310:	4626      	mov	r6, r4
    5312:	9b04      	ldr	r3, [sp, #16]
    5314:	b920      	cbnz	r0, 5320 <tcp_input+0x58>
    5316:	f8b5 a008 	ldrh.w	sl, [r5, #8]
    531a:	f1ba 0f13 	cmp.w	sl, #19
    531e:	d805      	bhi.n	532c <tcp_input+0x64>
    5320:	f8b6 3082 	ldrh.w	r3, [r6, #130]	; 0x82
    5324:	3301      	adds	r3, #1
    5326:	f8a6 3082 	strh.w	r3, [r6, #130]	; 0x82
    532a:	e01a      	b.n	5362 <tcp_input+0x9a>
    532c:	f108 0010 	add.w	r0, r8, #16
    5330:	4619      	mov	r1, r3
    5332:	9007      	str	r0, [sp, #28]
    5334:	f7fd fa1e 	bl	2774 <ip_addr_isbroadcast>
    5338:	b970      	cbnz	r0, 5358 <tcp_input+0x90>
    533a:	f04f 4070 	mov.w	r0, #4026531840	; 0xf0000000
    533e:	f7fd f820 	bl	2382 <ntohl>
    5342:	4683      	mov	fp, r0
    5344:	f04f 4060 	mov.w	r0, #3758096384	; 0xe0000000
    5348:	f7fd f81b 	bl	2382 <ntohl>
    534c:	f8d8 3010 	ldr.w	r3, [r8, #16]
    5350:	ea0b 0303 	and.w	r3, fp, r3
    5354:	4283      	cmp	r3, r0
    5356:	d10a      	bne.n	536e <tcp_input+0xa6>
    5358:	f8b6 3088 	ldrh.w	r3, [r6, #136]	; 0x88
    535c:	3301      	adds	r3, #1
    535e:	f8a6 3088 	strh.w	r3, [r6, #136]	; 0x88
    5362:	f8b6 307e 	ldrh.w	r3, [r6, #126]	; 0x7e
    5366:	3301      	adds	r3, #1
    5368:	f8a6 307e 	strh.w	r3, [r6, #126]	; 0x7e
    536c:	e3ed      	b.n	5b4a <tcp_input+0x882>
    536e:	f108 010c 	add.w	r1, r8, #12
    5372:	f8cd a000 	str.w	sl, [sp]
    5376:	4628      	mov	r0, r5
    5378:	9a07      	ldr	r2, [sp, #28]
    537a:	2306      	movs	r3, #6
    537c:	9108      	str	r1, [sp, #32]
    537e:	f7fd f8a8 	bl	24d2 <inet_chksum_pseudo>
    5382:	b128      	cbz	r0, 5390 <tcp_input+0xc8>
    5384:	f8b4 3080 	ldrh.w	r3, [r4, #128]	; 0x80
    5388:	3301      	adds	r3, #1
    538a:	f8a4 3080 	strh.w	r3, [r4, #128]	; 0x80
    538e:	e011      	b.n	53b4 <tcp_input+0xec>
    5390:	89b8      	ldrh	r0, [r7, #12]
    5392:	f7fc ff42 	bl	221a <ntohs>
    5396:	0b03      	lsrs	r3, r0, #12
    5398:	b2db      	uxtb	r3, r3
    539a:	f06f 0103 	mvn.w	r1, #3
    539e:	4628      	mov	r0, r5
    53a0:	4359      	muls	r1, r3
    53a2:	f7fc fd32 	bl	1e0a <pbuf_header>
    53a6:	4684      	mov	ip, r0
    53a8:	b150      	cbz	r0, 53c0 <tcp_input+0xf8>
    53aa:	f8b4 3082 	ldrh.w	r3, [r4, #130]	; 0x82
    53ae:	3301      	adds	r3, #1
    53b0:	f8a4 3082 	strh.w	r3, [r4, #130]	; 0x82
    53b4:	f8b4 307e 	ldrh.w	r3, [r4, #126]	; 0x7e
    53b8:	3301      	adds	r3, #1
    53ba:	f8a4 307e 	strh.w	r3, [r4, #126]	; 0x7e
    53be:	e3c4      	b.n	5b4a <tcp_input+0x882>
    53c0:	8838      	ldrh	r0, [r7, #0]
    53c2:	f8cd c014 	str.w	ip, [sp, #20]
    53c6:	f7fc ff28 	bl	221a <ntohs>
    53ca:	f828 0029 	strh.w	r0, [r8, r9, lsl #2]
    53ce:	4603      	mov	r3, r0
    53d0:	8878      	ldrh	r0, [r7, #2]
    53d2:	9304      	str	r3, [sp, #16]
    53d4:	f7fc ff21 	bl	221a <ntohs>
    53d8:	8078      	strh	r0, [r7, #2]
    53da:	4682      	mov	sl, r0
    53dc:	6878      	ldr	r0, [r7, #4]
    53de:	f7fc ffd0 	bl	2382 <ntohl>
    53e2:	f8df 9190 	ldr.w	r9, [pc, #400]	; 5574 <tcp_input+0x2ac>
    53e6:	6078      	str	r0, [r7, #4]
    53e8:	f8c9 0000 	str.w	r0, [r9]
    53ec:	4683      	mov	fp, r0
    53ee:	68b8      	ldr	r0, [r7, #8]
    53f0:	f7fc ffc7 	bl	2382 <ntohl>
    53f4:	4c53      	ldr	r4, [pc, #332]	; (5544 <tcp_input+0x27c>)
    53f6:	60b8      	str	r0, [r7, #8]
    53f8:	6020      	str	r0, [r4, #0]
    53fa:	4602      	mov	r2, r0
    53fc:	89f8      	ldrh	r0, [r7, #14]
    53fe:	9206      	str	r2, [sp, #24]
    5400:	f7fc ff0b 	bl	221a <ntohs>
    5404:	81f8      	strh	r0, [r7, #14]
    5406:	89b8      	ldrh	r0, [r7, #12]
    5408:	f7fc ff07 	bl	221a <ntohs>
    540c:	f000 013f 	and.w	r1, r0, #63	; 0x3f
    5410:	900b      	str	r0, [sp, #44]	; 0x2c
    5412:	484d      	ldr	r0, [pc, #308]	; (5548 <tcp_input+0x280>)
    5414:	f8df 912c 	ldr.w	r9, [pc, #300]	; 5544 <tcp_input+0x27c>
    5418:	7001      	strb	r1, [r0, #0]
    541a:	892c      	ldrh	r4, [r5, #8]
    541c:	f001 0003 	and.w	r0, r1, #3
    5420:	940c      	str	r4, [sp, #48]	; 0x30
    5422:	2800      	cmp	r0, #0
    5424:	bf18      	it	ne
    5426:	3401      	addne	r4, #1
    5428:	b2a0      	uxth	r0, r4
    542a:	9009      	str	r0, [sp, #36]	; 0x24
    542c:	9c09      	ldr	r4, [sp, #36]	; 0x24
    542e:	4847      	ldr	r0, [pc, #284]	; (554c <tcp_input+0x284>)
    5430:	9a06      	ldr	r2, [sp, #24]
    5432:	8004      	strh	r4, [r0, #0]
    5434:	4c46      	ldr	r4, [pc, #280]	; (5550 <tcp_input+0x288>)
    5436:	4640      	mov	r0, r8
    5438:	6824      	ldr	r4, [r4, #0]
    543a:	f8dd c014 	ldr.w	ip, [sp, #20]
    543e:	940d      	str	r4, [sp, #52]	; 0x34
    5440:	46b8      	mov	r8, r7
    5442:	9b04      	ldr	r3, [sp, #16]
    5444:	9203      	str	r2, [sp, #12]
    5446:	e01b      	b.n	5480 <tcp_input+0x1b8>
    5448:	8c27      	ldrh	r7, [r4, #32]
    544a:	429f      	cmp	r7, r3
    544c:	d116      	bne.n	547c <tcp_input+0x1b4>
    544e:	8b27      	ldrh	r7, [r4, #24]
    5450:	4557      	cmp	r7, sl
    5452:	d113      	bne.n	547c <tcp_input+0x1b4>
    5454:	68c7      	ldr	r7, [r0, #12]
    5456:	6862      	ldr	r2, [r4, #4]
    5458:	42ba      	cmp	r2, r7
    545a:	d10f      	bne.n	547c <tcp_input+0x1b4>
    545c:	6907      	ldr	r7, [r0, #16]
    545e:	6822      	ldr	r2, [r4, #0]
    5460:	42ba      	cmp	r2, r7
    5462:	d10b      	bne.n	547c <tcp_input+0x1b4>
    5464:	4647      	mov	r7, r8
    5466:	f1bc 0f00 	cmp.w	ip, #0
    546a:	d011      	beq.n	5490 <tcp_input+0x1c8>
    546c:	68e3      	ldr	r3, [r4, #12]
    546e:	4838      	ldr	r0, [pc, #224]	; (5550 <tcp_input+0x288>)
    5470:	f8cc 300c 	str.w	r3, [ip, #12]
    5474:	9b0d      	ldr	r3, [sp, #52]	; 0x34
    5476:	6004      	str	r4, [r0, #0]
    5478:	60e3      	str	r3, [r4, #12]
    547a:	e009      	b.n	5490 <tcp_input+0x1c8>
    547c:	46a4      	mov	ip, r4
    547e:	68e4      	ldr	r4, [r4, #12]
    5480:	2c00      	cmp	r4, #0
    5482:	d1e1      	bne.n	5448 <tcp_input+0x180>
    5484:	4680      	mov	r8, r0
    5486:	4833      	ldr	r0, [pc, #204]	; (5554 <tcp_input+0x28c>)
    5488:	9a03      	ldr	r2, [sp, #12]
    548a:	6800      	ldr	r0, [r0, #0]
    548c:	4644      	mov	r4, r8
    548e:	e04e      	b.n	552e <tcp_input+0x266>
    5490:	4931      	ldr	r1, [pc, #196]	; (5558 <tcp_input+0x290>)
    5492:	9a0c      	ldr	r2, [sp, #48]	; 0x30
    5494:	4831      	ldr	r0, [pc, #196]	; (555c <tcp_input+0x294>)
    5496:	2300      	movs	r3, #0
    5498:	818a      	strh	r2, [r1, #12]
    549a:	686a      	ldr	r2, [r5, #4]
    549c:	7003      	strb	r3, [r0, #0]
    549e:	608a      	str	r2, [r1, #8]
    54a0:	610f      	str	r7, [r1, #16]
    54a2:	f8d4 2080 	ldr.w	r2, [r4, #128]	; 0x80
    54a6:	4f2e      	ldr	r7, [pc, #184]	; (5560 <tcp_input+0x298>)
    54a8:	600b      	str	r3, [r1, #0]
    54aa:	604d      	str	r5, [r1, #4]
    54ac:	603b      	str	r3, [r7, #0]
    54ae:	468b      	mov	fp, r1
    54b0:	46ba      	mov	sl, r7
    54b2:	4680      	mov	r8, r0
    54b4:	2a00      	cmp	r2, #0
    54b6:	f040 80e1 	bne.w	567c <tcp_input+0x3b4>
    54ba:	e0f0      	b.n	569e <tcp_input+0x3d6>
    54bc:	8c07      	ldrh	r7, [r0, #32]
    54be:	429f      	cmp	r7, r3
    54c0:	d134      	bne.n	552c <tcp_input+0x264>
    54c2:	8b07      	ldrh	r7, [r0, #24]
    54c4:	4557      	cmp	r7, sl
    54c6:	d131      	bne.n	552c <tcp_input+0x264>
    54c8:	68e7      	ldr	r7, [r4, #12]
    54ca:	f8d0 c004 	ldr.w	ip, [r0, #4]
    54ce:	45bc      	cmp	ip, r7
    54d0:	d12c      	bne.n	552c <tcp_input+0x264>
    54d2:	6927      	ldr	r7, [r4, #16]
    54d4:	f8d0 c000 	ldr.w	ip, [r0]
    54d8:	45bc      	cmp	ip, r7
    54da:	d127      	bne.n	552c <tcp_input+0x264>
    54dc:	f011 0f04 	tst.w	r1, #4
    54e0:	f040 8333 	bne.w	5b4a <tcp_input+0x882>
    54e4:	f011 0f02 	tst.w	r1, #2
    54e8:	d00e      	beq.n	5508 <tcp_input+0x240>
    54ea:	6a41      	ldr	r1, [r0, #36]	; 0x24
    54ec:	458b      	cmp	fp, r1
    54ee:	db11      	blt.n	5514 <tcp_input+0x24c>
    54f0:	8d04      	ldrh	r4, [r0, #40]	; 0x28
    54f2:	1861      	adds	r1, r4, r1
    54f4:	458b      	cmp	fp, r1
    54f6:	dc0d      	bgt.n	5514 <tcp_input+0x24c>
    54f8:	9301      	str	r3, [sp, #4]
    54fa:	9b09      	ldr	r3, [sp, #36]	; 0x24
    54fc:	f8cd a000 	str.w	sl, [sp]
    5500:	4610      	mov	r0, r2
    5502:	eb03 010b 	add.w	r1, r3, fp
    5506:	e31c      	b.n	5b42 <tcp_input+0x87a>
    5508:	f011 0f01 	tst.w	r1, #1
    550c:	d002      	beq.n	5514 <tcp_input+0x24c>
    550e:	4b15      	ldr	r3, [pc, #84]	; (5564 <tcp_input+0x29c>)
    5510:	681b      	ldr	r3, [r3, #0]
    5512:	6303      	str	r3, [r0, #48]	; 0x30
    5514:	4c0d      	ldr	r4, [pc, #52]	; (554c <tcp_input+0x284>)
    5516:	8823      	ldrh	r3, [r4, #0]
    5518:	2b00      	cmp	r3, #0
    551a:	f000 8316 	beq.w	5b4a <tcp_input+0x882>
    551e:	f890 3022 	ldrb.w	r3, [r0, #34]	; 0x22
    5522:	f043 0302 	orr.w	r3, r3, #2
    5526:	f880 3022 	strb.w	r3, [r0, #34]	; 0x22
    552a:	e09e      	b.n	566a <tcp_input+0x3a2>
    552c:	68c0      	ldr	r0, [r0, #12]
    552e:	2800      	cmp	r0, #0
    5530:	d1c4      	bne.n	54bc <tcp_input+0x1f4>
    5532:	46a0      	mov	r8, r4
    5534:	4c0c      	ldr	r4, [pc, #48]	; (5568 <tcp_input+0x2a0>)
    5536:	f8d4 9000 	ldr.w	r9, [r4]
    553a:	464f      	mov	r7, r9
    553c:	e09a      	b.n	5674 <tcp_input+0x3ac>
    553e:	bf00      	nop
    5540:	20003244 	.word	0x20003244
    5544:	20003448 	.word	0x20003448
    5548:	200050b8 	.word	0x200050b8
    554c:	20003376 	.word	0x20003376
    5550:	20003224 	.word	0x20003224
    5554:	200034bc 	.word	0x200034bc
    5558:	200001c8 	.word	0x200001c8
    555c:	20003374 	.word	0x20003374
    5560:	200001f0 	.word	0x200001f0
    5564:	20003240 	.word	0x20003240
    5568:	200001e4 	.word	0x200001e4
    556c:	200001f8 	.word	0x200001f8
    5570:	20003334 	.word	0x20003334
    5574:	2000322c 	.word	0x2000322c
    5578:	f8d7 c000 	ldr.w	ip, [r7]
    557c:	f1bc 0f00 	cmp.w	ip, #0
    5580:	d003      	beq.n	558a <tcp_input+0x2c2>
    5582:	f8d8 4010 	ldr.w	r4, [r8, #16]
    5586:	45a4      	cmp	ip, r4
    5588:	d172      	bne.n	5670 <tcp_input+0x3a8>
    558a:	8b3c      	ldrh	r4, [r7, #24]
    558c:	4554      	cmp	r4, sl
    558e:	d16f      	bne.n	5670 <tcp_input+0x3a8>
    5590:	b128      	cbz	r0, 559e <tcp_input+0x2d6>
    5592:	68fc      	ldr	r4, [r7, #12]
    5594:	60c4      	str	r4, [r0, #12]
    5596:	4897      	ldr	r0, [pc, #604]	; (57f4 <tcp_input+0x52c>)
    5598:	f8c7 900c 	str.w	r9, [r7, #12]
    559c:	6007      	str	r7, [r0, #0]
    559e:	f011 0f10 	tst.w	r1, #16
    55a2:	d007      	beq.n	55b4 <tcp_input+0x2ec>
    55a4:	1c50      	adds	r0, r2, #1
    55a6:	9a09      	ldr	r2, [sp, #36]	; 0x24
    55a8:	f8cd a000 	str.w	sl, [sp]
    55ac:	9301      	str	r3, [sp, #4]
    55ae:	eb02 010b 	add.w	r1, r2, fp
    55b2:	e2c6      	b.n	5b42 <tcp_input+0x87a>
    55b4:	f011 0f02 	tst.w	r1, #2
    55b8:	f000 82c7 	beq.w	5b4a <tcp_input+0x882>
    55bc:	7c78      	ldrb	r0, [r7, #17]
    55be:	f7fe fd2b 	bl	4018 <tcp_alloc>
    55c2:	4604      	mov	r4, r0
    55c4:	b928      	cbnz	r0, 55d2 <tcp_input+0x30a>
    55c6:	f8b6 3084 	ldrh.w	r3, [r6, #132]	; 0x84
    55ca:	3301      	adds	r3, #1
    55cc:	f8a6 3084 	strh.w	r3, [r6, #132]	; 0x84
    55d0:	e2bb      	b.n	5b4a <tcp_input+0x882>
    55d2:	4e89      	ldr	r6, [pc, #548]	; (57f8 <tcp_input+0x530>)
    55d4:	4989      	ldr	r1, [pc, #548]	; (57fc <tcp_input+0x534>)
    55d6:	6833      	ldr	r3, [r6, #0]
    55d8:	4e89      	ldr	r6, [pc, #548]	; (5800 <tcp_input+0x538>)
    55da:	f113 0210 	adds.w	r2, r3, #16
    55de:	bf18      	it	ne
    55e0:	691a      	ldrne	r2, [r3, #16]
    55e2:	6002      	str	r2, [r0, #0]
    55e4:	8b38      	ldrh	r0, [r7, #24]
    55e6:	f113 020c 	adds.w	r2, r3, #12
    55ea:	8320      	strh	r0, [r4, #24]
    55ec:	bf14      	ite	ne
    55ee:	68db      	ldrne	r3, [r3, #12]
    55f0:	4613      	moveq	r3, r2
    55f2:	6063      	str	r3, [r4, #4]
    55f4:	680b      	ldr	r3, [r1, #0]
    55f6:	f104 0038 	add.w	r0, r4, #56	; 0x38
    55fa:	7859      	ldrb	r1, [r3, #1]
    55fc:	781a      	ldrb	r2, [r3, #0]
    55fe:	ea42 2201 	orr.w	r2, r2, r1, lsl #8
    5602:	8422      	strh	r2, [r4, #32]
    5604:	2203      	movs	r2, #3
    5606:	7422      	strb	r2, [r4, #16]
    5608:	6832      	ldr	r2, [r6, #0]
    560a:	2600      	movs	r6, #0
    560c:	1c51      	adds	r1, r2, #1
    560e:	6261      	str	r1, [r4, #36]	; 0x24
    5610:	62e1      	str	r1, [r4, #44]	; 0x2c
    5612:	89db      	ldrh	r3, [r3, #14]
    5614:	3a01      	subs	r2, #1
    5616:	f8a4 305c 	strh.w	r3, [r4, #92]	; 0x5c
    561a:	f8a4 3054 	strh.w	r3, [r4, #84]	; 0x54
    561e:	697b      	ldr	r3, [r7, #20]
    5620:	6622      	str	r2, [r4, #96]	; 0x60
    5622:	6163      	str	r3, [r4, #20]
    5624:	69fb      	ldr	r3, [r7, #28]
    5626:	61e3      	str	r3, [r4, #28]
    5628:	893b      	ldrh	r3, [r7, #8]
    562a:	4f76      	ldr	r7, [pc, #472]	; (5804 <tcp_input+0x53c>)
    562c:	f023 0366 	bic.w	r3, r3, #102	; 0x66
    5630:	05db      	lsls	r3, r3, #23
    5632:	0ddb      	lsrs	r3, r3, #23
    5634:	8123      	strh	r3, [r4, #8]
    5636:	683b      	ldr	r3, [r7, #0]
    5638:	603c      	str	r4, [r7, #0]
    563a:	60e3      	str	r3, [r4, #12]
    563c:	f7fc fdf0 	bl	2220 <tcp_parseopt.clone.1>
    5640:	1d21      	adds	r1, r4, #4
    5642:	8f20      	ldrh	r0, [r4, #56]	; 0x38
    5644:	f7fc ffe6 	bl	2614 <tcp_eff_send_mss>
    5648:	2301      	movs	r3, #1
    564a:	8720      	strh	r0, [r4, #56]	; 0x38
    564c:	4631      	mov	r1, r6
    564e:	9301      	str	r3, [sp, #4]
    5650:	4620      	mov	r0, r4
    5652:	4632      	mov	r2, r6
    5654:	3311      	adds	r3, #17
    5656:	9600      	str	r6, [sp, #0]
    5658:	f7ff fb9e 	bl	4d98 <tcp_enqueue>
    565c:	b120      	cbz	r0, 5668 <tcp_input+0x3a0>
    565e:	4620      	mov	r0, r4
    5660:	4631      	mov	r1, r6
    5662:	f7fe fc8d 	bl	3f80 <tcp_abandon>
    5666:	e270      	b.n	5b4a <tcp_input+0x882>
    5668:	4620      	mov	r0, r4
    566a:	f7fe fb23 	bl	3cb4 <tcp_output>
    566e:	e26c      	b.n	5b4a <tcp_input+0x882>
    5670:	4638      	mov	r0, r7
    5672:	68ff      	ldr	r7, [r7, #12]
    5674:	2f00      	cmp	r7, #0
    5676:	f47f af7f 	bne.w	5578 <tcp_input+0x2b0>
    567a:	e279      	b.n	5b70 <tcp_input+0x8a8>
    567c:	f8d4 7088 	ldr.w	r7, [r4, #136]	; 0x88
    5680:	b11f      	cbz	r7, 568a <tcp_input+0x3c2>
    5682:	6960      	ldr	r0, [r4, #20]
    5684:	4621      	mov	r1, r4
    5686:	47b8      	blx	r7
    5688:	e004      	b.n	5694 <tcp_input+0x3cc>
    568a:	4638      	mov	r0, r7
    568c:	4621      	mov	r1, r4
    568e:	463b      	mov	r3, r7
    5690:	f7ff fdc6 	bl	5220 <tcp_recv_null>
    5694:	2800      	cmp	r0, #0
    5696:	f47f ae64 	bne.w	5362 <tcp_input+0x9a>
    569a:	f8c4 0080 	str.w	r0, [r4, #128]	; 0x80
    569e:	485a      	ldr	r0, [pc, #360]	; (5808 <tcp_input+0x540>)
    56a0:	4d5a      	ldr	r5, [pc, #360]	; (580c <tcp_input+0x544>)
    56a2:	7806      	ldrb	r6, [r0, #0]
    56a4:	602c      	str	r4, [r5, #0]
    56a6:	f016 0f04 	tst.w	r6, #4
    56aa:	d015      	beq.n	56d8 <tcp_input+0x410>
    56ac:	7c23      	ldrb	r3, [r4, #16]
    56ae:	2b02      	cmp	r3, #2
    56b0:	d106      	bne.n	56c0 <tcp_input+0x3f8>
    56b2:	f8d9 2000 	ldr.w	r2, [r9]
    56b6:	6da3      	ldr	r3, [r4, #88]	; 0x58
    56b8:	429a      	cmp	r2, r3
    56ba:	f040 81bc 	bne.w	5a36 <tcp_input+0x76e>
    56be:	e24a      	b.n	5b56 <tcp_input+0x88e>
    56c0:	494f      	ldr	r1, [pc, #316]	; (5800 <tcp_input+0x538>)
    56c2:	6a62      	ldr	r2, [r4, #36]	; 0x24
    56c4:	680b      	ldr	r3, [r1, #0]
    56c6:	4293      	cmp	r3, r2
    56c8:	f2c0 81b5 	blt.w	5a36 <tcp_input+0x76e>
    56cc:	8d21      	ldrh	r1, [r4, #40]	; 0x28
    56ce:	188a      	adds	r2, r1, r2
    56d0:	4293      	cmp	r3, r2
    56d2:	f340 8240 	ble.w	5b56 <tcp_input+0x88e>
    56d6:	e1ae      	b.n	5a36 <tcp_input+0x76e>
    56d8:	f016 0702 	ands.w	r7, r6, #2
    56dc:	d004      	beq.n	56e8 <tcp_input+0x420>
    56de:	7c23      	ldrb	r3, [r4, #16]
    56e0:	3b02      	subs	r3, #2
    56e2:	b2db      	uxtb	r3, r3
    56e4:	2b01      	cmp	r3, #1
    56e6:	d868      	bhi.n	57ba <tcp_input+0x4f2>
    56e8:	4b49      	ldr	r3, [pc, #292]	; (5810 <tcp_input+0x548>)
    56ea:	f104 0038 	add.w	r0, r4, #56	; 0x38
    56ee:	681b      	ldr	r3, [r3, #0]
    56f0:	6323      	str	r3, [r4, #48]	; 0x30
    56f2:	2300      	movs	r3, #0
    56f4:	f884 30a1 	strb.w	r3, [r4, #161]	; 0xa1
    56f8:	f7fc fd92 	bl	2220 <tcp_parseopt.clone.1>
    56fc:	7c23      	ldrb	r3, [r4, #16]
    56fe:	3b02      	subs	r3, #2
    5700:	2b07      	cmp	r3, #7
    5702:	f200 8198 	bhi.w	5a36 <tcp_input+0x76e>
    5706:	e8df f013 	tbh	[pc, r3, lsl #1]
    570a:	0008      	.short	0x0008
    570c:	00d60087 	.word	0x00d60087
    5710:	013200ea 	.word	0x013200ea
    5714:	015700d6 	.word	0x015700d6
    5718:	0183      	.short	0x0183
    571a:	f006 0312 	and.w	r3, r6, #18
    571e:	2b12      	cmp	r3, #18
    5720:	d155      	bne.n	57ce <tcp_input+0x506>
    5722:	6fa3      	ldr	r3, [r4, #120]	; 0x78
    5724:	f8d9 7000 	ldr.w	r7, [r9]
    5728:	691b      	ldr	r3, [r3, #16]
    572a:	6858      	ldr	r0, [r3, #4]
    572c:	f7fc fe29 	bl	2382 <ntohl>
    5730:	3001      	adds	r0, #1
    5732:	4287      	cmp	r7, r0
    5734:	d14b      	bne.n	57ce <tcp_input+0x506>
    5736:	f8b4 306e 	ldrh.w	r3, [r4, #110]	; 0x6e
    573a:	4e31      	ldr	r6, [pc, #196]	; (5800 <tcp_input+0x538>)
    573c:	3301      	adds	r3, #1
    573e:	f8a4 306e 	strh.w	r3, [r4, #110]	; 0x6e
    5742:	6833      	ldr	r3, [r6, #0]
    5744:	64e7      	str	r7, [r4, #76]	; 0x4c
    5746:	4f2d      	ldr	r7, [pc, #180]	; (57fc <tcp_input+0x534>)
    5748:	1c5a      	adds	r2, r3, #1
    574a:	6262      	str	r2, [r4, #36]	; 0x24
    574c:	62e2      	str	r2, [r4, #44]	; 0x2c
    574e:	683a      	ldr	r2, [r7, #0]
    5750:	3b01      	subs	r3, #1
    5752:	7b91      	ldrb	r1, [r2, #14]
    5754:	7bd2      	ldrb	r2, [r2, #15]
    5756:	6623      	str	r3, [r4, #96]	; 0x60
    5758:	ea41 2202 	orr.w	r2, r1, r2, lsl #8
    575c:	2304      	movs	r3, #4
    575e:	7423      	strb	r3, [r4, #16]
    5760:	18e1      	adds	r1, r4, r3
    5762:	f8a4 205c 	strh.w	r2, [r4, #92]	; 0x5c
    5766:	8f20      	ldrh	r0, [r4, #56]	; 0x38
    5768:	f7fc ff54 	bl	2614 <tcp_eff_send_mss>
    576c:	230a      	movs	r3, #10
    576e:	4343      	muls	r3, r0
    5770:	f8a4 3054 	strh.w	r3, [r4, #84]	; 0x54
    5774:	f8b4 3052 	ldrh.w	r3, [r4, #82]	; 0x52
    5778:	8720      	strh	r0, [r4, #56]	; 0x38
    577a:	2b01      	cmp	r3, #1
    577c:	d101      	bne.n	5782 <tcp_input+0x4ba>
    577e:	0040      	lsls	r0, r0, #1
    5780:	b280      	uxth	r0, r0
    5782:	f8b4 3070 	ldrh.w	r3, [r4, #112]	; 0x70
    5786:	f8a4 0052 	strh.w	r0, [r4, #82]	; 0x52
    578a:	6fa0      	ldr	r0, [r4, #120]	; 0x78
    578c:	3b01      	subs	r3, #1
    578e:	f8a4 3070 	strh.w	r3, [r4, #112]	; 0x70
    5792:	6803      	ldr	r3, [r0, #0]
    5794:	67a3      	str	r3, [r4, #120]	; 0x78
    5796:	b91b      	cbnz	r3, 57a0 <tcp_input+0x4d8>
    5798:	f04f 31ff 	mov.w	r1, #4294967295
    579c:	86e1      	strh	r1, [r4, #54]	; 0x36
    579e:	e003      	b.n	57a8 <tcp_input+0x4e0>
    57a0:	2300      	movs	r3, #0
    57a2:	86e3      	strh	r3, [r4, #54]	; 0x36
    57a4:	f884 304a 	strb.w	r3, [r4, #74]	; 0x4a
    57a8:	f7fd fbb4 	bl	2f14 <tcp_seg_free>
    57ac:	f8d4 308c 	ldr.w	r3, [r4, #140]	; 0x8c
    57b0:	b11b      	cbz	r3, 57ba <tcp_input+0x4f2>
    57b2:	6960      	ldr	r0, [r4, #20]
    57b4:	4621      	mov	r1, r4
    57b6:	2200      	movs	r2, #0
    57b8:	4798      	blx	r3
    57ba:	f894 3022 	ldrb.w	r3, [r4, #34]	; 0x22
    57be:	4620      	mov	r0, r4
    57c0:	f043 0302 	orr.w	r3, r3, #2
    57c4:	f884 3022 	strb.w	r3, [r4, #34]	; 0x22
    57c8:	f7fe fa74 	bl	3cb4 <tcp_output>
    57cc:	e133      	b.n	5a36 <tcp_input+0x76e>
    57ce:	f016 0f10 	tst.w	r6, #16
    57d2:	f000 8130 	beq.w	5a36 <tcp_input+0x76e>
    57d6:	4e09      	ldr	r6, [pc, #36]	; (57fc <tcp_input+0x534>)
    57d8:	4a07      	ldr	r2, [pc, #28]	; (57f8 <tcp_input+0x530>)
    57da:	6830      	ldr	r0, [r6, #0]
    57dc:	4e08      	ldr	r6, [pc, #32]	; (5800 <tcp_input+0x538>)
    57de:	6813      	ldr	r3, [r2, #0]
    57e0:	4f0c      	ldr	r7, [pc, #48]	; (5814 <tcp_input+0x54c>)
    57e2:	6832      	ldr	r2, [r6, #0]
    57e4:	8846      	ldrh	r6, [r0, #2]
    57e6:	8839      	ldrh	r1, [r7, #0]
    57e8:	9600      	str	r6, [sp, #0]
    57ea:	8800      	ldrh	r0, [r0, #0]
    57ec:	9001      	str	r0, [sp, #4]
    57ee:	f8d9 0000 	ldr.w	r0, [r9]
    57f2:	e04b      	b.n	588c <tcp_input+0x5c4>
    57f4:	200001e4 	.word	0x200001e4
    57f8:	200001f8 	.word	0x200001f8
    57fc:	20003334 	.word	0x20003334
    5800:	2000322c 	.word	0x2000322c
    5804:	20003224 	.word	0x20003224
    5808:	200050b8 	.word	0x200050b8
    580c:	200034ac 	.word	0x200034ac
    5810:	20003240 	.word	0x20003240
    5814:	20003376 	.word	0x20003376
    5818:	f016 0f10 	tst.w	r6, #16
    581c:	d03d      	beq.n	589a <tcp_input+0x5d2>
    581e:	6ce3      	ldr	r3, [r4, #76]	; 0x4c
    5820:	f8d9 0000 	ldr.w	r0, [r9]
    5824:	3301      	adds	r3, #1
    5826:	4298      	cmp	r0, r3
    5828:	db24      	blt.n	5874 <tcp_input+0x5ac>
    582a:	6da3      	ldr	r3, [r4, #88]	; 0x58
    582c:	4298      	cmp	r0, r3
    582e:	dc21      	bgt.n	5874 <tcp_input+0x5ac>
    5830:	2304      	movs	r3, #4
    5832:	7423      	strb	r3, [r4, #16]
    5834:	69e3      	ldr	r3, [r4, #28]
    5836:	b14b      	cbz	r3, 584c <tcp_input+0x584>
    5838:	6960      	ldr	r0, [r4, #20]
    583a:	4621      	mov	r1, r4
    583c:	2200      	movs	r2, #0
    583e:	4798      	blx	r3
    5840:	b120      	cbz	r0, 584c <tcp_input+0x584>
    5842:	4620      	mov	r0, r4
    5844:	2101      	movs	r1, #1
    5846:	f7fe fb9b 	bl	3f80 <tcp_abandon>
    584a:	e15e      	b.n	5b0a <tcp_input+0x842>
    584c:	4620      	mov	r0, r4
    584e:	f8b4 6052 	ldrh.w	r6, [r4, #82]	; 0x52
    5852:	f7fe ff39 	bl	46c8 <tcp_receive>
    5856:	f8b4 306c 	ldrh.w	r3, [r4, #108]	; 0x6c
    585a:	b113      	cbz	r3, 5862 <tcp_input+0x59a>
    585c:	3b01      	subs	r3, #1
    585e:	f8a4 306c 	strh.w	r3, [r4, #108]	; 0x6c
    5862:	2e01      	cmp	r6, #1
    5864:	d102      	bne.n	586c <tcp_input+0x5a4>
    5866:	8f23      	ldrh	r3, [r4, #56]	; 0x38
    5868:	005b      	lsls	r3, r3, #1
    586a:	e000      	b.n	586e <tcp_input+0x5a6>
    586c:	8f23      	ldrh	r3, [r4, #56]	; 0x38
    586e:	f8a4 3052 	strh.w	r3, [r4, #82]	; 0x52
    5872:	e023      	b.n	58bc <tcp_input+0x5f4>
    5874:	4f97      	ldr	r7, [pc, #604]	; (5ad4 <tcp_input+0x80c>)
    5876:	4998      	ldr	r1, [pc, #608]	; (5ad8 <tcp_input+0x810>)
    5878:	683b      	ldr	r3, [r7, #0]
    587a:	680e      	ldr	r6, [r1, #0]
    587c:	4a97      	ldr	r2, [pc, #604]	; (5adc <tcp_input+0x814>)
    587e:	4f98      	ldr	r7, [pc, #608]	; (5ae0 <tcp_input+0x818>)
    5880:	8811      	ldrh	r1, [r2, #0]
    5882:	683a      	ldr	r2, [r7, #0]
    5884:	8877      	ldrh	r7, [r6, #2]
    5886:	9700      	str	r7, [sp, #0]
    5888:	8836      	ldrh	r6, [r6, #0]
    588a:	9601      	str	r6, [sp, #4]
    588c:	1889      	adds	r1, r1, r2
    588e:	f103 0210 	add.w	r2, r3, #16
    5892:	330c      	adds	r3, #12
    5894:	f7fe f970 	bl	3b78 <tcp_rst>
    5898:	e0cd      	b.n	5a36 <tcp_input+0x76e>
    589a:	2f00      	cmp	r7, #0
    589c:	f000 80cb 	beq.w	5a36 <tcp_input+0x76e>
    58a0:	488f      	ldr	r0, [pc, #572]	; (5ae0 <tcp_input+0x818>)
    58a2:	6a63      	ldr	r3, [r4, #36]	; 0x24
    58a4:	6802      	ldr	r2, [r0, #0]
    58a6:	3b01      	subs	r3, #1
    58a8:	429a      	cmp	r2, r3
    58aa:	f040 80c4 	bne.w	5a36 <tcp_input+0x76e>
    58ae:	4620      	mov	r0, r4
    58b0:	f7fc fdbe 	bl	2430 <tcp_rexmit>
    58b4:	e0bf      	b.n	5a36 <tcp_input+0x76e>
    58b6:	4620      	mov	r0, r4
    58b8:	f7fe ff06 	bl	46c8 <tcp_receive>
    58bc:	f898 3000 	ldrb.w	r3, [r8]
    58c0:	f013 0f20 	tst.w	r3, #32
    58c4:	f000 80b7 	beq.w	5a36 <tcp_input+0x76e>
    58c8:	f894 3022 	ldrb.w	r3, [r4, #34]	; 0x22
    58cc:	4620      	mov	r0, r4
    58ce:	f043 0302 	orr.w	r3, r3, #2
    58d2:	f884 3022 	strb.w	r3, [r4, #34]	; 0x22
    58d6:	f7fe f9ed 	bl	3cb4 <tcp_output>
    58da:	2307      	movs	r3, #7
    58dc:	e039      	b.n	5952 <tcp_input+0x68a>
    58de:	4620      	mov	r0, r4
    58e0:	f7fe fef2 	bl	46c8 <tcp_receive>
    58e4:	f898 3000 	ldrb.w	r3, [r8]
    58e8:	f013 0f20 	tst.w	r3, #32
    58ec:	d033      	beq.n	5956 <tcp_input+0x68e>
    58ee:	497d      	ldr	r1, [pc, #500]	; (5ae4 <tcp_input+0x81c>)
    58f0:	780b      	ldrb	r3, [r1, #0]
    58f2:	f013 0f10 	tst.w	r3, #16
    58f6:	d022      	beq.n	593e <tcp_input+0x676>
    58f8:	f8d9 2000 	ldr.w	r2, [r9]
    58fc:	6da3      	ldr	r3, [r4, #88]	; 0x58
    58fe:	429a      	cmp	r2, r3
    5900:	d11d      	bne.n	593e <tcp_input+0x676>
    5902:	f894 3022 	ldrb.w	r3, [r4, #34]	; 0x22
    5906:	4620      	mov	r0, r4
    5908:	f043 0302 	orr.w	r3, r3, #2
    590c:	f884 3022 	strb.w	r3, [r4, #34]	; 0x22
    5910:	f7fe f9d0 	bl	3cb4 <tcp_output>
    5914:	4620      	mov	r0, r4
    5916:	f7fd fb1b 	bl	2f50 <tcp_pcb_purge>
    591a:	4a73      	ldr	r2, [pc, #460]	; (5ae8 <tcp_input+0x820>)
    591c:	6813      	ldr	r3, [r2, #0]
    591e:	42a3      	cmp	r3, r4
    5920:	d103      	bne.n	592a <tcp_input+0x662>
    5922:	68e2      	ldr	r2, [r4, #12]
    5924:	4b70      	ldr	r3, [pc, #448]	; (5ae8 <tcp_input+0x820>)
    5926:	601a      	str	r2, [r3, #0]
    5928:	e06b      	b.n	5a02 <tcp_input+0x73a>
    592a:	4a70      	ldr	r2, [pc, #448]	; (5aec <tcp_input+0x824>)
    592c:	6013      	str	r3, [r2, #0]
    592e:	e003      	b.n	5938 <tcp_input+0x670>
    5930:	68d9      	ldr	r1, [r3, #12]
    5932:	42a1      	cmp	r1, r4
    5934:	d05d      	beq.n	59f2 <tcp_input+0x72a>
    5936:	460b      	mov	r3, r1
    5938:	2b00      	cmp	r3, #0
    593a:	d1f9      	bne.n	5930 <tcp_input+0x668>
    593c:	e060      	b.n	5a00 <tcp_input+0x738>
    593e:	f894 3022 	ldrb.w	r3, [r4, #34]	; 0x22
    5942:	4620      	mov	r0, r4
    5944:	f043 0302 	orr.w	r3, r3, #2
    5948:	f884 3022 	strb.w	r3, [r4, #34]	; 0x22
    594c:	f7fe f9b2 	bl	3cb4 <tcp_output>
    5950:	2308      	movs	r3, #8
    5952:	7423      	strb	r3, [r4, #16]
    5954:	e06f      	b.n	5a36 <tcp_input+0x76e>
    5956:	4e63      	ldr	r6, [pc, #396]	; (5ae4 <tcp_input+0x81c>)
    5958:	7833      	ldrb	r3, [r6, #0]
    595a:	f013 0f10 	tst.w	r3, #16
    595e:	d06a      	beq.n	5a36 <tcp_input+0x76e>
    5960:	f8d9 2000 	ldr.w	r2, [r9]
    5964:	6da3      	ldr	r3, [r4, #88]	; 0x58
    5966:	429a      	cmp	r2, r3
    5968:	d165      	bne.n	5a36 <tcp_input+0x76e>
    596a:	2306      	movs	r3, #6
    596c:	e7f1      	b.n	5952 <tcp_input+0x68a>
    596e:	4620      	mov	r0, r4
    5970:	f7fe feaa 	bl	46c8 <tcp_receive>
    5974:	f898 3000 	ldrb.w	r3, [r8]
    5978:	f013 0f20 	tst.w	r3, #32
    597c:	d05b      	beq.n	5a36 <tcp_input+0x76e>
    597e:	f894 3022 	ldrb.w	r3, [r4, #34]	; 0x22
    5982:	4620      	mov	r0, r4
    5984:	f043 0302 	orr.w	r3, r3, #2
    5988:	f884 3022 	strb.w	r3, [r4, #34]	; 0x22
    598c:	4f56      	ldr	r7, [pc, #344]	; (5ae8 <tcp_input+0x820>)
    598e:	f7fe f991 	bl	3cb4 <tcp_output>
    5992:	4620      	mov	r0, r4
    5994:	f7fd fadc 	bl	2f50 <tcp_pcb_purge>
    5998:	683b      	ldr	r3, [r7, #0]
    599a:	42a3      	cmp	r3, r4
    599c:	d102      	bne.n	59a4 <tcp_input+0x6dc>
    599e:	68e2      	ldr	r2, [r4, #12]
    59a0:	603a      	str	r2, [r7, #0]
    59a2:	e02e      	b.n	5a02 <tcp_input+0x73a>
    59a4:	4a51      	ldr	r2, [pc, #324]	; (5aec <tcp_input+0x824>)
    59a6:	6013      	str	r3, [r2, #0]
    59a8:	e003      	b.n	59b2 <tcp_input+0x6ea>
    59aa:	68d9      	ldr	r1, [r3, #12]
    59ac:	42a1      	cmp	r1, r4
    59ae:	d020      	beq.n	59f2 <tcp_input+0x72a>
    59b0:	460b      	mov	r3, r1
    59b2:	2b00      	cmp	r3, #0
    59b4:	d1f9      	bne.n	59aa <tcp_input+0x6e2>
    59b6:	e023      	b.n	5a00 <tcp_input+0x738>
    59b8:	4620      	mov	r0, r4
    59ba:	f7fe fe85 	bl	46c8 <tcp_receive>
    59be:	4849      	ldr	r0, [pc, #292]	; (5ae4 <tcp_input+0x81c>)
    59c0:	7803      	ldrb	r3, [r0, #0]
    59c2:	f013 0f10 	tst.w	r3, #16
    59c6:	d036      	beq.n	5a36 <tcp_input+0x76e>
    59c8:	f8d9 2000 	ldr.w	r2, [r9]
    59cc:	6da3      	ldr	r3, [r4, #88]	; 0x58
    59ce:	429a      	cmp	r2, r3
    59d0:	d131      	bne.n	5a36 <tcp_input+0x76e>
    59d2:	4620      	mov	r0, r4
    59d4:	f7fd fabc 	bl	2f50 <tcp_pcb_purge>
    59d8:	4943      	ldr	r1, [pc, #268]	; (5ae8 <tcp_input+0x820>)
    59da:	680b      	ldr	r3, [r1, #0]
    59dc:	42a3      	cmp	r3, r4
    59de:	d102      	bne.n	59e6 <tcp_input+0x71e>
    59e0:	68e2      	ldr	r2, [r4, #12]
    59e2:	600a      	str	r2, [r1, #0]
    59e4:	e00d      	b.n	5a02 <tcp_input+0x73a>
    59e6:	4a41      	ldr	r2, [pc, #260]	; (5aec <tcp_input+0x824>)
    59e8:	6013      	str	r3, [r2, #0]
    59ea:	e007      	b.n	59fc <tcp_input+0x734>
    59ec:	68d9      	ldr	r1, [r3, #12]
    59ee:	42a1      	cmp	r1, r4
    59f0:	d103      	bne.n	59fa <tcp_input+0x732>
    59f2:	6013      	str	r3, [r2, #0]
    59f4:	68e2      	ldr	r2, [r4, #12]
    59f6:	60da      	str	r2, [r3, #12]
    59f8:	e003      	b.n	5a02 <tcp_input+0x73a>
    59fa:	460b      	mov	r3, r1
    59fc:	2b00      	cmp	r3, #0
    59fe:	d1f5      	bne.n	59ec <tcp_input+0x724>
    5a00:	6013      	str	r3, [r2, #0]
    5a02:	230a      	movs	r3, #10
    5a04:	7423      	strb	r3, [r4, #16]
    5a06:	4b3a      	ldr	r3, [pc, #232]	; (5af0 <tcp_input+0x828>)
    5a08:	681a      	ldr	r2, [r3, #0]
    5a0a:	601c      	str	r4, [r3, #0]
    5a0c:	60e2      	str	r2, [r4, #12]
    5a0e:	e012      	b.n	5a36 <tcp_input+0x76e>
    5a10:	4620      	mov	r0, r4
    5a12:	f7fe fe59 	bl	46c8 <tcp_receive>
    5a16:	4a33      	ldr	r2, [pc, #204]	; (5ae4 <tcp_input+0x81c>)
    5a18:	7813      	ldrb	r3, [r2, #0]
    5a1a:	f013 0f10 	tst.w	r3, #16
    5a1e:	d00a      	beq.n	5a36 <tcp_input+0x76e>
    5a20:	f8d9 2000 	ldr.w	r2, [r9]
    5a24:	6da3      	ldr	r3, [r4, #88]	; 0x58
    5a26:	429a      	cmp	r2, r3
    5a28:	d105      	bne.n	5a36 <tcp_input+0x76e>
    5a2a:	f898 3000 	ldrb.w	r3, [r8]
    5a2e:	f043 0310 	orr.w	r3, r3, #16
    5a32:	f888 3000 	strb.w	r3, [r8]
    5a36:	f898 3000 	ldrb.w	r3, [r8]
    5a3a:	f013 0f08 	tst.w	r3, #8
    5a3e:	d007      	beq.n	5a50 <tcp_input+0x788>
    5a40:	f8d4 3094 	ldr.w	r3, [r4, #148]	; 0x94
    5a44:	b13b      	cbz	r3, 5a56 <tcp_input+0x78e>
    5a46:	6960      	ldr	r0, [r4, #20]
    5a48:	f06f 0105 	mvn.w	r1, #5
    5a4c:	4798      	blx	r3
    5a4e:	e002      	b.n	5a56 <tcp_input+0x78e>
    5a50:	f013 0f10 	tst.w	r3, #16
    5a54:	d008      	beq.n	5a68 <tcp_input+0x7a0>
    5a56:	4621      	mov	r1, r4
    5a58:	4823      	ldr	r0, [pc, #140]	; (5ae8 <tcp_input+0x820>)
    5a5a:	f7fe fa5f 	bl	3f1c <tcp_pcb_remove>
    5a5e:	2002      	movs	r0, #2
    5a60:	4621      	mov	r1, r4
    5a62:	f7fc fedb 	bl	281c <memp_free>
    5a66:	e050      	b.n	5b0a <tcp_input+0x842>
    5a68:	f8b4 206c 	ldrh.w	r2, [r4, #108]	; 0x6c
    5a6c:	b12a      	cbz	r2, 5a7a <tcp_input+0x7b2>
    5a6e:	f8d4 3084 	ldr.w	r3, [r4, #132]	; 0x84
    5a72:	b113      	cbz	r3, 5a7a <tcp_input+0x7b2>
    5a74:	6960      	ldr	r0, [r4, #20]
    5a76:	4621      	mov	r1, r4
    5a78:	4798      	blx	r3
    5a7a:	f8da 2000 	ldr.w	r2, [sl]
    5a7e:	b1d2      	cbz	r2, 5ab6 <tcp_input+0x7ee>
    5a80:	4e18      	ldr	r6, [pc, #96]	; (5ae4 <tcp_input+0x81c>)
    5a82:	7833      	ldrb	r3, [r6, #0]
    5a84:	f013 0f08 	tst.w	r3, #8
    5a88:	d003      	beq.n	5a92 <tcp_input+0x7ca>
    5a8a:	7b53      	ldrb	r3, [r2, #13]
    5a8c:	f043 0301 	orr.w	r3, r3, #1
    5a90:	7353      	strb	r3, [r2, #13]
    5a92:	f8d4 6088 	ldr.w	r6, [r4, #136]	; 0x88
    5a96:	b126      	cbz	r6, 5aa2 <tcp_input+0x7da>
    5a98:	6960      	ldr	r0, [r4, #20]
    5a9a:	4621      	mov	r1, r4
    5a9c:	2300      	movs	r3, #0
    5a9e:	47b0      	blx	r6
    5aa0:	e004      	b.n	5aac <tcp_input+0x7e4>
    5aa2:	4630      	mov	r0, r6
    5aa4:	4621      	mov	r1, r4
    5aa6:	4633      	mov	r3, r6
    5aa8:	f7ff fbba 	bl	5220 <tcp_recv_null>
    5aac:	b118      	cbz	r0, 5ab6 <tcp_input+0x7ee>
    5aae:	f8da 3000 	ldr.w	r3, [sl]
    5ab2:	f8c4 3080 	str.w	r3, [r4, #128]	; 0x80
    5ab6:	f898 3000 	ldrb.w	r3, [r8]
    5aba:	f013 0f20 	tst.w	r3, #32
    5abe:	d01f      	beq.n	5b00 <tcp_input+0x838>
    5ac0:	f8d4 6088 	ldr.w	r6, [r4, #136]	; 0x88
    5ac4:	b1b6      	cbz	r6, 5af4 <tcp_input+0x82c>
    5ac6:	2200      	movs	r2, #0
    5ac8:	6960      	ldr	r0, [r4, #20]
    5aca:	4621      	mov	r1, r4
    5acc:	4613      	mov	r3, r2
    5ace:	47b0      	blx	r6
    5ad0:	e016      	b.n	5b00 <tcp_input+0x838>
    5ad2:	bf00      	nop
    5ad4:	200001f8 	.word	0x200001f8
    5ad8:	20003334 	.word	0x20003334
    5adc:	20003376 	.word	0x20003376
    5ae0:	2000322c 	.word	0x2000322c
    5ae4:	200050b8 	.word	0x200050b8
    5ae8:	20003224 	.word	0x20003224
    5aec:	200001ec 	.word	0x200001ec
    5af0:	200034bc 	.word	0x200034bc
    5af4:	4630      	mov	r0, r6
    5af6:	4621      	mov	r1, r4
    5af8:	4632      	mov	r2, r6
    5afa:	4633      	mov	r3, r6
    5afc:	f7ff fb90 	bl	5220 <tcp_recv_null>
    5b00:	2300      	movs	r3, #0
    5b02:	602b      	str	r3, [r5, #0]
    5b04:	4620      	mov	r0, r4
    5b06:	f7fe f8d5 	bl	3cb4 <tcp_output>
    5b0a:	f8db 0004 	ldr.w	r0, [fp, #4]
    5b0e:	2400      	movs	r4, #0
    5b10:	602c      	str	r4, [r5, #0]
    5b12:	2800      	cmp	r0, #0
    5b14:	d031      	beq.n	5b7a <tcp_input+0x8b2>
    5b16:	f7fd f854 	bl	2bc2 <pbuf_free>
    5b1a:	4b19      	ldr	r3, [pc, #100]	; (5b80 <tcp_input+0x8b8>)
    5b1c:	605c      	str	r4, [r3, #4]
    5b1e:	e02c      	b.n	5b7a <tcp_input+0x8b2>
    5b20:	f8b6 1088 	ldrh.w	r1, [r6, #136]	; 0x88
    5b24:	9f09      	ldr	r7, [sp, #36]	; 0x24
    5b26:	3101      	adds	r1, #1
    5b28:	f8a6 1088 	strh.w	r1, [r6, #136]	; 0x88
    5b2c:	f8b6 107e 	ldrh.w	r1, [r6, #126]	; 0x7e
    5b30:	4610      	mov	r0, r2
    5b32:	3101      	adds	r1, #1
    5b34:	f8a6 107e 	strh.w	r1, [r6, #126]	; 0x7e
    5b38:	f8cd a000 	str.w	sl, [sp]
    5b3c:	9301      	str	r3, [sp, #4]
    5b3e:	eb07 010b 	add.w	r1, r7, fp
    5b42:	9a07      	ldr	r2, [sp, #28]
    5b44:	9b08      	ldr	r3, [sp, #32]
    5b46:	f7fe f817 	bl	3b78 <tcp_rst>
    5b4a:	4628      	mov	r0, r5
    5b4c:	b00f      	add	sp, #60	; 0x3c
    5b4e:	e8bd 4ff0 	ldmia.w	sp!, {r4, r5, r6, r7, r8, r9, sl, fp, lr}
    5b52:	f7fd b836 	b.w	2bc2 <pbuf_free>
    5b56:	f898 3000 	ldrb.w	r3, [r8]
    5b5a:	f043 0308 	orr.w	r3, r3, #8
    5b5e:	f888 3000 	strb.w	r3, [r8]
    5b62:	f894 3022 	ldrb.w	r3, [r4, #34]	; 0x22
    5b66:	f023 0301 	bic.w	r3, r3, #1
    5b6a:	f884 3022 	strb.w	r3, [r4, #34]	; 0x22
    5b6e:	e762      	b.n	5a36 <tcp_input+0x76e>
    5b70:	980b      	ldr	r0, [sp, #44]	; 0x2c
    5b72:	f010 0f04 	tst.w	r0, #4
    5b76:	d1e8      	bne.n	5b4a <tcp_input+0x882>
    5b78:	e7d2      	b.n	5b20 <tcp_input+0x858>
    5b7a:	b00f      	add	sp, #60	; 0x3c
    5b7c:	e8bd 8ff0 	ldmia.w	sp!, {r4, r5, r6, r7, r8, r9, sl, fp, pc}
    5b80:	200001c8 	.word	0x200001c8

00005b84 <dhcp_delete_request>:
    5b84:	b510      	push	{r4, lr}
    5b86:	b140      	cbz	r0, 5b9a <dhcp_delete_request+0x16>
    5b88:	6a04      	ldr	r4, [r0, #32]
    5b8a:	b134      	cbz	r4, 5b9a <dhcp_delete_request+0x16>
    5b8c:	6960      	ldr	r0, [r4, #20]
    5b8e:	b108      	cbz	r0, 5b94 <dhcp_delete_request+0x10>
    5b90:	f7fd f817 	bl	2bc2 <pbuf_free>
    5b94:	2300      	movs	r3, #0
    5b96:	6163      	str	r3, [r4, #20]
    5b98:	61a3      	str	r3, [r4, #24]
    5b9a:	bd10      	pop	{r4, pc}

00005b9c <dhcp_release>:
    5b9c:	b573      	push	{r0, r1, r4, r5, r6, lr}
    5b9e:	6a04      	ldr	r4, [r0, #32]
    5ba0:	4605      	mov	r5, r0
    5ba2:	210d      	movs	r1, #13
    5ba4:	4620      	mov	r0, r4
    5ba6:	f7fb fec7 	bl	1938 <dhcp_set_state>
    5baa:	2300      	movs	r3, #0
    5bac:	6263      	str	r3, [r4, #36]	; 0x24
    5bae:	62e3      	str	r3, [r4, #44]	; 0x2c
    5bb0:	62a3      	str	r3, [r4, #40]	; 0x28
    5bb2:	6363      	str	r3, [r4, #52]	; 0x34
    5bb4:	6323      	str	r3, [r4, #48]	; 0x30
    5bb6:	64e3      	str	r3, [r4, #76]	; 0x4c
    5bb8:	64a3      	str	r3, [r4, #72]	; 0x48
    5bba:	6463      	str	r3, [r4, #68]	; 0x44
    5bbc:	63a3      	str	r3, [r4, #56]	; 0x38
    5bbe:	4628      	mov	r0, r5
    5bc0:	f7fd fb22 	bl	3208 <dhcp_create_request>
    5bc4:	4606      	mov	r6, r0
    5bc6:	b9e0      	cbnz	r0, 5c02 <dhcp_release+0x66>
    5bc8:	2201      	movs	r2, #1
    5bca:	4620      	mov	r0, r4
    5bcc:	2135      	movs	r1, #53	; 0x35
    5bce:	f7fb feba 	bl	1946 <dhcp_option>
    5bd2:	2107      	movs	r1, #7
    5bd4:	4620      	mov	r0, r4
    5bd6:	f7fb fec5 	bl	1964 <dhcp_option_byte>
    5bda:	4620      	mov	r0, r4
    5bdc:	f7fb fef8 	bl	19d0 <dhcp_option_trailer>
    5be0:	8ba1      	ldrh	r1, [r4, #28]
    5be2:	6960      	ldr	r0, [r4, #20]
    5be4:	31f0      	adds	r1, #240	; 0xf0
    5be6:	b289      	uxth	r1, r1
    5be8:	f7fd f9d8 	bl	2f9c <pbuf_realloc>
    5bec:	9500      	str	r5, [sp, #0]
    5bee:	6860      	ldr	r0, [r4, #4]
    5bf0:	6961      	ldr	r1, [r4, #20]
    5bf2:	f104 0224 	add.w	r2, r4, #36	; 0x24
    5bf6:	2343      	movs	r3, #67	; 0x43
    5bf8:	f7fd fe8c 	bl	3914 <udp_sendto_if>
    5bfc:	4628      	mov	r0, r5
    5bfe:	f7ff ffc1 	bl	5b84 <dhcp_delete_request>
    5c02:	7ce3      	ldrb	r3, [r4, #19]
    5c04:	3301      	adds	r3, #1
    5c06:	b2db      	uxtb	r3, r3
    5c08:	2b09      	cmp	r3, #9
    5c0a:	74e3      	strb	r3, [r4, #19]
    5c0c:	d804      	bhi.n	5c18 <dhcp_release+0x7c>
    5c0e:	f44f 727a 	mov.w	r2, #1000	; 0x3e8
    5c12:	4353      	muls	r3, r2
    5c14:	b29b      	uxth	r3, r3
    5c16:	e001      	b.n	5c1c <dhcp_release+0x80>
    5c18:	f242 7310 	movw	r3, #10000	; 0x2710
    5c1c:	f503 73f8 	add.w	r3, r3, #496	; 0x1f0
    5c20:	f44f 72fa 	mov.w	r2, #500	; 0x1f4
    5c24:	3303      	adds	r3, #3
    5c26:	fb93 f3f2 	sdiv	r3, r3, r2
    5c2a:	83e3      	strh	r3, [r4, #30]
    5c2c:	4628      	mov	r0, r5
    5c2e:	f7fc f8dd 	bl	1dec <netif_set_down>
    5c32:	4628      	mov	r0, r5
    5c34:	4906      	ldr	r1, [pc, #24]	; (5c50 <dhcp_release+0xb4>)
    5c36:	f7fe fa81 	bl	413c <netif_set_ipaddr>
    5c3a:	4628      	mov	r0, r5
    5c3c:	4904      	ldr	r1, [pc, #16]	; (5c50 <dhcp_release+0xb4>)
    5c3e:	f7fc f8c6 	bl	1dce <netif_set_gw>
    5c42:	4628      	mov	r0, r5
    5c44:	4902      	ldr	r1, [pc, #8]	; (5c50 <dhcp_release+0xb4>)
    5c46:	f7fc f8c6 	bl	1dd6 <netif_set_netmask>
    5c4a:	4630      	mov	r0, r6
    5c4c:	bd7c      	pop	{r2, r3, r4, r5, r6, pc}
    5c4e:	bf00      	nop
    5c50:	0000a5f8 	.word	0x0000a5f8

00005c54 <dhcp_renew>:
    5c54:	b573      	push	{r0, r1, r4, r5, r6, lr}
    5c56:	6a04      	ldr	r4, [r0, #32]
    5c58:	4605      	mov	r5, r0
    5c5a:	2105      	movs	r1, #5
    5c5c:	4620      	mov	r0, r4
    5c5e:	f7fb fe6b 	bl	1938 <dhcp_set_state>
    5c62:	4628      	mov	r0, r5
    5c64:	f7fd fad0 	bl	3208 <dhcp_create_request>
    5c68:	4606      	mov	r6, r0
    5c6a:	bb28      	cbnz	r0, 5cb8 <dhcp_renew+0x64>
    5c6c:	2201      	movs	r2, #1
    5c6e:	4620      	mov	r0, r4
    5c70:	2135      	movs	r1, #53	; 0x35
    5c72:	f7fb fe68 	bl	1946 <dhcp_option>
    5c76:	4620      	mov	r0, r4
    5c78:	2103      	movs	r1, #3
    5c7a:	f7fb fe73 	bl	1964 <dhcp_option_byte>
    5c7e:	2202      	movs	r2, #2
    5c80:	4620      	mov	r0, r4
    5c82:	2139      	movs	r1, #57	; 0x39
    5c84:	f7fb fe5f 	bl	1946 <dhcp_option>
    5c88:	8d29      	ldrh	r1, [r5, #40]	; 0x28
    5c8a:	4620      	mov	r0, r4
    5c8c:	f7fb fe72 	bl	1974 <dhcp_option_short>
    5c90:	4620      	mov	r0, r4
    5c92:	f7fb fe9d 	bl	19d0 <dhcp_option_trailer>
    5c96:	8ba1      	ldrh	r1, [r4, #28]
    5c98:	6960      	ldr	r0, [r4, #20]
    5c9a:	31f0      	adds	r1, #240	; 0xf0
    5c9c:	b289      	uxth	r1, r1
    5c9e:	f7fd f97d 	bl	2f9c <pbuf_realloc>
    5ca2:	9500      	str	r5, [sp, #0]
    5ca4:	6860      	ldr	r0, [r4, #4]
    5ca6:	6961      	ldr	r1, [r4, #20]
    5ca8:	f104 0224 	add.w	r2, r4, #36	; 0x24
    5cac:	2343      	movs	r3, #67	; 0x43
    5cae:	f7fd fe31 	bl	3914 <udp_sendto_if>
    5cb2:	4628      	mov	r0, r5
    5cb4:	f7ff ff66 	bl	5b84 <dhcp_delete_request>
    5cb8:	7ce3      	ldrb	r3, [r4, #19]
    5cba:	3301      	adds	r3, #1
    5cbc:	b2db      	uxtb	r3, r3
    5cbe:	2b09      	cmp	r3, #9
    5cc0:	74e3      	strb	r3, [r4, #19]
    5cc2:	d804      	bhi.n	5cce <dhcp_renew+0x7a>
    5cc4:	f44f 62fa 	mov.w	r2, #2000	; 0x7d0
    5cc8:	4353      	muls	r3, r2
    5cca:	b29b      	uxth	r3, r3
    5ccc:	e001      	b.n	5cd2 <dhcp_renew+0x7e>
    5cce:	f644 6320 	movw	r3, #20000	; 0x4e20
    5cd2:	f503 73f8 	add.w	r3, r3, #496	; 0x1f0
    5cd6:	3303      	adds	r3, #3
    5cd8:	f44f 72fa 	mov.w	r2, #500	; 0x1f4
    5cdc:	fb93 f3f2 	sdiv	r3, r3, r2
    5ce0:	83e3      	strh	r3, [r4, #30]
    5ce2:	4630      	mov	r0, r6
    5ce4:	bd7c      	pop	{r2, r3, r4, r5, r6, pc}
	...

00005ce8 <dhcp_arp_reply>:
    5ce8:	b537      	push	{r0, r1, r2, r4, r5, lr}
    5cea:	4605      	mov	r5, r0
    5cec:	2800      	cmp	r0, #0
    5cee:	d03e      	beq.n	5d6e <dhcp_arp_reply+0x86>
    5cf0:	6a04      	ldr	r4, [r0, #32]
    5cf2:	2c00      	cmp	r4, #0
    5cf4:	d03b      	beq.n	5d6e <dhcp_arp_reply+0x86>
    5cf6:	7ca3      	ldrb	r3, [r4, #18]
    5cf8:	2b08      	cmp	r3, #8
    5cfa:	d138      	bne.n	5d6e <dhcp_arp_reply+0x86>
    5cfc:	680a      	ldr	r2, [r1, #0]
    5cfe:	6aa3      	ldr	r3, [r4, #40]	; 0x28
    5d00:	429a      	cmp	r2, r3
    5d02:	d134      	bne.n	5d6e <dhcp_arp_reply+0x86>
    5d04:	4620      	mov	r0, r4
    5d06:	210c      	movs	r1, #12
    5d08:	f7fb fe16 	bl	1938 <dhcp_set_state>
    5d0c:	4628      	mov	r0, r5
    5d0e:	f7fd fa7b 	bl	3208 <dhcp_create_request>
    5d12:	bb38      	cbnz	r0, 5d64 <dhcp_arp_reply+0x7c>
    5d14:	2201      	movs	r2, #1
    5d16:	4620      	mov	r0, r4
    5d18:	2135      	movs	r1, #53	; 0x35
    5d1a:	f7fb fe14 	bl	1946 <dhcp_option>
    5d1e:	4620      	mov	r0, r4
    5d20:	2104      	movs	r1, #4
    5d22:	f7fb fe1f 	bl	1964 <dhcp_option_byte>
    5d26:	2204      	movs	r2, #4
    5d28:	2132      	movs	r1, #50	; 0x32
    5d2a:	4620      	mov	r0, r4
    5d2c:	f7fb fe0b 	bl	1946 <dhcp_option>
    5d30:	6aa0      	ldr	r0, [r4, #40]	; 0x28
    5d32:	f7fc fb26 	bl	2382 <ntohl>
    5d36:	4601      	mov	r1, r0
    5d38:	4620      	mov	r0, r4
    5d3a:	f7fb fe2b 	bl	1994 <dhcp_option_long>
    5d3e:	4620      	mov	r0, r4
    5d40:	f7fb fe46 	bl	19d0 <dhcp_option_trailer>
    5d44:	8ba1      	ldrh	r1, [r4, #28]
    5d46:	6960      	ldr	r0, [r4, #20]
    5d48:	31f0      	adds	r1, #240	; 0xf0
    5d4a:	b289      	uxth	r1, r1
    5d4c:	f7fd f926 	bl	2f9c <pbuf_realloc>
    5d50:	9500      	str	r5, [sp, #0]
    5d52:	6860      	ldr	r0, [r4, #4]
    5d54:	6961      	ldr	r1, [r4, #20]
    5d56:	4a06      	ldr	r2, [pc, #24]	; (5d70 <dhcp_arp_reply+0x88>)
    5d58:	2343      	movs	r3, #67	; 0x43
    5d5a:	f7fd fddb 	bl	3914 <udp_sendto_if>
    5d5e:	4628      	mov	r0, r5
    5d60:	f7ff ff10 	bl	5b84 <dhcp_delete_request>
    5d64:	7ce3      	ldrb	r3, [r4, #19]
    5d66:	3301      	adds	r3, #1
    5d68:	74e3      	strb	r3, [r4, #19]
    5d6a:	2314      	movs	r3, #20
    5d6c:	83e3      	strh	r3, [r4, #30]
    5d6e:	bd3e      	pop	{r1, r2, r3, r4, r5, pc}
    5d70:	0000a63c 	.word	0x0000a63c

00005d74 <dhcp_reboot>:
    5d74:	b573      	push	{r0, r1, r4, r5, r6, lr}
    5d76:	6a04      	ldr	r4, [r0, #32]
    5d78:	4605      	mov	r5, r0
    5d7a:	2103      	movs	r1, #3
    5d7c:	4620      	mov	r0, r4
    5d7e:	f7fb fddb 	bl	1938 <dhcp_set_state>
    5d82:	4628      	mov	r0, r5
    5d84:	f7fd fa40 	bl	3208 <dhcp_create_request>
    5d88:	4606      	mov	r6, r0
    5d8a:	2800      	cmp	r0, #0
    5d8c:	d131      	bne.n	5df2 <dhcp_reboot+0x7e>
    5d8e:	2201      	movs	r2, #1
    5d90:	4620      	mov	r0, r4
    5d92:	2135      	movs	r1, #53	; 0x35
    5d94:	f7fb fdd7 	bl	1946 <dhcp_option>
    5d98:	4620      	mov	r0, r4
    5d9a:	2103      	movs	r1, #3
    5d9c:	f7fb fde2 	bl	1964 <dhcp_option_byte>
    5da0:	2202      	movs	r2, #2
    5da2:	4620      	mov	r0, r4
    5da4:	2139      	movs	r1, #57	; 0x39
    5da6:	f7fb fdce 	bl	1946 <dhcp_option>
    5daa:	4620      	mov	r0, r4
    5dac:	f44f 7110 	mov.w	r1, #576	; 0x240
    5db0:	f7fb fde0 	bl	1974 <dhcp_option_short>
    5db4:	2204      	movs	r2, #4
    5db6:	2132      	movs	r1, #50	; 0x32
    5db8:	4620      	mov	r0, r4
    5dba:	f7fb fdc4 	bl	1946 <dhcp_option>
    5dbe:	6aa0      	ldr	r0, [r4, #40]	; 0x28
    5dc0:	f7fc fadf 	bl	2382 <ntohl>
    5dc4:	4601      	mov	r1, r0
    5dc6:	4620      	mov	r0, r4
    5dc8:	f7fb fde4 	bl	1994 <dhcp_option_long>
    5dcc:	4620      	mov	r0, r4
    5dce:	f7fb fdff 	bl	19d0 <dhcp_option_trailer>
    5dd2:	8ba1      	ldrh	r1, [r4, #28]
    5dd4:	6960      	ldr	r0, [r4, #20]
    5dd6:	31f0      	adds	r1, #240	; 0xf0
    5dd8:	b289      	uxth	r1, r1
    5dda:	f7fd f8df 	bl	2f9c <pbuf_realloc>
    5dde:	9500      	str	r5, [sp, #0]
    5de0:	6860      	ldr	r0, [r4, #4]
    5de2:	6961      	ldr	r1, [r4, #20]
    5de4:	4a0e      	ldr	r2, [pc, #56]	; (5e20 <dhcp_reboot+0xac>)
    5de6:	2343      	movs	r3, #67	; 0x43
    5de8:	f7fd fd94 	bl	3914 <udp_sendto_if>
    5dec:	4628      	mov	r0, r5
    5dee:	f7ff fec9 	bl	5b84 <dhcp_delete_request>
    5df2:	7ce3      	ldrb	r3, [r4, #19]
    5df4:	3301      	adds	r3, #1
    5df6:	b2db      	uxtb	r3, r3
    5df8:	2b09      	cmp	r3, #9
    5dfa:	74e3      	strb	r3, [r4, #19]
    5dfc:	d804      	bhi.n	5e08 <dhcp_reboot+0x94>
    5dfe:	f44f 727a 	mov.w	r2, #1000	; 0x3e8
    5e02:	4353      	muls	r3, r2
    5e04:	b29b      	uxth	r3, r3
    5e06:	e001      	b.n	5e0c <dhcp_reboot+0x98>
    5e08:	f242 7310 	movw	r3, #10000	; 0x2710
    5e0c:	f503 73f8 	add.w	r3, r3, #496	; 0x1f0
    5e10:	3303      	adds	r3, #3
    5e12:	f44f 72fa 	mov.w	r2, #500	; 0x1f4
    5e16:	fb93 f3f2 	sdiv	r3, r3, r2
    5e1a:	83e3      	strh	r3, [r4, #30]
    5e1c:	4630      	mov	r0, r6
    5e1e:	bd7c      	pop	{r2, r3, r4, r5, r6, pc}
    5e20:	0000a63c 	.word	0x0000a63c

00005e24 <dhcp_discover>:
    5e24:	b573      	push	{r0, r1, r4, r5, r6, lr}
    5e26:	6a04      	ldr	r4, [r0, #32]
    5e28:	2300      	movs	r3, #0
    5e2a:	4605      	mov	r5, r0
    5e2c:	62a3      	str	r3, [r4, #40]	; 0x28
    5e2e:	4620      	mov	r0, r4
    5e30:	2106      	movs	r1, #6
    5e32:	f7fb fd81 	bl	1938 <dhcp_set_state>
    5e36:	4628      	mov	r0, r5
    5e38:	f7fd f9e6 	bl	3208 <dhcp_create_request>
    5e3c:	4606      	mov	r6, r0
    5e3e:	2800      	cmp	r0, #0
    5e40:	d139      	bne.n	5eb6 <dhcp_discover+0x92>
    5e42:	2201      	movs	r2, #1
    5e44:	4620      	mov	r0, r4
    5e46:	2135      	movs	r1, #53	; 0x35
    5e48:	f7fb fd7d 	bl	1946 <dhcp_option>
    5e4c:	4620      	mov	r0, r4
    5e4e:	2101      	movs	r1, #1
    5e50:	f7fb fd88 	bl	1964 <dhcp_option_byte>
    5e54:	2202      	movs	r2, #2
    5e56:	4620      	mov	r0, r4
    5e58:	2139      	movs	r1, #57	; 0x39
    5e5a:	f7fb fd74 	bl	1946 <dhcp_option>
    5e5e:	4620      	mov	r0, r4
    5e60:	8d29      	ldrh	r1, [r5, #40]	; 0x28
    5e62:	f7fb fd87 	bl	1974 <dhcp_option_short>
    5e66:	2204      	movs	r2, #4
    5e68:	4620      	mov	r0, r4
    5e6a:	2137      	movs	r1, #55	; 0x37
    5e6c:	f7fb fd6b 	bl	1946 <dhcp_option>
    5e70:	4620      	mov	r0, r4
    5e72:	2101      	movs	r1, #1
    5e74:	f7fb fd76 	bl	1964 <dhcp_option_byte>
    5e78:	4620      	mov	r0, r4
    5e7a:	2103      	movs	r1, #3
    5e7c:	f7fb fd72 	bl	1964 <dhcp_option_byte>
    5e80:	4620      	mov	r0, r4
    5e82:	211c      	movs	r1, #28
    5e84:	f7fb fd6e 	bl	1964 <dhcp_option_byte>
    5e88:	2106      	movs	r1, #6
    5e8a:	4620      	mov	r0, r4
    5e8c:	f7fb fd6a 	bl	1964 <dhcp_option_byte>
    5e90:	4620      	mov	r0, r4
    5e92:	f7fb fd9d 	bl	19d0 <dhcp_option_trailer>
    5e96:	8ba1      	ldrh	r1, [r4, #28]
    5e98:	6960      	ldr	r0, [r4, #20]
    5e9a:	31f0      	adds	r1, #240	; 0xf0
    5e9c:	b289      	uxth	r1, r1
    5e9e:	f7fd f87d 	bl	2f9c <pbuf_realloc>
    5ea2:	9500      	str	r5, [sp, #0]
    5ea4:	6860      	ldr	r0, [r4, #4]
    5ea6:	6961      	ldr	r1, [r4, #20]
    5ea8:	4a15      	ldr	r2, [pc, #84]	; (5f00 <dhcp_discover+0xdc>)
    5eaa:	2343      	movs	r3, #67	; 0x43
    5eac:	f7fd fd32 	bl	3914 <udp_sendto_if>
    5eb0:	4628      	mov	r0, r5
    5eb2:	f7ff fe67 	bl	5b84 <dhcp_delete_request>
    5eb6:	7ce3      	ldrb	r3, [r4, #19]
    5eb8:	3301      	adds	r3, #1
    5eba:	b2db      	uxtb	r3, r3
    5ebc:	2b04      	cmp	r3, #4
    5ebe:	74e3      	strb	r3, [r4, #19]
    5ec0:	d908      	bls.n	5ed4 <dhcp_discover+0xb0>
    5ec2:	f894 3050 	ldrb.w	r3, [r4, #80]	; 0x50
    5ec6:	b92b      	cbnz	r3, 5ed4 <dhcp_discover+0xb0>
    5ec8:	3301      	adds	r3, #1
    5eca:	f884 3050 	strb.w	r3, [r4, #80]	; 0x50
    5ece:	4628      	mov	r0, r5
    5ed0:	f7fc fa5a 	bl	2388 <autoip_start>
    5ed4:	7ce3      	ldrb	r3, [r4, #19]
    5ed6:	2b05      	cmp	r3, #5
    5ed8:	d805      	bhi.n	5ee6 <dhcp_discover+0xc2>
    5eda:	f44f 727a 	mov.w	r2, #1000	; 0x3e8
    5ede:	fa12 f303 	lsls.w	r3, r2, r3
    5ee2:	b29b      	uxth	r3, r3
    5ee4:	e001      	b.n	5eea <dhcp_discover+0xc6>
    5ee6:	f64e 2360 	movw	r3, #60000	; 0xea60
    5eea:	f503 73f8 	add.w	r3, r3, #496	; 0x1f0
    5eee:	3303      	adds	r3, #3
    5ef0:	f44f 72fa 	mov.w	r2, #500	; 0x1f4
    5ef4:	fb93 f3f2 	sdiv	r3, r3, r2
    5ef8:	83e3      	strh	r3, [r4, #30]
    5efa:	4630      	mov	r0, r6
    5efc:	bd7c      	pop	{r2, r3, r4, r5, r6, pc}
    5efe:	bf00      	nop
    5f00:	0000a63c 	.word	0x0000a63c

00005f04 <dhcp_start>:
    5f04:	b570      	push	{r4, r5, r6, lr}
    5f06:	4604      	mov	r4, r0
    5f08:	2800      	cmp	r0, #0
    5f0a:	d043      	beq.n	5f94 <dhcp_start+0x90>
    5f0c:	f890 3031 	ldrb.w	r3, [r0, #49]	; 0x31
    5f10:	6a05      	ldr	r5, [r0, #32]
    5f12:	f023 0308 	bic.w	r3, r3, #8
    5f16:	f880 3031 	strb.w	r3, [r0, #49]	; 0x31
    5f1a:	8d03      	ldrh	r3, [r0, #40]	; 0x28
    5f1c:	f5b3 7f10 	cmp.w	r3, #576	; 0x240
    5f20:	d33a      	bcc.n	5f98 <dhcp_start+0x94>
    5f22:	b93d      	cbnz	r5, 5f34 <dhcp_start+0x30>
    5f24:	2054      	movs	r0, #84	; 0x54
    5f26:	f7fb fe8b 	bl	1c40 <mem_malloc>
    5f2a:	4605      	mov	r5, r0
    5f2c:	2800      	cmp	r0, #0
    5f2e:	d033      	beq.n	5f98 <dhcp_start+0x94>
    5f30:	6220      	str	r0, [r4, #32]
    5f32:	e003      	b.n	5f3c <dhcp_start+0x38>
    5f34:	6868      	ldr	r0, [r5, #4]
    5f36:	b108      	cbz	r0, 5f3c <dhcp_start+0x38>
    5f38:	f7fc fc8e 	bl	2858 <udp_remove>
    5f3c:	2100      	movs	r1, #0
    5f3e:	2254      	movs	r2, #84	; 0x54
    5f40:	4628      	mov	r0, r5
    5f42:	f001 fe8f 	bl	7c64 <memset>
    5f46:	f7fc fccd 	bl	28e4 <udp_new>
    5f4a:	4606      	mov	r6, r0
    5f4c:	6068      	str	r0, [r5, #4]
    5f4e:	b920      	cbnz	r0, 5f5a <dhcp_start+0x56>
    5f50:	4628      	mov	r0, r5
    5f52:	f7fc fda3 	bl	2a9c <mem_free>
    5f56:	6226      	str	r6, [r4, #32]
    5f58:	e01e      	b.n	5f98 <dhcp_start+0x94>
    5f5a:	4911      	ldr	r1, [pc, #68]	; (5fa0 <dhcp_start+0x9c>)
    5f5c:	2244      	movs	r2, #68	; 0x44
    5f5e:	f7fc f8bd 	bl	20dc <udp_bind>
    5f62:	490f      	ldr	r1, [pc, #60]	; (5fa0 <dhcp_start+0x9c>)
    5f64:	2243      	movs	r2, #67	; 0x43
    5f66:	6868      	ldr	r0, [r5, #4]
    5f68:	f7fc f8e6 	bl	2138 <udp_connect>
    5f6c:	6868      	ldr	r0, [r5, #4]
    5f6e:	490d      	ldr	r1, [pc, #52]	; (5fa4 <dhcp_start+0xa0>)
    5f70:	4622      	mov	r2, r4
    5f72:	f7fc f905 	bl	2180 <udp_recv>
    5f76:	4620      	mov	r0, r4
    5f78:	f7ff ff54 	bl	5e24 <dhcp_discover>
    5f7c:	b118      	cbz	r0, 5f86 <dhcp_start+0x82>
    5f7e:	4620      	mov	r0, r4
    5f80:	f7fc fdf0 	bl	2b64 <dhcp_stop>
    5f84:	e008      	b.n	5f98 <dhcp_start+0x94>
    5f86:	f894 3031 	ldrb.w	r3, [r4, #49]	; 0x31
    5f8a:	f043 0308 	orr.w	r3, r3, #8
    5f8e:	f884 3031 	strb.w	r3, [r4, #49]	; 0x31
    5f92:	e002      	b.n	5f9a <dhcp_start+0x96>
    5f94:	20f6      	movs	r0, #246	; 0xf6
    5f96:	e000      	b.n	5f9a <dhcp_start+0x96>
    5f98:	20ff      	movs	r0, #255	; 0xff
    5f9a:	b240      	sxtb	r0, r0
    5f9c:	bd70      	pop	{r4, r5, r6, pc}
    5f9e:	bf00      	nop
    5fa0:	0000a5f8 	.word	0x0000a5f8
    5fa4:	00006371 	.word	0x00006371

00005fa8 <dhcp_select>:
    5fa8:	b573      	push	{r0, r1, r4, r5, r6, lr}
    5faa:	6a04      	ldr	r4, [r0, #32]
    5fac:	4605      	mov	r5, r0
    5fae:	2101      	movs	r1, #1
    5fb0:	4620      	mov	r0, r4
    5fb2:	f7fb fcc1 	bl	1938 <dhcp_set_state>
    5fb6:	4628      	mov	r0, r5
    5fb8:	f7fd f926 	bl	3208 <dhcp_create_request>
    5fbc:	4606      	mov	r6, r0
    5fbe:	2800      	cmp	r0, #0
    5fc0:	d151      	bne.n	6066 <dhcp_select+0xbe>
    5fc2:	2201      	movs	r2, #1
    5fc4:	2135      	movs	r1, #53	; 0x35
    5fc6:	4620      	mov	r0, r4
    5fc8:	f7fb fcbd 	bl	1946 <dhcp_option>
    5fcc:	2103      	movs	r1, #3
    5fce:	4620      	mov	r0, r4
    5fd0:	f7fb fcc8 	bl	1964 <dhcp_option_byte>
    5fd4:	2202      	movs	r2, #2
    5fd6:	2139      	movs	r1, #57	; 0x39
    5fd8:	4620      	mov	r0, r4
    5fda:	f7fb fcb4 	bl	1946 <dhcp_option>
    5fde:	4620      	mov	r0, r4
    5fe0:	8d29      	ldrh	r1, [r5, #40]	; 0x28
    5fe2:	f7fb fcc7 	bl	1974 <dhcp_option_short>
    5fe6:	2204      	movs	r2, #4
    5fe8:	2132      	movs	r1, #50	; 0x32
    5fea:	4620      	mov	r0, r4
    5fec:	f7fb fcab 	bl	1946 <dhcp_option>
    5ff0:	6aa0      	ldr	r0, [r4, #40]	; 0x28
    5ff2:	f7fc f9c6 	bl	2382 <ntohl>
    5ff6:	4601      	mov	r1, r0
    5ff8:	4620      	mov	r0, r4
    5ffa:	f7fb fccb 	bl	1994 <dhcp_option_long>
    5ffe:	2204      	movs	r2, #4
    6000:	2136      	movs	r1, #54	; 0x36
    6002:	4620      	mov	r0, r4
    6004:	f7fb fc9f 	bl	1946 <dhcp_option>
    6008:	6a60      	ldr	r0, [r4, #36]	; 0x24
    600a:	f7fc f9ba 	bl	2382 <ntohl>
    600e:	4601      	mov	r1, r0
    6010:	4620      	mov	r0, r4
    6012:	f7fb fcbf 	bl	1994 <dhcp_option_long>
    6016:	2204      	movs	r2, #4
    6018:	2137      	movs	r1, #55	; 0x37
    601a:	4620      	mov	r0, r4
    601c:	f7fb fc93 	bl	1946 <dhcp_option>
    6020:	2101      	movs	r1, #1
    6022:	4620      	mov	r0, r4
    6024:	f7fb fc9e 	bl	1964 <dhcp_option_byte>
    6028:	2103      	movs	r1, #3
    602a:	4620      	mov	r0, r4
    602c:	f7fb fc9a 	bl	1964 <dhcp_option_byte>
    6030:	211c      	movs	r1, #28
    6032:	4620      	mov	r0, r4
    6034:	f7fb fc96 	bl	1964 <dhcp_option_byte>
    6038:	2106      	movs	r1, #6
    603a:	4620      	mov	r0, r4
    603c:	f7fb fc92 	bl	1964 <dhcp_option_byte>
    6040:	4620      	mov	r0, r4
    6042:	f7fb fcc5 	bl	19d0 <dhcp_option_trailer>
    6046:	8ba1      	ldrh	r1, [r4, #28]
    6048:	6960      	ldr	r0, [r4, #20]
    604a:	31f0      	adds	r1, #240	; 0xf0
    604c:	b289      	uxth	r1, r1
    604e:	f7fc ffa5 	bl	2f9c <pbuf_realloc>
    6052:	9500      	str	r5, [sp, #0]
    6054:	6860      	ldr	r0, [r4, #4]
    6056:	6961      	ldr	r1, [r4, #20]
    6058:	4a0f      	ldr	r2, [pc, #60]	; (6098 <dhcp_select+0xf0>)
    605a:	2343      	movs	r3, #67	; 0x43
    605c:	f7fd fc5a 	bl	3914 <udp_sendto_if>
    6060:	4628      	mov	r0, r5
    6062:	f7ff fd8f 	bl	5b84 <dhcp_delete_request>
    6066:	7ce3      	ldrb	r3, [r4, #19]
    6068:	3301      	adds	r3, #1
    606a:	b2db      	uxtb	r3, r3
    606c:	2b05      	cmp	r3, #5
    606e:	74e3      	strb	r3, [r4, #19]
    6070:	d805      	bhi.n	607e <dhcp_select+0xd6>
    6072:	f44f 727a 	mov.w	r2, #1000	; 0x3e8
    6076:	fa12 f303 	lsls.w	r3, r2, r3
    607a:	b29b      	uxth	r3, r3
    607c:	e001      	b.n	6082 <dhcp_select+0xda>
    607e:	f64e 2360 	movw	r3, #60000	; 0xea60
    6082:	f503 73f8 	add.w	r3, r3, #496	; 0x1f0
    6086:	3303      	adds	r3, #3
    6088:	f44f 72fa 	mov.w	r2, #500	; 0x1f4
    608c:	fb93 f3f2 	sdiv	r3, r3, r2
    6090:	83e3      	strh	r3, [r4, #30]
    6092:	4630      	mov	r0, r6
    6094:	bd7c      	pop	{r2, r3, r4, r5, r6, pc}
    6096:	bf00      	nop
    6098:	0000a63c 	.word	0x0000a63c

0000609c <dhcp_rebind>:
    609c:	b573      	push	{r0, r1, r4, r5, r6, lr}
    609e:	6a04      	ldr	r4, [r0, #32]
    60a0:	4605      	mov	r5, r0
    60a2:	2104      	movs	r1, #4
    60a4:	4620      	mov	r0, r4
    60a6:	f7fb fc47 	bl	1938 <dhcp_set_state>
    60aa:	4628      	mov	r0, r5
    60ac:	f7fd f8ac 	bl	3208 <dhcp_create_request>
    60b0:	4606      	mov	r6, r0
    60b2:	bb20      	cbnz	r0, 60fe <dhcp_rebind+0x62>
    60b4:	2201      	movs	r2, #1
    60b6:	4620      	mov	r0, r4
    60b8:	2135      	movs	r1, #53	; 0x35
    60ba:	f7fb fc44 	bl	1946 <dhcp_option>
    60be:	4620      	mov	r0, r4
    60c0:	2103      	movs	r1, #3
    60c2:	f7fb fc4f 	bl	1964 <dhcp_option_byte>
    60c6:	2202      	movs	r2, #2
    60c8:	4620      	mov	r0, r4
    60ca:	2139      	movs	r1, #57	; 0x39
    60cc:	f7fb fc3b 	bl	1946 <dhcp_option>
    60d0:	8d29      	ldrh	r1, [r5, #40]	; 0x28
    60d2:	4620      	mov	r0, r4
    60d4:	f7fb fc4e 	bl	1974 <dhcp_option_short>
    60d8:	4620      	mov	r0, r4
    60da:	f7fb fc79 	bl	19d0 <dhcp_option_trailer>
    60de:	8ba1      	ldrh	r1, [r4, #28]
    60e0:	6960      	ldr	r0, [r4, #20]
    60e2:	31f0      	adds	r1, #240	; 0xf0
    60e4:	b289      	uxth	r1, r1
    60e6:	f7fc ff59 	bl	2f9c <pbuf_realloc>
    60ea:	9500      	str	r5, [sp, #0]
    60ec:	6860      	ldr	r0, [r4, #4]
    60ee:	6961      	ldr	r1, [r4, #20]
    60f0:	4a0e      	ldr	r2, [pc, #56]	; (612c <dhcp_rebind+0x90>)
    60f2:	2343      	movs	r3, #67	; 0x43
    60f4:	f7fd fc0e 	bl	3914 <udp_sendto_if>
    60f8:	4628      	mov	r0, r5
    60fa:	f7ff fd43 	bl	5b84 <dhcp_delete_request>
    60fe:	7ce3      	ldrb	r3, [r4, #19]
    6100:	3301      	adds	r3, #1
    6102:	b2db      	uxtb	r3, r3
    6104:	2b09      	cmp	r3, #9
    6106:	74e3      	strb	r3, [r4, #19]
    6108:	d804      	bhi.n	6114 <dhcp_rebind+0x78>
    610a:	f44f 727a 	mov.w	r2, #1000	; 0x3e8
    610e:	4353      	muls	r3, r2
    6110:	b29b      	uxth	r3, r3
    6112:	e001      	b.n	6118 <dhcp_rebind+0x7c>
    6114:	f242 7310 	movw	r3, #10000	; 0x2710
    6118:	f503 73f8 	add.w	r3, r3, #496	; 0x1f0
    611c:	3303      	adds	r3, #3
    611e:	f44f 72fa 	mov.w	r2, #500	; 0x1f4
    6122:	fb93 f3f2 	sdiv	r3, r3, r2
    6126:	83e3      	strh	r3, [r4, #30]
    6128:	4630      	mov	r0, r6
    612a:	bd7c      	pop	{r2, r3, r4, r5, r6, pc}
    612c:	0000a63c 	.word	0x0000a63c

00006130 <dhcp_fine_tmr>:
    6130:	4b26      	ldr	r3, [pc, #152]	; (61cc <dhcp_fine_tmr+0x9c>)
    6132:	b510      	push	{r4, lr}
    6134:	681c      	ldr	r4, [r3, #0]
    6136:	e046      	b.n	61c6 <dhcp_fine_tmr+0x96>
    6138:	6a23      	ldr	r3, [r4, #32]
    613a:	2b00      	cmp	r3, #0
    613c:	d042      	beq.n	61c4 <dhcp_fine_tmr+0x94>
    613e:	8bda      	ldrh	r2, [r3, #30]
    6140:	2a01      	cmp	r2, #1
    6142:	d902      	bls.n	614a <dhcp_fine_tmr+0x1a>
    6144:	3a01      	subs	r2, #1
    6146:	83da      	strh	r2, [r3, #30]
    6148:	e03c      	b.n	61c4 <dhcp_fine_tmr+0x94>
    614a:	d13b      	bne.n	61c4 <dhcp_fine_tmr+0x94>
    614c:	2200      	movs	r2, #0
    614e:	83da      	strh	r2, [r3, #30]
    6150:	7c9a      	ldrb	r2, [r3, #18]
    6152:	2a0c      	cmp	r2, #12
    6154:	d033      	beq.n	61be <dhcp_fine_tmr+0x8e>
    6156:	2a06      	cmp	r2, #6
    6158:	d031      	beq.n	61be <dhcp_fine_tmr+0x8e>
    615a:	2a01      	cmp	r2, #1
    615c:	d106      	bne.n	616c <dhcp_fine_tmr+0x3c>
    615e:	7cdb      	ldrb	r3, [r3, #19]
    6160:	2b05      	cmp	r3, #5
    6162:	d81f      	bhi.n	61a4 <dhcp_fine_tmr+0x74>
    6164:	4620      	mov	r0, r4
    6166:	f7ff ff1f 	bl	5fa8 <dhcp_select>
    616a:	e02b      	b.n	61c4 <dhcp_fine_tmr+0x94>
    616c:	2a08      	cmp	r2, #8
    616e:	d10a      	bne.n	6186 <dhcp_fine_tmr+0x56>
    6170:	7cdb      	ldrb	r3, [r3, #19]
    6172:	2b01      	cmp	r3, #1
    6174:	d803      	bhi.n	617e <dhcp_fine_tmr+0x4e>
    6176:	4620      	mov	r0, r4
    6178:	f7fd fab2 	bl	36e0 <dhcp_check>
    617c:	e022      	b.n	61c4 <dhcp_fine_tmr+0x94>
    617e:	4620      	mov	r0, r4
    6180:	f7fe f8ce 	bl	4320 <dhcp_bind>
    6184:	e01e      	b.n	61c4 <dhcp_fine_tmr+0x94>
    6186:	2a05      	cmp	r2, #5
    6188:	d103      	bne.n	6192 <dhcp_fine_tmr+0x62>
    618a:	4620      	mov	r0, r4
    618c:	f7ff fd62 	bl	5c54 <dhcp_renew>
    6190:	e018      	b.n	61c4 <dhcp_fine_tmr+0x94>
    6192:	2a04      	cmp	r2, #4
    6194:	d10a      	bne.n	61ac <dhcp_fine_tmr+0x7c>
    6196:	7cdb      	ldrb	r3, [r3, #19]
    6198:	2b08      	cmp	r3, #8
    619a:	d803      	bhi.n	61a4 <dhcp_fine_tmr+0x74>
    619c:	4620      	mov	r0, r4
    619e:	f7ff ff7d 	bl	609c <dhcp_rebind>
    61a2:	e00f      	b.n	61c4 <dhcp_fine_tmr+0x94>
    61a4:	4620      	mov	r0, r4
    61a6:	f7ff fcf9 	bl	5b9c <dhcp_release>
    61aa:	e008      	b.n	61be <dhcp_fine_tmr+0x8e>
    61ac:	2a03      	cmp	r2, #3
    61ae:	d109      	bne.n	61c4 <dhcp_fine_tmr+0x94>
    61b0:	7cdb      	ldrb	r3, [r3, #19]
    61b2:	2b01      	cmp	r3, #1
    61b4:	d803      	bhi.n	61be <dhcp_fine_tmr+0x8e>
    61b6:	4620      	mov	r0, r4
    61b8:	f7ff fddc 	bl	5d74 <dhcp_reboot>
    61bc:	e002      	b.n	61c4 <dhcp_fine_tmr+0x94>
    61be:	4620      	mov	r0, r4
    61c0:	f7ff fe30 	bl	5e24 <dhcp_discover>
    61c4:	6824      	ldr	r4, [r4, #0]
    61c6:	2c00      	cmp	r4, #0
    61c8:	d1b6      	bne.n	6138 <dhcp_fine_tmr+0x8>
    61ca:	bd10      	pop	{r4, pc}
    61cc:	20003228 	.word	0x20003228

000061d0 <dhcp_coarse_tmr>:
    61d0:	4b15      	ldr	r3, [pc, #84]	; (6228 <dhcp_coarse_tmr+0x58>)
    61d2:	b510      	push	{r4, lr}
    61d4:	681c      	ldr	r4, [r3, #0]
    61d6:	e023      	b.n	6220 <dhcp_coarse_tmr+0x50>
    61d8:	6a23      	ldr	r3, [r4, #32]
    61da:	b303      	cbz	r3, 621e <dhcp_coarse_tmr+0x4e>
    61dc:	8c5a      	ldrh	r2, [r3, #34]	; 0x22
    61de:	1e51      	subs	r1, r2, #1
    61e0:	2a01      	cmp	r2, #1
    61e2:	8459      	strh	r1, [r3, #34]	; 0x22
    61e4:	d10b      	bne.n	61fe <dhcp_coarse_tmr+0x2e>
    61e6:	7c9a      	ldrb	r2, [r3, #18]
    61e8:	2a0a      	cmp	r2, #10
    61ea:	d818      	bhi.n	621e <dhcp_coarse_tmr+0x4e>
    61ec:	f993 3012 	ldrsb.w	r3, [r3, #18]
    61f0:	4a0e      	ldr	r2, [pc, #56]	; (622c <dhcp_coarse_tmr+0x5c>)
    61f2:	409a      	lsls	r2, r3
    61f4:	d513      	bpl.n	621e <dhcp_coarse_tmr+0x4e>
    61f6:	4620      	mov	r0, r4
    61f8:	f7ff ff50 	bl	609c <dhcp_rebind>
    61fc:	e00f      	b.n	621e <dhcp_coarse_tmr+0x4e>
    61fe:	8c1a      	ldrh	r2, [r3, #32]
    6200:	1e51      	subs	r1, r2, #1
    6202:	2a01      	cmp	r2, #1
    6204:	8419      	strh	r1, [r3, #32]
    6206:	d10a      	bne.n	621e <dhcp_coarse_tmr+0x4e>
    6208:	7c9a      	ldrb	r2, [r3, #18]
    620a:	2a0a      	cmp	r2, #10
    620c:	d807      	bhi.n	621e <dhcp_coarse_tmr+0x4e>
    620e:	f993 3012 	ldrsb.w	r3, [r3, #18]
    6212:	4a06      	ldr	r2, [pc, #24]	; (622c <dhcp_coarse_tmr+0x5c>)
    6214:	409a      	lsls	r2, r3
    6216:	d502      	bpl.n	621e <dhcp_coarse_tmr+0x4e>
    6218:	4620      	mov	r0, r4
    621a:	f7ff fd1b 	bl	5c54 <dhcp_renew>
    621e:	6824      	ldr	r4, [r4, #0]
    6220:	2c00      	cmp	r4, #0
    6222:	d1d9      	bne.n	61d8 <dhcp_coarse_tmr+0x8>
    6224:	bd10      	pop	{r4, pc}
    6226:	bf00      	nop
    6228:	20003228 	.word	0x20003228
    622c:	44200000 	.word	0x44200000

00006230 <etharp_arp_input>:
    6230:	e92d 47f3 	stmdb	sp!, {r0, r1, r4, r5, r6, r7, r8, r9, sl, lr}
    6234:	4689      	mov	r9, r1
    6236:	4690      	mov	r8, r2
    6238:	4606      	mov	r6, r0
    623a:	2800      	cmp	r0, #0
    623c:	f000 8091 	beq.w	6362 <etharp_arp_input+0x132>
    6240:	8953      	ldrh	r3, [r2, #10]
    6242:	4d49      	ldr	r5, [pc, #292]	; (6368 <etharp_arp_input+0x138>)
    6244:	2b2b      	cmp	r3, #43	; 0x2b
    6246:	d807      	bhi.n	6258 <etharp_arp_input+0x28>
    6248:	8c6b      	ldrh	r3, [r5, #34]	; 0x22
    624a:	4610      	mov	r0, r2
    624c:	3301      	adds	r3, #1
    624e:	846b      	strh	r3, [r5, #34]	; 0x22
    6250:	8beb      	ldrh	r3, [r5, #30]
    6252:	3301      	adds	r3, #1
    6254:	83eb      	strh	r3, [r5, #30]
    6256:	e082      	b.n	635e <etharp_arp_input+0x12e>
    6258:	2001      	movs	r0, #1
    625a:	6857      	ldr	r7, [r2, #4]
    625c:	f7fb ff9b 	bl	2196 <htons>
    6260:	463c      	mov	r4, r7
    6262:	f834 3f10 	ldrh.w	r3, [r4, #16]!
    6266:	4283      	cmp	r3, r0
    6268:	d114      	bne.n	6294 <etharp_arp_input+0x64>
    626a:	f240 6004 	movw	r0, #1540	; 0x604
    626e:	f7fb ff92 	bl	2196 <htons>
    6272:	88a3      	ldrh	r3, [r4, #4]
    6274:	4283      	cmp	r3, r0
    6276:	d10d      	bne.n	6294 <etharp_arp_input+0x64>
    6278:	f44f 6000 	mov.w	r0, #2048	; 0x800
    627c:	f7fb ff8b 	bl	2196 <htons>
    6280:	8863      	ldrh	r3, [r4, #2]
    6282:	4283      	cmp	r3, r0
    6284:	d106      	bne.n	6294 <etharp_arp_input+0x64>
    6286:	f640 0006 	movw	r0, #2054	; 0x806
    628a:	f7fb ff84 	bl	2196 <htons>
    628e:	89fb      	ldrh	r3, [r7, #14]
    6290:	4283      	cmp	r3, r0
    6292:	d006      	beq.n	62a2 <etharp_arp_input+0x72>
    6294:	8d2b      	ldrh	r3, [r5, #40]	; 0x28
    6296:	3301      	adds	r3, #1
    6298:	852b      	strh	r3, [r5, #40]	; 0x28
    629a:	8beb      	ldrh	r3, [r5, #30]
    629c:	3301      	adds	r3, #1
    629e:	83eb      	strh	r3, [r5, #30]
    62a0:	e05c      	b.n	635c <etharp_arp_input+0x12c>
    62a2:	8b6b      	ldrh	r3, [r5, #26]
    62a4:	4630      	mov	r0, r6
    62a6:	3301      	adds	r3, #1
    62a8:	836b      	strh	r3, [r5, #26]
    62aa:	4621      	mov	r1, r4
    62ac:	f7fd f8d6 	bl	345c <autoip_arp_reply>
    62b0:	f8d7 001e 	ldr.w	r0, [r7, #30]
    62b4:	6873      	ldr	r3, [r6, #4]
    62b6:	9001      	str	r0, [sp, #4]
    62b8:	69a2      	ldr	r2, [r4, #24]
    62ba:	b15b      	cbz	r3, 62d4 <etharp_arp_input+0xa4>
    62bc:	429a      	cmp	r2, r3
    62be:	d109      	bne.n	62d4 <etharp_arp_input+0xa4>
    62c0:	4630      	mov	r0, r6
    62c2:	a901      	add	r1, sp, #4
    62c4:	f107 0218 	add.w	r2, r7, #24
    62c8:	2301      	movs	r3, #1
    62ca:	f7fc fdb9 	bl	2e40 <update_arp_entry>
    62ce:	f04f 0a01 	mov.w	sl, #1
    62d2:	e008      	b.n	62e6 <etharp_arp_input+0xb6>
    62d4:	4630      	mov	r0, r6
    62d6:	a901      	add	r1, sp, #4
    62d8:	f104 0208 	add.w	r2, r4, #8
    62dc:	2300      	movs	r3, #0
    62de:	f7fc fdaf 	bl	2e40 <update_arp_entry>
    62e2:	f04f 0a00 	mov.w	sl, #0
    62e6:	88e0      	ldrh	r0, [r4, #6]
    62e8:	f7fb ff55 	bl	2196 <htons>
    62ec:	2801      	cmp	r0, #1
    62ee:	d002      	beq.n	62f6 <etharp_arp_input+0xc6>
    62f0:	2802      	cmp	r0, #2
    62f2:	d130      	bne.n	6356 <etharp_arp_input+0x126>
    62f4:	e02a      	b.n	634c <etharp_arp_input+0x11c>
    62f6:	f1ba 0f00 	cmp.w	sl, #0
    62fa:	d02f      	beq.n	635c <etharp_arp_input+0x12c>
    62fc:	2002      	movs	r0, #2
    62fe:	f7fb ff4a 	bl	2196 <htons>
    6302:	f8d4 300e 	ldr.w	r3, [r4, #14]
    6306:	80e0      	strh	r0, [r4, #6]
    6308:	61a3      	str	r3, [r4, #24]
    630a:	6870      	ldr	r0, [r6, #4]
    630c:	f8c7 001e 	str.w	r0, [r7, #30]
    6310:	6a73      	ldr	r3, [r6, #36]	; 0x24
    6312:	b10b      	cbz	r3, 6318 <etharp_arp_input+0xe8>
    6314:	791b      	ldrb	r3, [r3, #4]
    6316:	b913      	cbnz	r3, 631e <etharp_arp_input+0xee>
    6318:	f104 0108 	add.w	r1, r4, #8
    631c:	e000      	b.n	6320 <etharp_arp_input+0xf0>
    631e:	4913      	ldr	r1, [pc, #76]	; (636c <etharp_arp_input+0x13c>)
    6320:	2306      	movs	r3, #6
    6322:	3b01      	subs	r3, #1
    6324:	b2db      	uxtb	r3, r3
    6326:	18e2      	adds	r2, r4, r3
    6328:	7a10      	ldrb	r0, [r2, #8]
    632a:	7490      	strb	r0, [r2, #18]
    632c:	5ccd      	ldrb	r5, [r1, r3]
    632e:	18f8      	adds	r0, r7, r3
    6330:	7085      	strb	r5, [r0, #2]
    6332:	f819 5003 	ldrb.w	r5, [r9, r3]
    6336:	7215      	strb	r5, [r2, #8]
    6338:	f819 2003 	ldrb.w	r2, [r9, r3]
    633c:	7202      	strb	r2, [r0, #8]
    633e:	2b00      	cmp	r3, #0
    6340:	d1ef      	bne.n	6322 <etharp_arp_input+0xf2>
    6342:	69b3      	ldr	r3, [r6, #24]
    6344:	4630      	mov	r0, r6
    6346:	4641      	mov	r1, r8
    6348:	4798      	blx	r3
    634a:	e007      	b.n	635c <etharp_arp_input+0x12c>
    634c:	4630      	mov	r0, r6
    634e:	a901      	add	r1, sp, #4
    6350:	f7ff fcca 	bl	5ce8 <dhcp_arp_reply>
    6354:	e002      	b.n	635c <etharp_arp_input+0x12c>
    6356:	8dab      	ldrh	r3, [r5, #44]	; 0x2c
    6358:	3301      	adds	r3, #1
    635a:	85ab      	strh	r3, [r5, #44]	; 0x2c
    635c:	4640      	mov	r0, r8
    635e:	f7fc fc30 	bl	2bc2 <pbuf_free>
    6362:	e8bd 87fc 	ldmia.w	sp!, {r2, r3, r4, r5, r6, r7, r8, r9, sl, pc}
    6366:	bf00      	nop
    6368:	20003244 	.word	0x20003244
    636c:	0000a636 	.word	0x0000a636

00006370 <dhcp_recv>:
    6370:	e92d 47f0 	stmdb	sp!, {r4, r5, r6, r7, r8, r9, sl, lr}
    6374:	6853      	ldr	r3, [r2, #4]
    6376:	4616      	mov	r6, r2
    6378:	8952      	ldrh	r2, [r2, #10]
    637a:	4605      	mov	r5, r0
    637c:	2a2b      	cmp	r2, #43	; 0x2b
    637e:	6a04      	ldr	r4, [r0, #32]
    6380:	f240 8114 	bls.w	65ac <dhcp_recv+0x23c>
    6384:	781a      	ldrb	r2, [r3, #0]
    6386:	2a02      	cmp	r2, #2
    6388:	f040 8110 	bne.w	65ac <dhcp_recv+0x23c>
    638c:	f890 702a 	ldrb.w	r7, [r0, #42]	; 0x2a
    6390:	4619      	mov	r1, r3
    6392:	3a02      	subs	r2, #2
    6394:	e00a      	b.n	63ac <dhcp_recv+0x3c>
    6396:	f890 c02b 	ldrb.w	ip, [r0, #43]	; 0x2b
    639a:	f891 e01c 	ldrb.w	lr, [r1, #28]
    639e:	3001      	adds	r0, #1
    63a0:	3101      	adds	r1, #1
    63a2:	45f4      	cmp	ip, lr
    63a4:	f040 8102 	bne.w	65ac <dhcp_recv+0x23c>
    63a8:	3201      	adds	r2, #1
    63aa:	b2d2      	uxtb	r2, r2
    63ac:	42ba      	cmp	r2, r7
    63ae:	d1f2      	bne.n	6396 <dhcp_recv+0x26>
    63b0:	6858      	ldr	r0, [r3, #4]
    63b2:	f7fb ffe6 	bl	2382 <ntohl>
    63b6:	6823      	ldr	r3, [r4, #0]
    63b8:	4298      	cmp	r0, r3
    63ba:	f040 80f7 	bne.w	65ac <dhcp_recv+0x23c>
    63be:	4620      	mov	r0, r4
    63c0:	f7fc fbef 	bl	2ba2 <dhcp_free_reply>
    63c4:	8930      	ldrh	r0, [r6, #8]
    63c6:	28f0      	cmp	r0, #240	; 0xf0
    63c8:	d908      	bls.n	63dc <dhcp_recv+0x6c>
    63ca:	38f0      	subs	r0, #240	; 0xf0
    63cc:	b280      	uxth	r0, r0
    63ce:	8220      	strh	r0, [r4, #16]
    63d0:	f7fb fc36 	bl	1c40 <mem_malloc>
    63d4:	60e0      	str	r0, [r4, #12]
    63d6:	b908      	cbnz	r0, 63dc <dhcp_recv+0x6c>
    63d8:	8220      	strh	r0, [r4, #16]
    63da:	e0e7      	b.n	65ac <dhcp_recv+0x23c>
    63dc:	20f0      	movs	r0, #240	; 0xf0
    63de:	f7fb fc2f 	bl	1c40 <mem_malloc>
    63e2:	4607      	mov	r7, r0
    63e4:	60a0      	str	r0, [r4, #8]
    63e6:	b940      	cbnz	r0, 63fa <dhcp_recv+0x8a>
    63e8:	68e0      	ldr	r0, [r4, #12]
    63ea:	2800      	cmp	r0, #0
    63ec:	f000 80de 	beq.w	65ac <dhcp_recv+0x23c>
    63f0:	f7fc fb54 	bl	2a9c <mem_free>
    63f4:	60e7      	str	r7, [r4, #12]
    63f6:	8227      	strh	r7, [r4, #16]
    63f8:	e0d8      	b.n	65ac <dhcp_recv+0x23c>
    63fa:	4639      	mov	r1, r7
    63fc:	4630      	mov	r0, r6
    63fe:	22f0      	movs	r2, #240	; 0xf0
    6400:	2300      	movs	r3, #0
    6402:	f7fb fd96 	bl	1f32 <pbuf_copy_partial>
    6406:	68e1      	ldr	r1, [r4, #12]
    6408:	2900      	cmp	r1, #0
    640a:	f000 80d7 	beq.w	65bc <dhcp_recv+0x24c>
    640e:	4630      	mov	r0, r6
    6410:	8a22      	ldrh	r2, [r4, #16]
    6412:	23f0      	movs	r3, #240	; 0xf0
    6414:	f7fb fd8d 	bl	1f32 <pbuf_copy_partial>
    6418:	e0d0      	b.n	65bc <dhcp_recv+0x24c>
    641a:	7883      	ldrb	r3, [r0, #2]
    641c:	2b05      	cmp	r3, #5
    641e:	f040 8083 	bne.w	6528 <dhcp_recv+0x1b8>
    6422:	7ca3      	ldrb	r3, [r4, #18]
    6424:	2b01      	cmp	r3, #1
    6426:	d175      	bne.n	6514 <dhcp_recv+0x1a4>
    6428:	6a2f      	ldr	r7, [r5, #32]
    642a:	3b01      	subs	r3, #1
    642c:	62fb      	str	r3, [r7, #44]	; 0x2c
    642e:	633b      	str	r3, [r7, #48]	; 0x30
    6430:	637b      	str	r3, [r7, #52]	; 0x34
    6432:	4638      	mov	r0, r7
    6434:	2133      	movs	r1, #51	; 0x33
    6436:	f7fb fadf 	bl	19f8 <dhcp_get_option_ptr>
    643a:	b118      	cbz	r0, 6444 <dhcp_recv+0xd4>
    643c:	3002      	adds	r0, #2
    643e:	f7fb fb24 	bl	1a8a <dhcp_get_option_long>
    6442:	6478      	str	r0, [r7, #68]	; 0x44
    6444:	4638      	mov	r0, r7
    6446:	213a      	movs	r1, #58	; 0x3a
    6448:	f7fb fad6 	bl	19f8 <dhcp_get_option_ptr>
    644c:	b120      	cbz	r0, 6458 <dhcp_recv+0xe8>
    644e:	3002      	adds	r0, #2
    6450:	f7fb fb1b 	bl	1a8a <dhcp_get_option_long>
    6454:	64b8      	str	r0, [r7, #72]	; 0x48
    6456:	e002      	b.n	645e <dhcp_recv+0xee>
    6458:	6c7b      	ldr	r3, [r7, #68]	; 0x44
    645a:	085b      	lsrs	r3, r3, #1
    645c:	64bb      	str	r3, [r7, #72]	; 0x48
    645e:	4638      	mov	r0, r7
    6460:	213b      	movs	r1, #59	; 0x3b
    6462:	f7fb fac9 	bl	19f8 <dhcp_get_option_ptr>
    6466:	b120      	cbz	r0, 6472 <dhcp_recv+0x102>
    6468:	3002      	adds	r0, #2
    646a:	f7fb fb0e 	bl	1a8a <dhcp_get_option_long>
    646e:	64f8      	str	r0, [r7, #76]	; 0x4c
    6470:	e001      	b.n	6476 <dhcp_recv+0x106>
    6472:	6c7b      	ldr	r3, [r7, #68]	; 0x44
    6474:	64fb      	str	r3, [r7, #76]	; 0x4c
    6476:	68bb      	ldr	r3, [r7, #8]
    6478:	4638      	mov	r0, r7
    647a:	f113 0210 	adds.w	r2, r3, #16
    647e:	bf14      	ite	ne
    6480:	691b      	ldrne	r3, [r3, #16]
    6482:	4613      	moveq	r3, r2
    6484:	62bb      	str	r3, [r7, #40]	; 0x28
    6486:	2101      	movs	r1, #1
    6488:	f7fb fab6 	bl	19f8 <dhcp_get_option_ptr>
    648c:	b128      	cbz	r0, 649a <dhcp_recv+0x12a>
    648e:	3002      	adds	r0, #2
    6490:	f7fb fafb 	bl	1a8a <dhcp_get_option_long>
    6494:	f7fb ff36 	bl	2304 <htonl>
    6498:	62f8      	str	r0, [r7, #44]	; 0x2c
    649a:	4638      	mov	r0, r7
    649c:	2103      	movs	r1, #3
    649e:	f7fb faab 	bl	19f8 <dhcp_get_option_ptr>
    64a2:	b128      	cbz	r0, 64b0 <dhcp_recv+0x140>
    64a4:	3002      	adds	r0, #2
    64a6:	f7fb faf0 	bl	1a8a <dhcp_get_option_long>
    64aa:	f7fb ff2b 	bl	2304 <htonl>
    64ae:	6338      	str	r0, [r7, #48]	; 0x30
    64b0:	4638      	mov	r0, r7
    64b2:	211c      	movs	r1, #28
    64b4:	f7fb faa0 	bl	19f8 <dhcp_get_option_ptr>
    64b8:	b128      	cbz	r0, 64c6 <dhcp_recv+0x156>
    64ba:	3002      	adds	r0, #2
    64bc:	f7fb fae5 	bl	1a8a <dhcp_get_option_long>
    64c0:	f7fb ff20 	bl	2304 <htonl>
    64c4:	6378      	str	r0, [r7, #52]	; 0x34
    64c6:	4638      	mov	r0, r7
    64c8:	2106      	movs	r1, #6
    64ca:	f7fb fa95 	bl	19f8 <dhcp_get_option_ptr>
    64ce:	4681      	mov	r9, r0
    64d0:	b1d0      	cbz	r0, 6508 <dhcp_recv+0x198>
    64d2:	7843      	ldrb	r3, [r0, #1]
    64d4:	089b      	lsrs	r3, r3, #2
    64d6:	2b02      	cmp	r3, #2
    64d8:	63bb      	str	r3, [r7, #56]	; 0x38
    64da:	d901      	bls.n	64e0 <dhcp_recv+0x170>
    64dc:	2302      	movs	r3, #2
    64de:	63bb      	str	r3, [r7, #56]	; 0x38
    64e0:	f04f 0800 	mov.w	r8, #0
    64e4:	e00d      	b.n	6502 <dhcp_recv+0x192>
    64e6:	eb09 0088 	add.w	r0, r9, r8, lsl #2
    64ea:	3002      	adds	r0, #2
    64ec:	f7fb facd 	bl	1a8a <dhcp_get_option_long>
    64f0:	f7fb ff08 	bl	2304 <htonl>
    64f4:	eb07 0388 	add.w	r3, r7, r8, lsl #2
    64f8:	f108 0801 	add.w	r8, r8, #1
    64fc:	63d8      	str	r0, [r3, #60]	; 0x3c
    64fe:	fa5f f888 	uxtb.w	r8, r8
    6502:	6bbb      	ldr	r3, [r7, #56]	; 0x38
    6504:	4598      	cmp	r8, r3
    6506:	d3ee      	bcc.n	64e6 <dhcp_recv+0x176>
    6508:	2300      	movs	r3, #0
    650a:	83e3      	strh	r3, [r4, #30]
    650c:	4628      	mov	r0, r5
    650e:	f7fd f8e7 	bl	36e0 <dhcp_check>
    6512:	e04b      	b.n	65ac <dhcp_recv+0x23c>
    6514:	3b03      	subs	r3, #3
    6516:	b2db      	uxtb	r3, r3
    6518:	2b02      	cmp	r3, #2
    651a:	d847      	bhi.n	65ac <dhcp_recv+0x23c>
    651c:	2300      	movs	r3, #0
    651e:	83e3      	strh	r3, [r4, #30]
    6520:	4628      	mov	r0, r5
    6522:	f7fd fefd 	bl	4320 <dhcp_bind>
    6526:	e041      	b.n	65ac <dhcp_recv+0x23c>
    6528:	2b06      	cmp	r3, #6
    652a:	d122      	bne.n	6572 <dhcp_recv+0x202>
    652c:	7ca3      	ldrb	r3, [r4, #18]
    652e:	2b05      	cmp	r3, #5
    6530:	d83c      	bhi.n	65ac <dhcp_recv+0x23c>
    6532:	f994 3012 	ldrsb.w	r3, [r4, #18]
    6536:	f04f 42b8 	mov.w	r2, #1543503872	; 0x5c000000
    653a:	409a      	lsls	r2, r3
    653c:	d536      	bpl.n	65ac <dhcp_recv+0x23c>
    653e:	2300      	movs	r3, #0
    6540:	83e3      	strh	r3, [r4, #30]
    6542:	4628      	mov	r0, r5
    6544:	6a2f      	ldr	r7, [r5, #32]
    6546:	f7fb fc51 	bl	1dec <netif_set_down>
    654a:	4628      	mov	r0, r5
    654c:	491f      	ldr	r1, [pc, #124]	; (65cc <dhcp_recv+0x25c>)
    654e:	f7fd fdf5 	bl	413c <netif_set_ipaddr>
    6552:	4628      	mov	r0, r5
    6554:	491d      	ldr	r1, [pc, #116]	; (65cc <dhcp_recv+0x25c>)
    6556:	f7fb fc3a 	bl	1dce <netif_set_gw>
    655a:	4628      	mov	r0, r5
    655c:	491b      	ldr	r1, [pc, #108]	; (65cc <dhcp_recv+0x25c>)
    655e:	f7fb fc3a 	bl	1dd6 <netif_set_netmask>
    6562:	4638      	mov	r0, r7
    6564:	210c      	movs	r1, #12
    6566:	f7fb f9e7 	bl	1938 <dhcp_set_state>
    656a:	4628      	mov	r0, r5
    656c:	f7ff fc5a 	bl	5e24 <dhcp_discover>
    6570:	e01c      	b.n	65ac <dhcp_recv+0x23c>
    6572:	2b02      	cmp	r3, #2
    6574:	d11a      	bne.n	65ac <dhcp_recv+0x23c>
    6576:	7ca3      	ldrb	r3, [r4, #18]
    6578:	2b06      	cmp	r3, #6
    657a:	d117      	bne.n	65ac <dhcp_recv+0x23c>
    657c:	6a2f      	ldr	r7, [r5, #32]
    657e:	2300      	movs	r3, #0
    6580:	83e3      	strh	r3, [r4, #30]
    6582:	4638      	mov	r0, r7
    6584:	2136      	movs	r1, #54	; 0x36
    6586:	f7fb fa37 	bl	19f8 <dhcp_get_option_ptr>
    658a:	b178      	cbz	r0, 65ac <dhcp_recv+0x23c>
    658c:	3002      	adds	r0, #2
    658e:	f7fb fa7c 	bl	1a8a <dhcp_get_option_long>
    6592:	f7fb feb7 	bl	2304 <htonl>
    6596:	68bb      	ldr	r3, [r7, #8]
    6598:	6278      	str	r0, [r7, #36]	; 0x24
    659a:	f113 0210 	adds.w	r2, r3, #16
    659e:	bf14      	ite	ne
    65a0:	691b      	ldrne	r3, [r3, #16]
    65a2:	4613      	moveq	r3, r2
    65a4:	62bb      	str	r3, [r7, #40]	; 0x28
    65a6:	4628      	mov	r0, r5
    65a8:	f7ff fcfe 	bl	5fa8 <dhcp_select>
    65ac:	4620      	mov	r0, r4
    65ae:	f7fc faf8 	bl	2ba2 <dhcp_free_reply>
    65b2:	4630      	mov	r0, r6
    65b4:	e8bd 47f0 	ldmia.w	sp!, {r4, r5, r6, r7, r8, r9, sl, lr}
    65b8:	f7fc bb03 	b.w	2bc2 <pbuf_free>
    65bc:	4620      	mov	r0, r4
    65be:	2135      	movs	r1, #53	; 0x35
    65c0:	f7fb fa1a 	bl	19f8 <dhcp_get_option_ptr>
    65c4:	2800      	cmp	r0, #0
    65c6:	f47f af28 	bne.w	641a <dhcp_recv+0xaa>
    65ca:	e7ef      	b.n	65ac <dhcp_recv+0x23c>
    65cc:	0000a5f8 	.word	0x0000a5f8

000065d0 <icmp_dest_unreach>:
    65d0:	e92d 41f3 	stmdb	sp!, {r0, r1, r4, r5, r6, r7, r8, lr}
    65d4:	2200      	movs	r2, #0
    65d6:	4605      	mov	r5, r0
    65d8:	460e      	mov	r6, r1
    65da:	2001      	movs	r0, #1
    65dc:	2124      	movs	r1, #36	; 0x24
    65de:	f7fc fd4d 	bl	307c <pbuf_alloc>
    65e2:	4604      	mov	r4, r0
    65e4:	2800      	cmp	r0, #0
    65e6:	d033      	beq.n	6650 <icmp_dest_unreach+0x80>
    65e8:	6847      	ldr	r7, [r0, #4]
    65ea:	2303      	movs	r3, #3
    65ec:	f8d5 8004 	ldr.w	r8, [r5, #4]
    65f0:	703b      	strb	r3, [r7, #0]
    65f2:	3b03      	subs	r3, #3
    65f4:	707e      	strb	r6, [r7, #1]
    65f6:	713b      	strb	r3, [r7, #4]
    65f8:	717b      	strb	r3, [r7, #5]
    65fa:	71bb      	strb	r3, [r7, #6]
    65fc:	71fb      	strb	r3, [r7, #7]
    65fe:	6842      	ldr	r2, [r0, #4]
    6600:	686b      	ldr	r3, [r5, #4]
    6602:	3208      	adds	r2, #8
    6604:	f103 011c 	add.w	r1, r3, #28
    6608:	f853 0b04 	ldr.w	r0, [r3], #4
    660c:	428b      	cmp	r3, r1
    660e:	f842 0b04 	str.w	r0, [r2], #4
    6612:	d1f9      	bne.n	6608 <icmp_dest_unreach+0x38>
    6614:	2500      	movs	r5, #0
    6616:	70bd      	strb	r5, [r7, #2]
    6618:	70fd      	strb	r5, [r7, #3]
    661a:	8961      	ldrh	r1, [r4, #10]
    661c:	4638      	mov	r0, r7
    661e:	f7fb ffa3 	bl	2568 <inet_chksum>
    6622:	4b0d      	ldr	r3, [pc, #52]	; (6658 <icmp_dest_unreach+0x88>)
    6624:	8078      	strh	r0, [r7, #2]
    6626:	f8b3 2048 	ldrh.w	r2, [r3, #72]	; 0x48
    662a:	4620      	mov	r0, r4
    662c:	3201      	adds	r2, #1
    662e:	f8a3 2048 	strh.w	r2, [r3, #72]	; 0x48
    6632:	2301      	movs	r3, #1
    6634:	9301      	str	r3, [sp, #4]
    6636:	4629      	mov	r1, r5
    6638:	f108 020c 	add.w	r2, r8, #12
    663c:	33fe      	adds	r3, #254	; 0xfe
    663e:	9500      	str	r5, [sp, #0]
    6640:	f7fc f872 	bl	2728 <ip_output>
    6644:	4620      	mov	r0, r4
    6646:	b002      	add	sp, #8
    6648:	e8bd 41f0 	ldmia.w	sp!, {r4, r5, r6, r7, r8, lr}
    664c:	f7fc bab9 	b.w	2bc2 <pbuf_free>
    6650:	b002      	add	sp, #8
    6652:	e8bd 81f0 	ldmia.w	sp!, {r4, r5, r6, r7, r8, pc}
    6656:	bf00      	nop
    6658:	20003244 	.word	0x20003244

0000665c <udp_input>:
    665c:	e92d 4ff0 	stmdb	sp!, {r4, r5, r6, r7, r8, r9, sl, fp, lr}
    6660:	4e79      	ldr	r6, [pc, #484]	; (6848 <udp_input+0x1ec>)
    6662:	6847      	ldr	r7, [r0, #4]
    6664:	f8b6 3062 	ldrh.w	r3, [r6, #98]	; 0x62
    6668:	4605      	mov	r5, r0
    666a:	3301      	adds	r3, #1
    666c:	f8a6 3062 	strh.w	r3, [r6, #98]	; 0x62
    6670:	b089      	sub	sp, #36	; 0x24
    6672:	8838      	ldrh	r0, [r7, #0]
    6674:	468a      	mov	sl, r1
    6676:	f7fb fdd0 	bl	221a <ntohs>
    667a:	0a01      	lsrs	r1, r0, #8
    667c:	892b      	ldrh	r3, [r5, #8]
    667e:	f001 010f 	and.w	r1, r1, #15
    6682:	1c8a      	adds	r2, r1, #2
    6684:	ebb3 0f82 	cmp.w	r3, r2, lsl #2
    6688:	db06      	blt.n	6698 <udp_input+0x3c>
    668a:	0089      	lsls	r1, r1, #2
    668c:	4628      	mov	r0, r5
    668e:	4249      	negs	r1, r1
    6690:	f7fb fbbb 	bl	1e0a <pbuf_header>
    6694:	4683      	mov	fp, r0
    6696:	b128      	cbz	r0, 66a4 <udp_input+0x48>
    6698:	f8b6 306a 	ldrh.w	r3, [r6, #106]	; 0x6a
    669c:	3301      	adds	r3, #1
    669e:	f8a6 306a 	strh.w	r3, [r6, #106]	; 0x6a
    66a2:	e0c0      	b.n	6826 <udp_input+0x1ca>
    66a4:	4651      	mov	r1, sl
    66a6:	f107 0010 	add.w	r0, r7, #16
    66aa:	9006      	str	r0, [sp, #24]
    66ac:	f7fc f862 	bl	2774 <ip_addr_isbroadcast>
    66b0:	f8d5 9004 	ldr.w	r9, [r5, #4]
    66b4:	4680      	mov	r8, r0
    66b6:	f8b9 0000 	ldrh.w	r0, [r9]
    66ba:	f7fb fdae 	bl	221a <ntohs>
    66be:	9005      	str	r0, [sp, #20]
    66c0:	f8b9 0002 	ldrh.w	r0, [r9, #2]
    66c4:	f7fb fda9 	bl	221a <ntohs>
    66c8:	2844      	cmp	r0, #68	; 0x44
    66ca:	d110      	bne.n	66ee <udp_input+0x92>
    66cc:	9b05      	ldr	r3, [sp, #20]
    66ce:	2b43      	cmp	r3, #67	; 0x43
    66d0:	d153      	bne.n	677a <udp_input+0x11e>
    66d2:	f8da 3020 	ldr.w	r3, [sl, #32]
    66d6:	2b00      	cmp	r3, #0
    66d8:	d04f      	beq.n	677a <udp_input+0x11e>
    66da:	685c      	ldr	r4, [r3, #4]
    66dc:	2c00      	cmp	r4, #0
    66de:	d04c      	beq.n	677a <udp_input+0x11e>
    66e0:	6863      	ldr	r3, [r4, #4]
    66e2:	2b00      	cmp	r3, #0
    66e4:	d051      	beq.n	678a <udp_input+0x12e>
    66e6:	68fa      	ldr	r2, [r7, #12]
    66e8:	4293      	cmp	r3, r2
    66ea:	d146      	bne.n	677a <udp_input+0x11e>
    66ec:	e04d      	b.n	678a <udp_input+0x12e>
    66ee:	4957      	ldr	r1, [pc, #348]	; (684c <udp_input+0x1f0>)
    66f0:	465a      	mov	r2, fp
    66f2:	680b      	ldr	r3, [r1, #0]
    66f4:	9003      	str	r0, [sp, #12]
    66f6:	9307      	str	r3, [sp, #28]
    66f8:	461c      	mov	r4, r3
    66fa:	465b      	mov	r3, fp
    66fc:	468b      	mov	fp, r1
    66fe:	4641      	mov	r1, r8
    6700:	e037      	b.n	6772 <udp_input+0x116>
    6702:	f8b4 c012 	ldrh.w	ip, [r4, #18]
    6706:	9803      	ldr	r0, [sp, #12]
    6708:	4584      	cmp	ip, r0
    670a:	d130      	bne.n	676e <udp_input+0x112>
    670c:	b921      	cbnz	r1, 6718 <udp_input+0xbc>
    670e:	f8d4 c000 	ldr.w	ip, [r4]
    6712:	f1bc 0f00 	cmp.w	ip, #0
    6716:	d006      	beq.n	6726 <udp_input+0xca>
    6718:	f8d7 8010 	ldr.w	r8, [r7, #16]
    671c:	f8d4 c000 	ldr.w	ip, [r4]
    6720:	45c4      	cmp	ip, r8
    6722:	d000      	beq.n	6726 <udp_input+0xca>
    6724:	b319      	cbz	r1, 676e <udp_input+0x112>
    6726:	2b00      	cmp	r3, #0
    6728:	f040 8088 	bne.w	683c <udp_input+0x1e0>
    672c:	f894 c010 	ldrb.w	ip, [r4, #16]
    6730:	f00c 0c04 	and.w	ip, ip, #4
    6734:	f1bc 0f00 	cmp.w	ip, #0
    6738:	bf08      	it	eq
    673a:	4623      	moveq	r3, r4
    673c:	e07e      	b.n	683c <udp_input+0x1e0>
    673e:	f8d4 8004 	ldr.w	r8, [r4, #4]
    6742:	f1b8 0f00 	cmp.w	r8, #0
    6746:	d003      	beq.n	6750 <udp_input+0xf4>
    6748:	f8d7 c00c 	ldr.w	ip, [r7, #12]
    674c:	45e0      	cmp	r8, ip
    674e:	d10e      	bne.n	676e <udp_input+0x112>
    6750:	4688      	mov	r8, r1
    6752:	b132      	cbz	r2, 6762 <udp_input+0x106>
    6754:	68e3      	ldr	r3, [r4, #12]
    6756:	f8cb 4000 	str.w	r4, [fp]
    675a:	60d3      	str	r3, [r2, #12]
    675c:	9b07      	ldr	r3, [sp, #28]
    675e:	60e3      	str	r3, [r4, #12]
    6760:	e013      	b.n	678a <udp_input+0x12e>
    6762:	f8b6 3076 	ldrh.w	r3, [r6, #118]	; 0x76
    6766:	3301      	adds	r3, #1
    6768:	f8a6 3076 	strh.w	r3, [r6, #118]	; 0x76
    676c:	e00d      	b.n	678a <udp_input+0x12e>
    676e:	4622      	mov	r2, r4
    6770:	68e4      	ldr	r4, [r4, #12]
    6772:	2c00      	cmp	r4, #0
    6774:	d1c5      	bne.n	6702 <udp_input+0xa6>
    6776:	4688      	mov	r8, r1
    6778:	b933      	cbnz	r3, 6788 <udp_input+0x12c>
    677a:	693b      	ldr	r3, [r7, #16]
    677c:	f8da 2004 	ldr.w	r2, [sl, #4]
    6780:	429a      	cmp	r2, r3
    6782:	d155      	bne.n	6830 <udp_input+0x1d4>
    6784:	2400      	movs	r4, #0
    6786:	e000      	b.n	678a <udp_input+0x12e>
    6788:	461c      	mov	r4, r3
    678a:	f8b9 3006 	ldrh.w	r3, [r9, #6]
    678e:	b17b      	cbz	r3, 67b0 <udp_input+0x154>
    6790:	892b      	ldrh	r3, [r5, #8]
    6792:	4628      	mov	r0, r5
    6794:	9300      	str	r3, [sp, #0]
    6796:	f107 010c 	add.w	r1, r7, #12
    679a:	9a06      	ldr	r2, [sp, #24]
    679c:	2311      	movs	r3, #17
    679e:	f7fb fe98 	bl	24d2 <inet_chksum_pseudo>
    67a2:	b128      	cbz	r0, 67b0 <udp_input+0x154>
    67a4:	f8b6 3068 	ldrh.w	r3, [r6, #104]	; 0x68
    67a8:	3301      	adds	r3, #1
    67aa:	f8a6 3068 	strh.w	r3, [r6, #104]	; 0x68
    67ae:	e03a      	b.n	6826 <udp_input+0x1ca>
    67b0:	4628      	mov	r0, r5
    67b2:	f06f 0107 	mvn.w	r1, #7
    67b6:	f7fb fb28 	bl	1e0a <pbuf_header>
    67ba:	2800      	cmp	r0, #0
    67bc:	d133      	bne.n	6826 <udp_input+0x1ca>
    67be:	b16c      	cbz	r4, 67dc <udp_input+0x180>
    67c0:	69a6      	ldr	r6, [r4, #24]
    67c2:	2e00      	cmp	r6, #0
    67c4:	d034      	beq.n	6830 <udp_input+0x1d4>
    67c6:	9805      	ldr	r0, [sp, #20]
    67c8:	4621      	mov	r1, r4
    67ca:	9000      	str	r0, [sp, #0]
    67cc:	69e0      	ldr	r0, [r4, #28]
    67ce:	462a      	mov	r2, r5
    67d0:	f107 030c 	add.w	r3, r7, #12
    67d4:	47b0      	blx	r6
    67d6:	b009      	add	sp, #36	; 0x24
    67d8:	e8bd 8ff0 	ldmia.w	sp!, {r4, r5, r6, r7, r8, r9, sl, fp, pc}
    67dc:	f1b8 0f00 	cmp.w	r8, #0
    67e0:	d11c      	bne.n	681c <udp_input+0x1c0>
    67e2:	f04f 4070 	mov.w	r0, #4026531840	; 0xf0000000
    67e6:	f7fb fdcc 	bl	2382 <ntohl>
    67ea:	4604      	mov	r4, r0
    67ec:	f04f 4060 	mov.w	r0, #3758096384	; 0xe0000000
    67f0:	f7fb fdc7 	bl	2382 <ntohl>
    67f4:	693b      	ldr	r3, [r7, #16]
    67f6:	ea04 0303 	and.w	r3, r4, r3
    67fa:	4283      	cmp	r3, r0
    67fc:	d00e      	beq.n	681c <udp_input+0x1c0>
    67fe:	8838      	ldrh	r0, [r7, #0]
    6800:	f7fb fd0b 	bl	221a <ntohs>
    6804:	0a01      	lsrs	r1, r0, #8
    6806:	f001 010f 	and.w	r1, r1, #15
    680a:	3102      	adds	r1, #2
    680c:	0089      	lsls	r1, r1, #2
    680e:	4628      	mov	r0, r5
    6810:	f7fb fafb 	bl	1e0a <pbuf_header>
    6814:	4628      	mov	r0, r5
    6816:	2103      	movs	r1, #3
    6818:	f7ff feda 	bl	65d0 <icmp_dest_unreach>
    681c:	f8b6 3070 	ldrh.w	r3, [r6, #112]	; 0x70
    6820:	3301      	adds	r3, #1
    6822:	f8a6 3070 	strh.w	r3, [r6, #112]	; 0x70
    6826:	f8b6 3066 	ldrh.w	r3, [r6, #102]	; 0x66
    682a:	3301      	adds	r3, #1
    682c:	f8a6 3066 	strh.w	r3, [r6, #102]	; 0x66
    6830:	4628      	mov	r0, r5
    6832:	b009      	add	sp, #36	; 0x24
    6834:	e8bd 4ff0 	ldmia.w	sp!, {r4, r5, r6, r7, r8, r9, sl, fp, lr}
    6838:	f7fc b9c3 	b.w	2bc2 <pbuf_free>
    683c:	f8b4 c014 	ldrh.w	ip, [r4, #20]
    6840:	9805      	ldr	r0, [sp, #20]
    6842:	4584      	cmp	ip, r0
    6844:	d193      	bne.n	676e <udp_input+0x112>
    6846:	e77a      	b.n	673e <udp_input+0xe2>
    6848:	20003244 	.word	0x20003244
    684c:	20003440 	.word	0x20003440

00006850 <ip_input>:
    6850:	e92d 47f0 	stmdb	sp!, {r4, r5, r6, r7, r8, r9, sl, lr}
    6854:	4f7b      	ldr	r7, [pc, #492]	; (6a44 <ip_input+0x1f4>)
    6856:	6845      	ldr	r5, [r0, #4]
    6858:	8e7b      	ldrh	r3, [r7, #50]	; 0x32
    685a:	4604      	mov	r4, r0
    685c:	3301      	adds	r3, #1
    685e:	867b      	strh	r3, [r7, #50]	; 0x32
    6860:	8828      	ldrh	r0, [r5, #0]
    6862:	4688      	mov	r8, r1
    6864:	f7fb fcd9 	bl	221a <ntohs>
    6868:	0b03      	lsrs	r3, r0, #12
    686a:	b29b      	uxth	r3, r3
    686c:	2b04      	cmp	r3, #4
    686e:	463e      	mov	r6, r7
    6870:	d008      	beq.n	6884 <ip_input+0x34>
    6872:	4620      	mov	r0, r4
    6874:	f7fc f9a5 	bl	2bc2 <pbuf_free>
    6878:	f8b7 3044 	ldrh.w	r3, [r7, #68]	; 0x44
    687c:	3301      	adds	r3, #1
    687e:	f8a7 3044 	strh.w	r3, [r7, #68]	; 0x44
    6882:	e01f      	b.n	68c4 <ip_input+0x74>
    6884:	ea4f 1990 	mov.w	r9, r0, lsr #6
    6888:	8868      	ldrh	r0, [r5, #2]
    688a:	f7fb fcc6 	bl	221a <ntohs>
    688e:	8963      	ldrh	r3, [r4, #10]
    6890:	f009 093c 	and.w	r9, r9, #60	; 0x3c
    6894:	454b      	cmp	r3, r9
    6896:	4682      	mov	sl, r0
    6898:	d302      	bcc.n	68a0 <ip_input+0x50>
    689a:	8923      	ldrh	r3, [r4, #8]
    689c:	4283      	cmp	r3, r0
    689e:	d206      	bcs.n	68ae <ip_input+0x5e>
    68a0:	4620      	mov	r0, r4
    68a2:	f7fc f98e 	bl	2bc2 <pbuf_free>
    68a6:	8f73      	ldrh	r3, [r6, #58]	; 0x3a
    68a8:	3301      	adds	r3, #1
    68aa:	8773      	strh	r3, [r6, #58]	; 0x3a
    68ac:	e074      	b.n	6998 <ip_input+0x148>
    68ae:	4628      	mov	r0, r5
    68b0:	4649      	mov	r1, r9
    68b2:	f7fb fe59 	bl	2568 <inet_chksum>
    68b6:	b148      	cbz	r0, 68cc <ip_input+0x7c>
    68b8:	4620      	mov	r0, r4
    68ba:	f7fc f982 	bl	2bc2 <pbuf_free>
    68be:	8f3b      	ldrh	r3, [r7, #56]	; 0x38
    68c0:	3301      	adds	r3, #1
    68c2:	873b      	strh	r3, [r7, #56]	; 0x38
    68c4:	8efb      	ldrh	r3, [r7, #54]	; 0x36
    68c6:	3301      	adds	r3, #1
    68c8:	86fb      	strh	r3, [r7, #54]	; 0x36
    68ca:	e0b7      	b.n	6a3c <ip_input+0x1ec>
    68cc:	4651      	mov	r1, sl
    68ce:	4620      	mov	r0, r4
    68d0:	f7fc fb64 	bl	2f9c <pbuf_realloc>
    68d4:	4647      	mov	r7, r8
    68d6:	f04f 0a01 	mov.w	sl, #1
    68da:	e001      	b.n	68e0 <ip_input+0x90>
    68dc:	f04f 0a00 	mov.w	sl, #0
    68e0:	4638      	mov	r0, r7
    68e2:	f7fb fa8d 	bl	1e00 <netif_is_up>
    68e6:	b168      	cbz	r0, 6904 <ip_input+0xb4>
    68e8:	f117 0f04 	cmn.w	r7, #4
    68ec:	d00a      	beq.n	6904 <ip_input+0xb4>
    68ee:	687b      	ldr	r3, [r7, #4]
    68f0:	b143      	cbz	r3, 6904 <ip_input+0xb4>
    68f2:	692a      	ldr	r2, [r5, #16]
    68f4:	429a      	cmp	r2, r3
    68f6:	d01e      	beq.n	6936 <ip_input+0xe6>
    68f8:	f105 0010 	add.w	r0, r5, #16
    68fc:	4639      	mov	r1, r7
    68fe:	f7fb ff39 	bl	2774 <ip_addr_isbroadcast>
    6902:	b9c0      	cbnz	r0, 6936 <ip_input+0xe6>
    6904:	f1ba 0f00 	cmp.w	sl, #0
    6908:	d002      	beq.n	6910 <ip_input+0xc0>
    690a:	4b4f      	ldr	r3, [pc, #316]	; (6a48 <ip_input+0x1f8>)
    690c:	681f      	ldr	r7, [r3, #0]
    690e:	e000      	b.n	6912 <ip_input+0xc2>
    6910:	683f      	ldr	r7, [r7, #0]
    6912:	4547      	cmp	r7, r8
    6914:	bf08      	it	eq
    6916:	683f      	ldreq	r7, [r7, #0]
    6918:	2f00      	cmp	r7, #0
    691a:	d1df      	bne.n	68dc <ip_input+0x8c>
    691c:	8928      	ldrh	r0, [r5, #8]
    691e:	f7fb fc7c 	bl	221a <ntohs>
    6922:	b2c0      	uxtb	r0, r0
    6924:	2811      	cmp	r0, #17
    6926:	d106      	bne.n	6936 <ip_input+0xe6>
    6928:	eb05 0309 	add.w	r3, r5, r9
    692c:	8858      	ldrh	r0, [r3, #2]
    692e:	f7fb fc74 	bl	221a <ntohs>
    6932:	2844      	cmp	r0, #68	; 0x44
    6934:	d01b      	beq.n	696e <ip_input+0x11e>
    6936:	f8d5 900c 	ldr.w	r9, [r5, #12]
    693a:	f1b9 0f00 	cmp.w	r9, #0
    693e:	d017      	beq.n	6970 <ip_input+0x120>
    6940:	f105 000c 	add.w	r0, r5, #12
    6944:	4641      	mov	r1, r8
    6946:	f7fb ff15 	bl	2774 <ip_addr_isbroadcast>
    694a:	b960      	cbnz	r0, 6966 <ip_input+0x116>
    694c:	f04f 4070 	mov.w	r0, #4026531840	; 0xf0000000
    6950:	f7fb fd17 	bl	2382 <ntohl>
    6954:	4682      	mov	sl, r0
    6956:	f04f 4060 	mov.w	r0, #3758096384	; 0xe0000000
    695a:	f7fb fd12 	bl	2382 <ntohl>
    695e:	ea0a 0909 	and.w	r9, sl, r9
    6962:	4581      	cmp	r9, r0
    6964:	d104      	bne.n	6970 <ip_input+0x120>
    6966:	4620      	mov	r0, r4
    6968:	f7fc f92b 	bl	2bc2 <pbuf_free>
    696c:	e014      	b.n	6998 <ip_input+0x148>
    696e:	4647      	mov	r7, r8
    6970:	b91f      	cbnz	r7, 697a <ip_input+0x12a>
    6972:	4620      	mov	r0, r4
    6974:	f7fc f925 	bl	2bc2 <pbuf_free>
    6978:	e060      	b.n	6a3c <ip_input+0x1ec>
    697a:	f643 70ff 	movw	r0, #16383	; 0x3fff
    697e:	f7fb fc0a 	bl	2196 <htons>
    6982:	88eb      	ldrh	r3, [r5, #6]
    6984:	4218      	tst	r0, r3
    6986:	d00b      	beq.n	69a0 <ip_input+0x150>
    6988:	4620      	mov	r0, r4
    698a:	f7fc f91a 	bl	2bc2 <pbuf_free>
    698e:	f8b6 3042 	ldrh.w	r3, [r6, #66]	; 0x42
    6992:	3301      	adds	r3, #1
    6994:	f8a6 3042 	strh.w	r3, [r6, #66]	; 0x42
    6998:	8ef3      	ldrh	r3, [r6, #54]	; 0x36
    699a:	3301      	adds	r3, #1
    699c:	86f3      	strh	r3, [r6, #54]	; 0x36
    699e:	e04d      	b.n	6a3c <ip_input+0x1ec>
    69a0:	f8df 90ac 	ldr.w	r9, [pc, #172]	; 6a50 <ip_input+0x200>
    69a4:	4f29      	ldr	r7, [pc, #164]	; (6a4c <ip_input+0x1fc>)
    69a6:	f8c9 8000 	str.w	r8, [r9]
    69aa:	603d      	str	r5, [r7, #0]
    69ac:	4620      	mov	r0, r4
    69ae:	4641      	mov	r1, r8
    69b0:	f7fb fc70 	bl	2294 <raw_input>
    69b4:	2800      	cmp	r0, #0
    69b6:	d13d      	bne.n	6a34 <ip_input+0x1e4>
    69b8:	8928      	ldrh	r0, [r5, #8]
    69ba:	f7fb fc2e 	bl	221a <ntohs>
    69be:	b2c0      	uxtb	r0, r0
    69c0:	2806      	cmp	r0, #6
    69c2:	d009      	beq.n	69d8 <ip_input+0x188>
    69c4:	2811      	cmp	r0, #17
    69c6:	d002      	beq.n	69ce <ip_input+0x17e>
    69c8:	2801      	cmp	r0, #1
    69ca:	d10f      	bne.n	69ec <ip_input+0x19c>
    69cc:	e009      	b.n	69e2 <ip_input+0x192>
    69ce:	4620      	mov	r0, r4
    69d0:	4641      	mov	r1, r8
    69d2:	f7ff fe43 	bl	665c <udp_input>
    69d6:	e02d      	b.n	6a34 <ip_input+0x1e4>
    69d8:	4620      	mov	r0, r4
    69da:	4641      	mov	r1, r8
    69dc:	f7fe fc74 	bl	52c8 <tcp_input>
    69e0:	e028      	b.n	6a34 <ip_input+0x1e4>
    69e2:	4620      	mov	r0, r4
    69e4:	4641      	mov	r1, r8
    69e6:	f7fc fe8f 	bl	3708 <icmp_input>
    69ea:	e023      	b.n	6a34 <ip_input+0x1e4>
    69ec:	f105 0010 	add.w	r0, r5, #16
    69f0:	4641      	mov	r1, r8
    69f2:	f7fb febf 	bl	2774 <ip_addr_isbroadcast>
    69f6:	b990      	cbnz	r0, 6a1e <ip_input+0x1ce>
    69f8:	f04f 4070 	mov.w	r0, #4026531840	; 0xf0000000
    69fc:	f7fb fcc1 	bl	2382 <ntohl>
    6a00:	4680      	mov	r8, r0
    6a02:	f04f 4060 	mov.w	r0, #3758096384	; 0xe0000000
    6a06:	f7fb fcbc 	bl	2382 <ntohl>
    6a0a:	692b      	ldr	r3, [r5, #16]
    6a0c:	ea08 0803 	and.w	r8, r8, r3
    6a10:	4580      	cmp	r8, r0
    6a12:	d004      	beq.n	6a1e <ip_input+0x1ce>
    6a14:	6065      	str	r5, [r4, #4]
    6a16:	4620      	mov	r0, r4
    6a18:	2102      	movs	r1, #2
    6a1a:	f7ff fdd9 	bl	65d0 <icmp_dest_unreach>
    6a1e:	4620      	mov	r0, r4
    6a20:	f7fc f8cf 	bl	2bc2 <pbuf_free>
    6a24:	f8b6 3040 	ldrh.w	r3, [r6, #64]	; 0x40
    6a28:	3301      	adds	r3, #1
    6a2a:	f8a6 3040 	strh.w	r3, [r6, #64]	; 0x40
    6a2e:	8ef3      	ldrh	r3, [r6, #54]	; 0x36
    6a30:	3301      	adds	r3, #1
    6a32:	86f3      	strh	r3, [r6, #54]	; 0x36
    6a34:	2300      	movs	r3, #0
    6a36:	f8c9 3000 	str.w	r3, [r9]
    6a3a:	603b      	str	r3, [r7, #0]
    6a3c:	2000      	movs	r0, #0
    6a3e:	e8bd 87f0 	ldmia.w	sp!, {r4, r5, r6, r7, r8, r9, sl, pc}
    6a42:	bf00      	nop
    6a44:	20003244 	.word	0x20003244
    6a48:	20003228 	.word	0x20003228
    6a4c:	20003338 	.word	0x20003338
    6a50:	20000204 	.word	0x20000204

00006a54 <ethernet_input>:
    6a54:	b538      	push	{r3, r4, r5, lr}
    6a56:	6843      	ldr	r3, [r0, #4]
    6a58:	4604      	mov	r4, r0
    6a5a:	89d8      	ldrh	r0, [r3, #14]
    6a5c:	460d      	mov	r5, r1
    6a5e:	f7fb fb9a 	bl	2196 <htons>
    6a62:	f5b0 6f00 	cmp.w	r0, #2048	; 0x800
    6a66:	d004      	beq.n	6a72 <ethernet_input+0x1e>
    6a68:	f640 0306 	movw	r3, #2054	; 0x806
    6a6c:	4298      	cmp	r0, r3
    6a6e:	d116      	bne.n	6a9e <ethernet_input+0x4a>
    6a70:	e00e      	b.n	6a90 <ethernet_input+0x3c>
    6a72:	4628      	mov	r0, r5
    6a74:	4621      	mov	r1, r4
    6a76:	f7fc fa3b 	bl	2ef0 <etharp_ip_input>
    6a7a:	4620      	mov	r0, r4
    6a7c:	f06f 010f 	mvn.w	r1, #15
    6a80:	f7fb f9c3 	bl	1e0a <pbuf_header>
    6a84:	b990      	cbnz	r0, 6aac <ethernet_input+0x58>
    6a86:	4620      	mov	r0, r4
    6a88:	4629      	mov	r1, r5
    6a8a:	f7ff fee1 	bl	6850 <ip_input>
    6a8e:	e010      	b.n	6ab2 <ethernet_input+0x5e>
    6a90:	4628      	mov	r0, r5
    6a92:	f105 012b 	add.w	r1, r5, #43	; 0x2b
    6a96:	4622      	mov	r2, r4
    6a98:	f7ff fbca 	bl	6230 <etharp_arp_input>
    6a9c:	e009      	b.n	6ab2 <ethernet_input+0x5e>
    6a9e:	4b06      	ldr	r3, [pc, #24]	; (6ab8 <ethernet_input+0x64>)
    6aa0:	8d1a      	ldrh	r2, [r3, #40]	; 0x28
    6aa2:	3201      	adds	r2, #1
    6aa4:	851a      	strh	r2, [r3, #40]	; 0x28
    6aa6:	8bda      	ldrh	r2, [r3, #30]
    6aa8:	3201      	adds	r2, #1
    6aaa:	83da      	strh	r2, [r3, #30]
    6aac:	4620      	mov	r0, r4
    6aae:	f7fc f888 	bl	2bc2 <pbuf_free>
    6ab2:	2000      	movs	r0, #0
    6ab4:	bd38      	pop	{r3, r4, r5, pc}
    6ab6:	bf00      	nop
    6ab8:	20003244 	.word	0x20003244

00006abc <stellarisif_output>:
    6abc:	b5f8      	push	{r3, r4, r5, r6, r7, lr}
    6abe:	460d      	mov	r5, r1
    6ac0:	69c4      	ldr	r4, [r0, #28]
    6ac2:	f7fb fe76 	bl	27b2 <sys_arch_protect>
    6ac6:	4606      	mov	r6, r0
    6ac8:	4628      	mov	r0, r5
    6aca:	f7fb fe91 	bl	27f0 <pbuf_ref>
    6ace:	6d62      	ldr	r2, [r4, #84]	; 0x54
    6ad0:	6da3      	ldr	r3, [r4, #88]	; 0x58
    6ad2:	429a      	cmp	r2, r3
    6ad4:	d108      	bne.n	6ae8 <stellarisif_output+0x2c>
    6ad6:	4b18      	ldr	r3, [pc, #96]	; (6b38 <stellarisif_output+0x7c>)
    6ad8:	681b      	ldr	r3, [r3, #0]
    6ada:	f013 0f01 	tst.w	r3, #1
    6ade:	d103      	bne.n	6ae8 <stellarisif_output+0x2c>
    6ae0:	4628      	mov	r0, r5
    6ae2:	f7fc f897 	bl	2c14 <stellarisif_transmit.clone.4>
    6ae6:	e020      	b.n	6b2a <stellarisif_output+0x6e>
    6ae8:	f7fb fe63 	bl	27b2 <sys_arch_protect>
    6aec:	6d62      	ldr	r2, [r4, #84]	; 0x54
    6aee:	2114      	movs	r1, #20
    6af0:	1c53      	adds	r3, r2, #1
    6af2:	fbb3 f7f1 	udiv	r7, r3, r1
    6af6:	fb01 3317 	mls	r3, r1, r7, r3
    6afa:	6da1      	ldr	r1, [r4, #88]	; 0x58
    6afc:	428b      	cmp	r3, r1
    6afe:	d005      	beq.n	6b0c <stellarisif_output+0x50>
    6b00:	eb04 0282 	add.w	r2, r4, r2, lsl #2
    6b04:	6563      	str	r3, [r4, #84]	; 0x54
    6b06:	6055      	str	r5, [r2, #4]
    6b08:	2401      	movs	r4, #1
    6b0a:	e003      	b.n	6b14 <stellarisif_output+0x58>
    6b0c:	6de3      	ldr	r3, [r4, #92]	; 0x5c
    6b0e:	3301      	adds	r3, #1
    6b10:	65e3      	str	r3, [r4, #92]	; 0x5c
    6b12:	2400      	movs	r4, #0
    6b14:	f7fb fe4f 	bl	27b6 <sys_arch_unprotect>
    6b18:	b93c      	cbnz	r4, 6b2a <stellarisif_output+0x6e>
    6b1a:	4628      	mov	r0, r5
    6b1c:	f7fc f851 	bl	2bc2 <pbuf_free>
    6b20:	4630      	mov	r0, r6
    6b22:	f7fb fe48 	bl	27b6 <sys_arch_unprotect>
    6b26:	20ff      	movs	r0, #255	; 0xff
    6b28:	e003      	b.n	6b32 <stellarisif_output+0x76>
    6b2a:	4630      	mov	r0, r6
    6b2c:	f7fb fe43 	bl	27b6 <sys_arch_unprotect>
    6b30:	2000      	movs	r0, #0
    6b32:	b240      	sxtb	r0, r0
    6b34:	bdf8      	pop	{r3, r4, r5, r6, r7, pc}
    6b36:	bf00      	nop
    6b38:	40048038 	.word	0x40048038

00006b3c <stellarisif_interrupt>:
    6b3c:	b570      	push	{r4, r5, r6, lr}
    6b3e:	4606      	mov	r6, r0
    6b40:	69c5      	ldr	r5, [r0, #28]
    6b42:	e019      	b.n	6b78 <stellarisif_interrupt+0x3c>
    6b44:	4620      	mov	r0, r4
    6b46:	4631      	mov	r1, r6
    6b48:	f7ff ff84 	bl	6a54 <ethernet_input>
    6b4c:	b148      	cbz	r0, 6b62 <stellarisif_interrupt+0x26>
    6b4e:	4620      	mov	r0, r4
    6b50:	f7fc f837 	bl	2bc2 <pbuf_free>
    6b54:	4b12      	ldr	r3, [pc, #72]	; (6ba0 <stellarisif_interrupt+0x64>)
    6b56:	899a      	ldrh	r2, [r3, #12]
    6b58:	3201      	adds	r2, #1
    6b5a:	819a      	strh	r2, [r3, #12]
    6b5c:	88da      	ldrh	r2, [r3, #6]
    6b5e:	3201      	adds	r2, #1
    6b60:	80da      	strh	r2, [r3, #6]
    6b62:	4b10      	ldr	r3, [pc, #64]	; (6ba4 <stellarisif_interrupt+0x68>)
    6b64:	681b      	ldr	r3, [r3, #0]
    6b66:	f013 0f01 	tst.w	r3, #1
    6b6a:	d105      	bne.n	6b78 <stellarisif_interrupt+0x3c>
    6b6c:	1d28      	adds	r0, r5, #4
    6b6e:	f7fb fe28 	bl	27c2 <dequeue_packet>
    6b72:	b108      	cbz	r0, 6b78 <stellarisif_interrupt+0x3c>
    6b74:	f7fc f84e 	bl	2c14 <stellarisif_transmit.clone.4>
    6b78:	f7fc fb04 	bl	3184 <stellarisif_receive.clone.5>
    6b7c:	4604      	mov	r4, r0
    6b7e:	2800      	cmp	r0, #0
    6b80:	d1e0      	bne.n	6b44 <stellarisif_interrupt+0x8>
    6b82:	4b08      	ldr	r3, [pc, #32]	; (6ba4 <stellarisif_interrupt+0x68>)
    6b84:	681b      	ldr	r3, [r3, #0]
    6b86:	f013 0f01 	tst.w	r3, #1
    6b8a:	d107      	bne.n	6b9c <stellarisif_interrupt+0x60>
    6b8c:	1d28      	adds	r0, r5, #4
    6b8e:	f7fb fe18 	bl	27c2 <dequeue_packet>
    6b92:	b118      	cbz	r0, 6b9c <stellarisif_interrupt+0x60>
    6b94:	e8bd 4070 	ldmia.w	sp!, {r4, r5, r6, lr}
    6b98:	f7fc b83c 	b.w	2c14 <stellarisif_transmit.clone.4>
    6b9c:	bd70      	pop	{r4, r5, r6, pc}
    6b9e:	bf00      	nop
    6ba0:	20003244 	.word	0x20003244
    6ba4:	40048038 	.word	0x40048038

00006ba8 <lwIPInit>:
    6ba8:	e92d 41f0 	stmdb	sp!, {r4, r5, r6, r7, r8, lr}
    6bac:	4604      	mov	r4, r0
    6bae:	b088      	sub	sp, #32
    6bb0:	4822      	ldr	r0, [pc, #136]	; (6c3c <lwIPInit+0x94>)
    6bb2:	461f      	mov	r7, r3
    6bb4:	460d      	mov	r5, r1
    6bb6:	4616      	mov	r6, r2
    6bb8:	f8dd 8038 	ldr.w	r8, [sp, #56]	; 0x38
    6bbc:	f000 fce2 	bl	7584 <SysCtlPeripheralEnable>
    6bc0:	4621      	mov	r1, r4
    6bc2:	481f      	ldr	r0, [pc, #124]	; (6c40 <lwIPInit+0x98>)
    6bc4:	f000 fab6 	bl	7134 <EthernetMACAddrSet>
    6bc8:	4b1e      	ldr	r3, [pc, #120]	; (6c44 <lwIPInit+0x9c>)
    6bca:	4c1f      	ldr	r4, [pc, #124]	; (6c48 <lwIPInit+0xa0>)
    6bcc:	601d      	str	r5, [r3, #0]
    6bce:	4b1f      	ldr	r3, [pc, #124]	; (6c4c <lwIPInit+0xa4>)
    6bd0:	f8c4 8000 	str.w	r8, [r4]
    6bd4:	601e      	str	r6, [r3, #0]
    6bd6:	4b1e      	ldr	r3, [pc, #120]	; (6c50 <lwIPInit+0xa8>)
    6bd8:	601f      	str	r7, [r3, #0]
    6bda:	f7fb f8f1 	bl	1dc0 <lwip_init>
    6bde:	f1b8 0f00 	cmp.w	r8, #0
    6be2:	d106      	bne.n	6bf2 <lwIPInit+0x4a>
    6be4:	ba2d      	rev	r5, r5
    6be6:	ba36      	rev	r6, r6
    6be8:	ba3f      	rev	r7, r7
    6bea:	9507      	str	r5, [sp, #28]
    6bec:	9606      	str	r6, [sp, #24]
    6bee:	9705      	str	r7, [sp, #20]
    6bf0:	e003      	b.n	6bfa <lwIPInit+0x52>
    6bf2:	2300      	movs	r3, #0
    6bf4:	9307      	str	r3, [sp, #28]
    6bf6:	9306      	str	r3, [sp, #24]
    6bf8:	9305      	str	r3, [sp, #20]
    6bfa:	2300      	movs	r3, #0
    6bfc:	9300      	str	r3, [sp, #0]
    6bfe:	4b15      	ldr	r3, [pc, #84]	; (6c54 <lwIPInit+0xac>)
    6c00:	a907      	add	r1, sp, #28
    6c02:	9301      	str	r3, [sp, #4]
    6c04:	4b14      	ldr	r3, [pc, #80]	; (6c58 <lwIPInit+0xb0>)
    6c06:	aa06      	add	r2, sp, #24
    6c08:	9302      	str	r3, [sp, #8]
    6c0a:	4814      	ldr	r0, [pc, #80]	; (6c5c <lwIPInit+0xb4>)
    6c0c:	ab05      	add	r3, sp, #20
    6c0e:	f7fd fb61 	bl	42d4 <netif_add>
    6c12:	4812      	ldr	r0, [pc, #72]	; (6c5c <lwIPInit+0xb4>)
    6c14:	f7fb f8e4 	bl	1de0 <netif_set_default>
    6c18:	6823      	ldr	r3, [r4, #0]
    6c1a:	2b01      	cmp	r3, #1
    6c1c:	d102      	bne.n	6c24 <lwIPInit+0x7c>
    6c1e:	480f      	ldr	r0, [pc, #60]	; (6c5c <lwIPInit+0xb4>)
    6c20:	f7ff f970 	bl	5f04 <dhcp_start>
    6c24:	6823      	ldr	r3, [r4, #0]
    6c26:	2b02      	cmp	r3, #2
    6c28:	d102      	bne.n	6c30 <lwIPInit+0x88>
    6c2a:	480c      	ldr	r0, [pc, #48]	; (6c5c <lwIPInit+0xb4>)
    6c2c:	f7fb fbac 	bl	2388 <autoip_start>
    6c30:	480a      	ldr	r0, [pc, #40]	; (6c5c <lwIPInit+0xb4>)
    6c32:	f7fc fbef 	bl	3414 <netif_set_up>
    6c36:	b008      	add	sp, #32
    6c38:	e8bd 81f0 	ldmia.w	sp!, {r4, r5, r6, r7, r8, pc}
    6c3c:	20105000 	.word	0x20105000
    6c40:	40048000 	.word	0x40048000
    6c44:	20003330 	.word	0x20003330
    6c48:	200050c0 	.word	0x200050c0
    6c4c:	200034b4 	.word	0x200034b4
    6c50:	20003444 	.word	0x20003444
    6c54:	00001b5d 	.word	0x00001b5d
    6c58:	00006851 	.word	0x00006851
    6c5c:	2000333c 	.word	0x2000333c

00006c60 <lwIPTimer>:
    6c60:	4b04      	ldr	r3, [pc, #16]	; (6c74 <lwIPTimer+0x14>)
    6c62:	681a      	ldr	r2, [r3, #0]
    6c64:	1882      	adds	r2, r0, r2
    6c66:	601a      	str	r2, [r3, #0]
    6c68:	4b03      	ldr	r3, [pc, #12]	; (6c78 <lwIPTimer+0x18>)
    6c6a:	681a      	ldr	r2, [r3, #0]
    6c6c:	f042 022a 	orr.w	r2, r2, #42	; 0x2a
    6c70:	601a      	str	r2, [r3, #0]
    6c72:	4770      	bx	lr
    6c74:	200001c4 	.word	0x200001c4
    6c78:	e000ef00 	.word	0xe000ef00

00006c7c <EthernetIntHandler>:
    6c7c:	b510      	push	{r4, lr}
    6c7e:	2100      	movs	r1, #0
    6c80:	4830      	ldr	r0, [pc, #192]	; (6d44 <EthernetIntHandler+0xc8>)
    6c82:	f000 faa0 	bl	71c6 <EthernetIntStatus>
    6c86:	4604      	mov	r4, r0
    6c88:	4621      	mov	r1, r4
    6c8a:	482e      	ldr	r0, [pc, #184]	; (6d44 <EthernetIntHandler+0xc8>)
    6c8c:	f000 faa1 	bl	71d2 <EthernetIntClear>
    6c90:	b114      	cbz	r4, 6c98 <EthernetIntHandler+0x1c>
    6c92:	482d      	ldr	r0, [pc, #180]	; (6d48 <EthernetIntHandler+0xcc>)
    6c94:	f7ff ff52 	bl	6b3c <stellarisif_interrupt>
    6c98:	2101      	movs	r1, #1
    6c9a:	482a      	ldr	r0, [pc, #168]	; (6d44 <EthernetIntHandler+0xc8>)
    6c9c:	f000 fa9b 	bl	71d6 <EthernetPHYRead>
    6ca0:	f010 0f04 	tst.w	r0, #4
    6ca4:	4c29      	ldr	r4, [pc, #164]	; (6d4c <EthernetIntHandler+0xd0>)
    6ca6:	4b2a      	ldr	r3, [pc, #168]	; (6d50 <EthernetIntHandler+0xd4>)
    6ca8:	d10b      	bne.n	6cc2 <EthernetIntHandler+0x46>
    6caa:	6822      	ldr	r2, [r4, #0]
    6cac:	6819      	ldr	r1, [r3, #0]
    6cae:	1a51      	subs	r1, r2, r1
    6cb0:	f5b1 6ffa 	cmp.w	r1, #2000	; 0x7d0
    6cb4:	d307      	bcc.n	6cc6 <EthernetIntHandler+0x4a>
    6cb6:	4927      	ldr	r1, [pc, #156]	; (6d54 <EthernetIntHandler+0xd8>)
    6cb8:	6808      	ldr	r0, [r1, #0]
    6cba:	f080 0001 	eor.w	r0, r0, #1
    6cbe:	6008      	str	r0, [r1, #0]
    6cc0:	e000      	b.n	6cc4 <EthernetIntHandler+0x48>
    6cc2:	6822      	ldr	r2, [r4, #0]
    6cc4:	601a      	str	r2, [r3, #0]
    6cc6:	4b24      	ldr	r3, [pc, #144]	; (6d58 <EthernetIntHandler+0xdc>)
    6cc8:	6822      	ldr	r2, [r4, #0]
    6cca:	6819      	ldr	r1, [r3, #0]
    6ccc:	1a51      	subs	r1, r2, r1
    6cce:	2963      	cmp	r1, #99	; 0x63
    6cd0:	d902      	bls.n	6cd8 <EthernetIntHandler+0x5c>
    6cd2:	601a      	str	r2, [r3, #0]
    6cd4:	f7f9 fb44 	bl	360 <lwIPHostTimerHandler>
    6cd8:	4b20      	ldr	r3, [pc, #128]	; (6d5c <EthernetIntHandler+0xe0>)
    6cda:	6822      	ldr	r2, [r4, #0]
    6cdc:	6818      	ldr	r0, [r3, #0]
    6cde:	f241 3187 	movw	r1, #4999	; 0x1387
    6ce2:	1a10      	subs	r0, r2, r0
    6ce4:	4288      	cmp	r0, r1
    6ce6:	d902      	bls.n	6cee <EthernetIntHandler+0x72>
    6ce8:	601a      	str	r2, [r3, #0]
    6cea:	f7fc f889 	bl	2e00 <etharp_tmr>
    6cee:	4b1c      	ldr	r3, [pc, #112]	; (6d60 <EthernetIntHandler+0xe4>)
    6cf0:	6822      	ldr	r2, [r4, #0]
    6cf2:	6819      	ldr	r1, [r3, #0]
    6cf4:	1a51      	subs	r1, r2, r1
    6cf6:	29f9      	cmp	r1, #249	; 0xf9
    6cf8:	d902      	bls.n	6d00 <EthernetIntHandler+0x84>
    6cfa:	601a      	str	r2, [r3, #0]
    6cfc:	f7fe fad2 	bl	52a4 <tcp_tmr>
    6d00:	4b18      	ldr	r3, [pc, #96]	; (6d64 <EthernetIntHandler+0xe8>)
    6d02:	6822      	ldr	r2, [r4, #0]
    6d04:	6819      	ldr	r1, [r3, #0]
    6d06:	1a51      	subs	r1, r2, r1
    6d08:	2963      	cmp	r1, #99	; 0x63
    6d0a:	d902      	bls.n	6d12 <EthernetIntHandler+0x96>
    6d0c:	601a      	str	r2, [r3, #0]
    6d0e:	f7fd fa3f 	bl	4190 <autoip_tmr>
    6d12:	4b15      	ldr	r3, [pc, #84]	; (6d68 <EthernetIntHandler+0xec>)
    6d14:	6822      	ldr	r2, [r4, #0]
    6d16:	6818      	ldr	r0, [r3, #0]
    6d18:	f64e 215f 	movw	r1, #59999	; 0xea5f
    6d1c:	1a10      	subs	r0, r2, r0
    6d1e:	4288      	cmp	r0, r1
    6d20:	d902      	bls.n	6d28 <EthernetIntHandler+0xac>
    6d22:	601a      	str	r2, [r3, #0]
    6d24:	f7ff fa54 	bl	61d0 <dhcp_coarse_tmr>
    6d28:	4b10      	ldr	r3, [pc, #64]	; (6d6c <EthernetIntHandler+0xf0>)
    6d2a:	6822      	ldr	r2, [r4, #0]
    6d2c:	6819      	ldr	r1, [r3, #0]
    6d2e:	1a51      	subs	r1, r2, r1
    6d30:	f5b1 7ffa 	cmp.w	r1, #500	; 0x1f4
    6d34:	d304      	bcc.n	6d40 <EthernetIntHandler+0xc4>
    6d36:	601a      	str	r2, [r3, #0]
    6d38:	e8bd 4010 	ldmia.w	sp!, {r4, lr}
    6d3c:	f7ff b9f8 	b.w	6130 <dhcp_fine_tmr>
    6d40:	bd10      	pop	{r4, pc}
    6d42:	bf00      	nop
    6d44:	40048000 	.word	0x40048000
    6d48:	2000333c 	.word	0x2000333c
    6d4c:	200001c4 	.word	0x200001c4
    6d50:	200034c0 	.word	0x200034c0
    6d54:	40048044 	.word	0x40048044
    6d58:	20003234 	.word	0x20003234
    6d5c:	200001c0 	.word	0x200001c0
    6d60:	200001fc 	.word	0x200001fc
    6d64:	200050bc 	.word	0x200050bc
    6d68:	200001f4 	.word	0x200001f4
    6d6c:	200001e0 	.word	0x200001e0

00006d70 <lwIPLocalIPAddrGet>:
    6d70:	4b01      	ldr	r3, [pc, #4]	; (6d78 <lwIPLocalIPAddrGet+0x8>)
    6d72:	6858      	ldr	r0, [r3, #4]
    6d74:	4770      	bx	lr
    6d76:	bf00      	nop
    6d78:	2000333c 	.word	0x2000333c

00006d7c <lwIPLocalNetMaskGet>:
    6d7c:	4b01      	ldr	r3, [pc, #4]	; (6d84 <lwIPLocalNetMaskGet+0x8>)
    6d7e:	6898      	ldr	r0, [r3, #8]
    6d80:	4770      	bx	lr
    6d82:	bf00      	nop
    6d84:	2000333c 	.word	0x2000333c

00006d88 <lwIPLocalGWAddrGet>:
    6d88:	4b01      	ldr	r3, [pc, #4]	; (6d90 <lwIPLocalGWAddrGet+0x8>)
    6d8a:	68d8      	ldr	r0, [r3, #12]
    6d8c:	4770      	bx	lr
    6d8e:	bf00      	nop
    6d90:	2000333c 	.word	0x2000333c

00006d94 <ustrncpy>:
    6d94:	b510      	push	{r4, lr}
    6d96:	2300      	movs	r3, #0
    6d98:	e002      	b.n	6da0 <ustrncpy+0xc>
    6d9a:	54c4      	strb	r4, [r0, r3]
    6d9c:	3a01      	subs	r2, #1
    6d9e:	3301      	adds	r3, #1
    6da0:	b14a      	cbz	r2, 6db6 <ustrncpy+0x22>
    6da2:	5ccc      	ldrb	r4, [r1, r3]
    6da4:	2c00      	cmp	r4, #0
    6da6:	d1f8      	bne.n	6d9a <ustrncpy+0x6>
    6da8:	e003      	b.n	6db2 <ustrncpy+0x1e>
    6daa:	2100      	movs	r1, #0
    6dac:	54c1      	strb	r1, [r0, r3]
    6dae:	3a01      	subs	r2, #1
    6db0:	3301      	adds	r3, #1
    6db2:	2a00      	cmp	r2, #0
    6db4:	d1f9      	bne.n	6daa <ustrncpy+0x16>
    6db6:	bd10      	pop	{r4, pc}

00006db8 <uvsnprintf>:
    6db8:	e92d 4ff8 	stmdb	sp!, {r3, r4, r5, r6, r7, r8, r9, sl, fp, lr}
    6dbc:	4604      	mov	r4, r0
    6dbe:	4615      	mov	r5, r2
    6dc0:	4698      	mov	r8, r3
    6dc2:	460e      	mov	r6, r1
    6dc4:	b101      	cbz	r1, 6dc8 <uvsnprintf+0x10>
    6dc6:	1e4e      	subs	r6, r1, #1
    6dc8:	2700      	movs	r7, #0
    6dca:	e10c      	b.n	6fe6 <uvsnprintf+0x22e>
    6dcc:	f109 0901 	add.w	r9, r9, #1
    6dd0:	469a      	mov	sl, r3
    6dd2:	f813 2b01 	ldrb.w	r2, [r3], #1
    6dd6:	2a25      	cmp	r2, #37	; 0x25
    6dd8:	d001      	beq.n	6dde <uvsnprintf+0x26>
    6dda:	2a00      	cmp	r2, #0
    6ddc:	d1f6      	bne.n	6dcc <uvsnprintf+0x14>
    6dde:	45b1      	cmp	r9, r6
    6de0:	d907      	bls.n	6df2 <uvsnprintf+0x3a>
    6de2:	4620      	mov	r0, r4
    6de4:	4632      	mov	r2, r6
    6de6:	4629      	mov	r1, r5
    6de8:	19a4      	adds	r4, r4, r6
    6dea:	f7ff ffd3 	bl	6d94 <ustrncpy>
    6dee:	2600      	movs	r6, #0
    6df0:	e007      	b.n	6e02 <uvsnprintf+0x4a>
    6df2:	4620      	mov	r0, r4
    6df4:	4629      	mov	r1, r5
    6df6:	464a      	mov	r2, r9
    6df8:	f7ff ffcc 	bl	6d94 <ustrncpy>
    6dfc:	444c      	add	r4, r9
    6dfe:	ebc9 0606 	rsb	r6, r9, r6
    6e02:	f89a 3000 	ldrb.w	r3, [sl]
    6e06:	444f      	add	r7, r9
    6e08:	2b25      	cmp	r3, #37	; 0x25
    6e0a:	f040 80eb 	bne.w	6fe4 <uvsnprintf+0x22c>
    6e0e:	4632      	mov	r2, r6
    6e10:	4651      	mov	r1, sl
    6e12:	f04f 0c20 	mov.w	ip, #32
    6e16:	f04f 0900 	mov.w	r9, #0
    6e1a:	f811 3f01 	ldrb.w	r3, [r1, #1]!
    6e1e:	1c4d      	adds	r5, r1, #1
    6e20:	2b64      	cmp	r3, #100	; 0x64
    6e22:	d02e      	beq.n	6e82 <uvsnprintf+0xca>
    6e24:	d80d      	bhi.n	6e42 <uvsnprintf+0x8a>
    6e26:	2b39      	cmp	r3, #57	; 0x39
    6e28:	d805      	bhi.n	6e36 <uvsnprintf+0x7e>
    6e2a:	2b30      	cmp	r3, #48	; 0x30
    6e2c:	d214      	bcs.n	6e58 <uvsnprintf+0xa0>
    6e2e:	2b25      	cmp	r3, #37	; 0x25
    6e30:	f040 80c5 	bne.w	6fbe <uvsnprintf+0x206>
    6e34:	e0bc      	b.n	6fb0 <uvsnprintf+0x1f8>
    6e36:	2b58      	cmp	r3, #88	; 0x58
    6e38:	d068      	beq.n	6f0c <uvsnprintf+0x154>
    6e3a:	2b63      	cmp	r3, #99	; 0x63
    6e3c:	f040 80bf 	bne.w	6fbe <uvsnprintf+0x206>
    6e40:	e014      	b.n	6e6c <uvsnprintf+0xb4>
    6e42:	2b73      	cmp	r3, #115	; 0x73
    6e44:	d026      	beq.n	6e94 <uvsnprintf+0xdc>
    6e46:	d801      	bhi.n	6e4c <uvsnprintf+0x94>
    6e48:	2b70      	cmp	r3, #112	; 0x70
    6e4a:	e002      	b.n	6e52 <uvsnprintf+0x9a>
    6e4c:	2b75      	cmp	r3, #117	; 0x75
    6e4e:	d058      	beq.n	6f02 <uvsnprintf+0x14a>
    6e50:	2b78      	cmp	r3, #120	; 0x78
    6e52:	f040 80b4 	bne.w	6fbe <uvsnprintf+0x206>
    6e56:	e059      	b.n	6f0c <uvsnprintf+0x154>
    6e58:	d103      	bne.n	6e62 <uvsnprintf+0xaa>
    6e5a:	f1b9 0f00 	cmp.w	r9, #0
    6e5e:	bf08      	it	eq
    6e60:	469c      	moveq	ip, r3
    6e62:	3b30      	subs	r3, #48	; 0x30
    6e64:	200a      	movs	r0, #10
    6e66:	fb00 3909 	mla	r9, r0, r9, r3
    6e6a:	e7d6      	b.n	6e1a <uvsnprintf+0x62>
    6e6c:	f108 0304 	add.w	r3, r8, #4
    6e70:	f8d8 1000 	ldr.w	r1, [r8]
    6e74:	b116      	cbz	r6, 6e7c <uvsnprintf+0xc4>
    6e76:	f804 1b01 	strb.w	r1, [r4], #1
    6e7a:	1e72      	subs	r2, r6, #1
    6e7c:	3701      	adds	r7, #1
    6e7e:	4698      	mov	r8, r3
    6e80:	e09b      	b.n	6fba <uvsnprintf+0x202>
    6e82:	f8d8 0000 	ldr.w	r0, [r8]
    6e86:	f108 0b04 	add.w	fp, r8, #4
    6e8a:	2800      	cmp	r0, #0
    6e8c:	da45      	bge.n	6f1a <uvsnprintf+0x162>
    6e8e:	4240      	negs	r0, r0
    6e90:	2201      	movs	r2, #1
    6e92:	e043      	b.n	6f1c <uvsnprintf+0x164>
    6e94:	f108 0a04 	add.w	sl, r8, #4
    6e98:	f8d8 1000 	ldr.w	r1, [r8]
    6e9c:	f04f 0800 	mov.w	r8, #0
    6ea0:	e001      	b.n	6ea6 <uvsnprintf+0xee>
    6ea2:	f108 0801 	add.w	r8, r8, #1
    6ea6:	f811 3008 	ldrb.w	r3, [r1, r8]
    6eaa:	2b00      	cmp	r3, #0
    6eac:	d1f9      	bne.n	6ea2 <uvsnprintf+0xea>
    6eae:	45c1      	cmp	r9, r8
    6eb0:	bf84      	itt	hi
    6eb2:	444f      	addhi	r7, r9
    6eb4:	ebc8 0707 	rsbhi	r7, r8, r7
    6eb8:	45b0      	cmp	r8, r6
    6eba:	d906      	bls.n	6eca <uvsnprintf+0x112>
    6ebc:	4620      	mov	r0, r4
    6ebe:	4632      	mov	r2, r6
    6ec0:	19a4      	adds	r4, r4, r6
    6ec2:	f7ff ff67 	bl	6d94 <ustrncpy>
    6ec6:	2600      	movs	r6, #0
    6ec8:	e018      	b.n	6efc <uvsnprintf+0x144>
    6eca:	4620      	mov	r0, r4
    6ecc:	4642      	mov	r2, r8
    6ece:	f7ff ff61 	bl	6d94 <ustrncpy>
    6ed2:	45c1      	cmp	r9, r8
    6ed4:	4444      	add	r4, r8
    6ed6:	ebc8 0606 	rsb	r6, r8, r6
    6eda:	d90f      	bls.n	6efc <uvsnprintf+0x144>
    6edc:	ebc8 0909 	rsb	r9, r8, r9
    6ee0:	45b1      	cmp	r9, r6
    6ee2:	bf28      	it	cs
    6ee4:	46b1      	movcs	r9, r6
    6ee6:	f1c9 0600 	rsb	r6, r9, #0
    6eea:	464b      	mov	r3, r9
    6eec:	4622      	mov	r2, r4
    6eee:	e002      	b.n	6ef6 <uvsnprintf+0x13e>
    6ef0:	2120      	movs	r1, #32
    6ef2:	f802 1b01 	strb.w	r1, [r2], #1
    6ef6:	3b01      	subs	r3, #1
    6ef8:	d2fa      	bcs.n	6ef0 <uvsnprintf+0x138>
    6efa:	444c      	add	r4, r9
    6efc:	4447      	add	r7, r8
    6efe:	46d0      	mov	r8, sl
    6f00:	e071      	b.n	6fe6 <uvsnprintf+0x22e>
    6f02:	f108 0b04 	add.w	fp, r8, #4
    6f06:	f8d8 0000 	ldr.w	r0, [r8]
    6f0a:	e006      	b.n	6f1a <uvsnprintf+0x162>
    6f0c:	f108 0b04 	add.w	fp, r8, #4
    6f10:	f8d8 0000 	ldr.w	r0, [r8]
    6f14:	2200      	movs	r2, #0
    6f16:	2310      	movs	r3, #16
    6f18:	e001      	b.n	6f1e <uvsnprintf+0x166>
    6f1a:	2200      	movs	r2, #0
    6f1c:	230a      	movs	r3, #10
    6f1e:	2101      	movs	r1, #1
    6f20:	e002      	b.n	6f28 <uvsnprintf+0x170>
    6f22:	f109 39ff 	add.w	r9, r9, #4294967295
    6f26:	4641      	mov	r1, r8
    6f28:	fb03 f801 	mul.w	r8, r3, r1
    6f2c:	4580      	cmp	r8, r0
    6f2e:	d803      	bhi.n	6f38 <uvsnprintf+0x180>
    6f30:	fbb8 faf3 	udiv	sl, r8, r3
    6f34:	458a      	cmp	sl, r1
    6f36:	d0f4      	beq.n	6f22 <uvsnprintf+0x16a>
    6f38:	b16a      	cbz	r2, 6f56 <uvsnprintf+0x19e>
    6f3a:	f109 39ff 	add.w	r9, r9, #4294967295
    6f3e:	b14e      	cbz	r6, 6f54 <uvsnprintf+0x19c>
    6f40:	f1bc 0f30 	cmp.w	ip, #48	; 0x30
    6f44:	d106      	bne.n	6f54 <uvsnprintf+0x19c>
    6f46:	222d      	movs	r2, #45	; 0x2d
    6f48:	f804 2b01 	strb.w	r2, [r4], #1
    6f4c:	3e01      	subs	r6, #1
    6f4e:	3701      	adds	r7, #1
    6f50:	3a2d      	subs	r2, #45	; 0x2d
    6f52:	e000      	b.n	6f56 <uvsnprintf+0x19e>
    6f54:	2201      	movs	r2, #1
    6f56:	f1a9 0a02 	sub.w	sl, r9, #2
    6f5a:	f64f 78fd 	movw	r8, #65533	; 0xfffd
    6f5e:	45c2      	cmp	sl, r8
    6f60:	d80a      	bhi.n	6f78 <uvsnprintf+0x1c0>
    6f62:	f109 39ff 	add.w	r9, r9, #4294967295
    6f66:	b116      	cbz	r6, 6f6e <uvsnprintf+0x1b6>
    6f68:	f804 cb01 	strb.w	ip, [r4], #1
    6f6c:	3e01      	subs	r6, #1
    6f6e:	f1b9 0901 	subs.w	r9, r9, #1
    6f72:	d1f8      	bne.n	6f66 <uvsnprintf+0x1ae>
    6f74:	3701      	adds	r7, #1
    6f76:	4457      	add	r7, sl
    6f78:	b1b2      	cbz	r2, 6fa8 <uvsnprintf+0x1f0>
    6f7a:	b1ae      	cbz	r6, 6fa8 <uvsnprintf+0x1f0>
    6f7c:	222d      	movs	r2, #45	; 0x2d
    6f7e:	f804 2b01 	strb.w	r2, [r4], #1
    6f82:	3e01      	subs	r6, #1
    6f84:	3701      	adds	r7, #1
    6f86:	e00f      	b.n	6fa8 <uvsnprintf+0x1f0>
    6f88:	b15e      	cbz	r6, 6fa2 <uvsnprintf+0x1ea>
    6f8a:	fbb0 f2f1 	udiv	r2, r0, r1
    6f8e:	fbb2 fcf3 	udiv	ip, r2, r3
    6f92:	fb03 2c1c 	mls	ip, r3, ip, r2
    6f96:	4a19      	ldr	r2, [pc, #100]	; (6ffc <uvsnprintf+0x244>)
    6f98:	3e01      	subs	r6, #1
    6f9a:	f81c 2002 	ldrb.w	r2, [ip, r2]
    6f9e:	f804 2b01 	strb.w	r2, [r4], #1
    6fa2:	3701      	adds	r7, #1
    6fa4:	fbb1 f1f3 	udiv	r1, r1, r3
    6fa8:	2900      	cmp	r1, #0
    6faa:	d1ed      	bne.n	6f88 <uvsnprintf+0x1d0>
    6fac:	46d8      	mov	r8, fp
    6fae:	e01a      	b.n	6fe6 <uvsnprintf+0x22e>
    6fb0:	b116      	cbz	r6, 6fb8 <uvsnprintf+0x200>
    6fb2:	f804 3b01 	strb.w	r3, [r4], #1
    6fb6:	1e72      	subs	r2, r6, #1
    6fb8:	3701      	adds	r7, #1
    6fba:	4616      	mov	r6, r2
    6fbc:	e013      	b.n	6fe6 <uvsnprintf+0x22e>
    6fbe:	2e04      	cmp	r6, #4
    6fc0:	d907      	bls.n	6fd2 <uvsnprintf+0x21a>
    6fc2:	4620      	mov	r0, r4
    6fc4:	490e      	ldr	r1, [pc, #56]	; (7000 <uvsnprintf+0x248>)
    6fc6:	2205      	movs	r2, #5
    6fc8:	f7ff fee4 	bl	6d94 <ustrncpy>
    6fcc:	3405      	adds	r4, #5
    6fce:	3e05      	subs	r6, #5
    6fd0:	e006      	b.n	6fe0 <uvsnprintf+0x228>
    6fd2:	4620      	mov	r0, r4
    6fd4:	4632      	mov	r2, r6
    6fd6:	490a      	ldr	r1, [pc, #40]	; (7000 <uvsnprintf+0x248>)
    6fd8:	f7ff fedc 	bl	6d94 <ustrncpy>
    6fdc:	19a4      	adds	r4, r4, r6
    6fde:	2600      	movs	r6, #0
    6fe0:	3705      	adds	r7, #5
    6fe2:	e000      	b.n	6fe6 <uvsnprintf+0x22e>
    6fe4:	4655      	mov	r5, sl
    6fe6:	782b      	ldrb	r3, [r5, #0]
    6fe8:	b11b      	cbz	r3, 6ff2 <uvsnprintf+0x23a>
    6fea:	462b      	mov	r3, r5
    6fec:	f04f 0900 	mov.w	r9, #0
    6ff0:	e6ee      	b.n	6dd0 <uvsnprintf+0x18>
    6ff2:	7023      	strb	r3, [r4, #0]
    6ff4:	4638      	mov	r0, r7
    6ff6:	e8bd 8ff8 	ldmia.w	sp!, {r3, r4, r5, r6, r7, r8, r9, sl, fp, pc}
    6ffa:	bf00      	nop
    6ffc:	0000a640 	.word	0x0000a640
    7000:	0000a651 	.word	0x0000a651

00007004 <usprintf>:
    7004:	b40e      	push	{r1, r2, r3}
    7006:	b503      	push	{r0, r1, lr}
    7008:	ab03      	add	r3, sp, #12
    700a:	f853 2b04 	ldr.w	r2, [r3], #4
    700e:	f64f 71ff 	movw	r1, #65535	; 0xffff
    7012:	9301      	str	r3, [sp, #4]
    7014:	f7ff fed0 	bl	6db8 <uvsnprintf>
    7018:	e8bd 400c 	ldmia.w	sp!, {r2, r3, lr}
    701c:	b003      	add	sp, #12
    701e:	4770      	bx	lr

00007020 <usnprintf>:
    7020:	b40c      	push	{r2, r3}
    7022:	b507      	push	{r0, r1, r2, lr}
    7024:	ab04      	add	r3, sp, #16
    7026:	f853 2b04 	ldr.w	r2, [r3], #4
    702a:	9301      	str	r3, [sp, #4]
    702c:	f7ff fec4 	bl	6db8 <uvsnprintf>
    7030:	e8bd 400e 	ldmia.w	sp!, {r1, r2, r3, lr}
    7034:	b002      	add	sp, #8
    7036:	4770      	bx	lr

00007038 <ustrtoul>:
    7038:	e92d 43f0 	stmdb	sp!, {r4, r5, r6, r7, r8, r9, lr}
    703c:	4603      	mov	r3, r0
    703e:	4604      	mov	r4, r0
    7040:	7825      	ldrb	r5, [r4, #0]
    7042:	4620      	mov	r0, r4
    7044:	3401      	adds	r4, #1
    7046:	2d20      	cmp	r5, #32
    7048:	d0fa      	beq.n	7040 <ustrtoul+0x8>
    704a:	2d09      	cmp	r5, #9
    704c:	d0f8      	beq.n	7040 <ustrtoul+0x8>
    704e:	2d2d      	cmp	r5, #45	; 0x2d
    7050:	d103      	bne.n	705a <ustrtoul+0x22>
    7052:	4620      	mov	r0, r4
    7054:	f04f 0c01 	mov.w	ip, #1
    7058:	e004      	b.n	7064 <ustrtoul+0x2c>
    705a:	2d2b      	cmp	r5, #43	; 0x2b
    705c:	bf08      	it	eq
    705e:	4620      	moveq	r0, r4
    7060:	f04f 0c00 	mov.w	ip, #0
    7064:	b10a      	cbz	r2, 706a <ustrtoul+0x32>
    7066:	2a10      	cmp	r2, #16
    7068:	d10f      	bne.n	708a <ustrtoul+0x52>
    706a:	7804      	ldrb	r4, [r0, #0]
    706c:	2c30      	cmp	r4, #48	; 0x30
    706e:	d107      	bne.n	7080 <ustrtoul+0x48>
    7070:	7845      	ldrb	r5, [r0, #1]
    7072:	2d78      	cmp	r5, #120	; 0x78
    7074:	d001      	beq.n	707a <ustrtoul+0x42>
    7076:	2d58      	cmp	r5, #88	; 0x58
    7078:	d102      	bne.n	7080 <ustrtoul+0x48>
    707a:	3002      	adds	r0, #2
    707c:	2210      	movs	r2, #16
    707e:	e004      	b.n	708a <ustrtoul+0x52>
    7080:	b91a      	cbnz	r2, 708a <ustrtoul+0x52>
    7082:	2c30      	cmp	r4, #48	; 0x30
    7084:	bf14      	ite	ne
    7086:	220a      	movne	r2, #10
    7088:	2208      	moveq	r2, #8
    708a:	2600      	movs	r6, #0
    708c:	4607      	mov	r7, r0
    708e:	4630      	mov	r0, r6
    7090:	463d      	mov	r5, r7
    7092:	f817 4b01 	ldrb.w	r4, [r7], #1
    7096:	f1a4 0830 	sub.w	r8, r4, #48	; 0x30
    709a:	fa5f f988 	uxtb.w	r9, r8
    709e:	f1b9 0f09 	cmp.w	r9, #9
    70a2:	d801      	bhi.n	70a8 <ustrtoul+0x70>
    70a4:	4644      	mov	r4, r8
    70a6:	e010      	b.n	70ca <ustrtoul+0x92>
    70a8:	f1a4 0841 	sub.w	r8, r4, #65	; 0x41
    70ac:	fa5f f888 	uxtb.w	r8, r8
    70b0:	f1b8 0f19 	cmp.w	r8, #25
    70b4:	d801      	bhi.n	70ba <ustrtoul+0x82>
    70b6:	3c37      	subs	r4, #55	; 0x37
    70b8:	e007      	b.n	70ca <ustrtoul+0x92>
    70ba:	f1a4 0861 	sub.w	r8, r4, #97	; 0x61
    70be:	fa5f f888 	uxtb.w	r8, r8
    70c2:	f1b8 0f19 	cmp.w	r8, #25
    70c6:	d806      	bhi.n	70d6 <ustrtoul+0x9e>
    70c8:	3c57      	subs	r4, #87	; 0x57
    70ca:	4294      	cmp	r4, r2
    70cc:	d203      	bcs.n	70d6 <ustrtoul+0x9e>
    70ce:	fb02 4000 	mla	r0, r2, r0, r4
    70d2:	2601      	movs	r6, #1
    70d4:	e7dc      	b.n	7090 <ustrtoul+0x58>
    70d6:	b119      	cbz	r1, 70e0 <ustrtoul+0xa8>
    70d8:	2e00      	cmp	r6, #0
    70da:	bf08      	it	eq
    70dc:	461d      	moveq	r5, r3
    70de:	600d      	str	r5, [r1, #0]
    70e0:	f1bc 0f00 	cmp.w	ip, #0
    70e4:	d000      	beq.n	70e8 <ustrtoul+0xb0>
    70e6:	4240      	negs	r0, r0
    70e8:	e8bd 83f0 	ldmia.w	sp!, {r4, r5, r6, r7, r8, r9, pc}

000070ec <EthernetInitExpClk>:
    70ec:	4b03      	ldr	r3, [pc, #12]	; (70fc <EthernetInitExpClk+0x10>)
    70ee:	fbb1 f3f3 	udiv	r3, r1, r3
    70f2:	f003 03ff 	and.w	r3, r3, #255	; 0xff
    70f6:	6243      	str	r3, [r0, #36]	; 0x24
    70f8:	4770      	bx	lr
    70fa:	bf00      	nop
    70fc:	004c4b40 	.word	0x004c4b40

00007100 <EthernetConfigSet>:
    7100:	68c3      	ldr	r3, [r0, #12]
    7102:	f001 02ff 	and.w	r2, r1, #255	; 0xff
    7106:	f023 0316 	bic.w	r3, r3, #22
    710a:	4313      	orrs	r3, r2
    710c:	60c3      	str	r3, [r0, #12]
    710e:	6882      	ldr	r2, [r0, #8]
    7110:	0a0b      	lsrs	r3, r1, #8
    7112:	f022 020e 	bic.w	r2, r2, #14
    7116:	f003 03ff 	and.w	r3, r3, #255	; 0xff
    711a:	ea42 0303 	orr.w	r3, r2, r3
    711e:	6083      	str	r3, [r0, #8]
    7120:	6bc3      	ldr	r3, [r0, #60]	; 0x3c
    7122:	0c09      	lsrs	r1, r1, #16
    7124:	f023 0301 	bic.w	r3, r3, #1
    7128:	f001 01ff 	and.w	r1, r1, #255	; 0xff
    712c:	ea43 0101 	orr.w	r1, r3, r1
    7130:	63c1      	str	r1, [r0, #60]	; 0x3c
    7132:	4770      	bx	lr

00007134 <EthernetMACAddrSet>:
    7134:	780b      	ldrb	r3, [r1, #0]
    7136:	b082      	sub	sp, #8
    7138:	f88d 3004 	strb.w	r3, [sp, #4]
    713c:	784b      	ldrb	r3, [r1, #1]
    713e:	f88d 3005 	strb.w	r3, [sp, #5]
    7142:	788b      	ldrb	r3, [r1, #2]
    7144:	f88d 3006 	strb.w	r3, [sp, #6]
    7148:	78cb      	ldrb	r3, [r1, #3]
    714a:	f88d 3007 	strb.w	r3, [sp, #7]
    714e:	9b01      	ldr	r3, [sp, #4]
    7150:	6143      	str	r3, [r0, #20]
    7152:	2300      	movs	r3, #0
    7154:	9301      	str	r3, [sp, #4]
    7156:	790b      	ldrb	r3, [r1, #4]
    7158:	f88d 3004 	strb.w	r3, [sp, #4]
    715c:	794b      	ldrb	r3, [r1, #5]
    715e:	f88d 3005 	strb.w	r3, [sp, #5]
    7162:	9b01      	ldr	r3, [sp, #4]
    7164:	6183      	str	r3, [r0, #24]
    7166:	b002      	add	sp, #8
    7168:	4770      	bx	lr

0000716a <EthernetMACAddrGet>:
    716a:	6943      	ldr	r3, [r0, #20]
    716c:	b082      	sub	sp, #8
    716e:	9301      	str	r3, [sp, #4]
    7170:	0a1a      	lsrs	r2, r3, #8
    7172:	700b      	strb	r3, [r1, #0]
    7174:	f89d 3006 	ldrb.w	r3, [sp, #6]
    7178:	704a      	strb	r2, [r1, #1]
    717a:	708b      	strb	r3, [r1, #2]
    717c:	f89d 3007 	ldrb.w	r3, [sp, #7]
    7180:	70cb      	strb	r3, [r1, #3]
    7182:	6983      	ldr	r3, [r0, #24]
    7184:	9301      	str	r3, [sp, #4]
    7186:	710b      	strb	r3, [r1, #4]
    7188:	f89d 3005 	ldrb.w	r3, [sp, #5]
    718c:	714b      	strb	r3, [r1, #5]
    718e:	b002      	add	sp, #8
    7190:	4770      	bx	lr

00007192 <EthernetEnable>:
    7192:	6883      	ldr	r3, [r0, #8]
    7194:	f043 0310 	orr.w	r3, r3, #16
    7198:	6083      	str	r3, [r0, #8]
    719a:	6883      	ldr	r3, [r0, #8]
    719c:	f043 0301 	orr.w	r3, r3, #1
    71a0:	6083      	str	r3, [r0, #8]
    71a2:	68c3      	ldr	r3, [r0, #12]
    71a4:	f043 0301 	orr.w	r3, r3, #1
    71a8:	60c3      	str	r3, [r0, #12]
    71aa:	6883      	ldr	r3, [r0, #8]
    71ac:	f043 0310 	orr.w	r3, r3, #16
    71b0:	6083      	str	r3, [r0, #8]
    71b2:	4770      	bx	lr

000071b4 <EthernetIntEnable>:
    71b4:	6843      	ldr	r3, [r0, #4]
    71b6:	430b      	orrs	r3, r1
    71b8:	6043      	str	r3, [r0, #4]
    71ba:	4770      	bx	lr

000071bc <EthernetIntDisable>:
    71bc:	6843      	ldr	r3, [r0, #4]
    71be:	ea23 0301 	bic.w	r3, r3, r1
    71c2:	6043      	str	r3, [r0, #4]
    71c4:	4770      	bx	lr

000071c6 <EthernetIntStatus>:
    71c6:	6803      	ldr	r3, [r0, #0]
    71c8:	b109      	cbz	r1, 71ce <EthernetIntStatus+0x8>
    71ca:	6842      	ldr	r2, [r0, #4]
    71cc:	4013      	ands	r3, r2
    71ce:	4618      	mov	r0, r3
    71d0:	4770      	bx	lr

000071d2 <EthernetIntClear>:
    71d2:	6001      	str	r1, [r0, #0]
    71d4:	4770      	bx	lr

000071d6 <EthernetPHYRead>:
    71d6:	6a02      	ldr	r2, [r0, #32]
    71d8:	f100 0320 	add.w	r3, r0, #32
    71dc:	f012 0f01 	tst.w	r2, #1
    71e0:	d1f9      	bne.n	71d6 <EthernetPHYRead>
    71e2:	00c9      	lsls	r1, r1, #3
    71e4:	f001 01ff 	and.w	r1, r1, #255	; 0xff
    71e8:	f041 0101 	orr.w	r1, r1, #1
    71ec:	6019      	str	r1, [r3, #0]
    71ee:	681a      	ldr	r2, [r3, #0]
    71f0:	f012 0f01 	tst.w	r2, #1
    71f4:	d1fb      	bne.n	71ee <EthernetPHYRead+0x18>
    71f6:	6b00      	ldr	r0, [r0, #48]	; 0x30
    71f8:	b280      	uxth	r0, r0
    71fa:	4770      	bx	lr

000071fc <FlashUserGet>:
    71fc:	4b0c      	ldr	r3, [pc, #48]	; (7230 <FlashUserGet+0x34>)
    71fe:	681a      	ldr	r2, [r3, #0]
    7200:	f012 4fe0 	tst.w	r2, #1879048192	; 0x70000000
    7204:	d00e      	beq.n	7224 <FlashUserGet+0x28>
    7206:	681a      	ldr	r2, [r3, #0]
    7208:	4b0a      	ldr	r3, [pc, #40]	; (7234 <FlashUserGet+0x38>)
    720a:	ea02 0303 	and.w	r3, r2, r3
    720e:	f1b3 5f80 	cmp.w	r3, #268435456	; 0x10000000
    7212:	d00a      	beq.n	722a <FlashUserGet+0x2e>
    7214:	4b08      	ldr	r3, [pc, #32]	; (7238 <FlashUserGet+0x3c>)
    7216:	681b      	ldr	r3, [r3, #0]
    7218:	6003      	str	r3, [r0, #0]
    721a:	4b08      	ldr	r3, [pc, #32]	; (723c <FlashUserGet+0x40>)
    721c:	2000      	movs	r0, #0
    721e:	681b      	ldr	r3, [r3, #0]
    7220:	600b      	str	r3, [r1, #0]
    7222:	4770      	bx	lr
    7224:	f04f 30ff 	mov.w	r0, #4294967295
    7228:	4770      	bx	lr
    722a:	f04f 30ff 	mov.w	r0, #4294967295
    722e:	4770      	bx	lr
    7230:	400fe000 	.word	0x400fe000
    7234:	70ff0000 	.word	0x70ff0000
    7238:	400fe1e0 	.word	0x400fe1e0
    723c:	400fe1e4 	.word	0x400fe1e4

00007240 <GPIODirModeSet>:
    7240:	f8d0 3400 	ldr.w	r3, [r0, #1024]	; 0x400
    7244:	f012 0f01 	tst.w	r2, #1
    7248:	bf14      	ite	ne
    724a:	430b      	orrne	r3, r1
    724c:	438b      	biceq	r3, r1
    724e:	b510      	push	{r4, lr}
    7250:	f500 6480 	add.w	r4, r0, #1024	; 0x400
    7254:	6023      	str	r3, [r4, #0]
    7256:	f012 0f02 	tst.w	r2, #2
    725a:	f8d0 2420 	ldr.w	r2, [r0, #1056]	; 0x420
    725e:	f500 6384 	add.w	r3, r0, #1056	; 0x420
    7262:	bf14      	ite	ne
    7264:	4311      	orrne	r1, r2
    7266:	ea22 0101 	biceq.w	r1, r2, r1
    726a:	6019      	str	r1, [r3, #0]
    726c:	bd10      	pop	{r4, pc}

0000726e <GPIOPadConfigSet>:
    726e:	b530      	push	{r4, r5, lr}
    7270:	f8d0 4500 	ldr.w	r4, [r0, #1280]	; 0x500
    7274:	f012 0f01 	tst.w	r2, #1
    7278:	bf14      	ite	ne
    727a:	430c      	orrne	r4, r1
    727c:	438c      	biceq	r4, r1
    727e:	f500 65a0 	add.w	r5, r0, #1280	; 0x500
    7282:	602c      	str	r4, [r5, #0]
    7284:	f8d0 5504 	ldr.w	r5, [r0, #1284]	; 0x504
    7288:	f012 0f02 	tst.w	r2, #2
    728c:	f500 64a0 	add.w	r4, r0, #1280	; 0x500
    7290:	bf14      	ite	ne
    7292:	430d      	orrne	r5, r1
    7294:	438d      	biceq	r5, r1
    7296:	3404      	adds	r4, #4
    7298:	6025      	str	r5, [r4, #0]
    729a:	f8d0 4508 	ldr.w	r4, [r0, #1288]	; 0x508
    729e:	f012 0f04 	tst.w	r2, #4
    72a2:	bf14      	ite	ne
    72a4:	430c      	orrne	r4, r1
    72a6:	438c      	biceq	r4, r1
    72a8:	f500 65a1 	add.w	r5, r0, #1288	; 0x508
    72ac:	602c      	str	r4, [r5, #0]
    72ae:	f012 0f08 	tst.w	r2, #8
    72b2:	f8d0 2518 	ldr.w	r2, [r0, #1304]	; 0x518
    72b6:	f500 64a3 	add.w	r4, r0, #1304	; 0x518
    72ba:	bf14      	ite	ne
    72bc:	430a      	orrne	r2, r1
    72be:	438a      	biceq	r2, r1
    72c0:	6022      	str	r2, [r4, #0]
    72c2:	f8d0 450c 	ldr.w	r4, [r0, #1292]	; 0x50c
    72c6:	f013 0f01 	tst.w	r3, #1
    72ca:	f500 62a0 	add.w	r2, r0, #1280	; 0x500
    72ce:	bf14      	ite	ne
    72d0:	430c      	orrne	r4, r1
    72d2:	438c      	biceq	r4, r1
    72d4:	320c      	adds	r2, #12
    72d6:	6014      	str	r4, [r2, #0]
    72d8:	f8d0 2510 	ldr.w	r2, [r0, #1296]	; 0x510
    72dc:	f013 0f02 	tst.w	r3, #2
    72e0:	bf14      	ite	ne
    72e2:	430a      	orrne	r2, r1
    72e4:	438a      	biceq	r2, r1
    72e6:	f500 64a2 	add.w	r4, r0, #1296	; 0x510
    72ea:	6022      	str	r2, [r4, #0]
    72ec:	f8d0 4514 	ldr.w	r4, [r0, #1300]	; 0x514
    72f0:	f013 0f04 	tst.w	r3, #4
    72f4:	f500 62a2 	add.w	r2, r0, #1296	; 0x510
    72f8:	bf14      	ite	ne
    72fa:	430c      	orrne	r4, r1
    72fc:	438c      	biceq	r4, r1
    72fe:	3204      	adds	r2, #4
    7300:	6014      	str	r4, [r2, #0]
    7302:	f8d0 451c 	ldr.w	r4, [r0, #1308]	; 0x51c
    7306:	f013 0f08 	tst.w	r3, #8
    730a:	f500 62a2 	add.w	r2, r0, #1296	; 0x510
    730e:	f102 020c 	add.w	r2, r2, #12
    7312:	bf14      	ite	ne
    7314:	430c      	orrne	r4, r1
    7316:	438c      	biceq	r4, r1
    7318:	6014      	str	r4, [r2, #0]
    731a:	f500 62a5 	add.w	r2, r0, #1320	; 0x528
    731e:	b923      	cbnz	r3, 732a <GPIOPadConfigSet+0xbc>
    7320:	f8d0 3528 	ldr.w	r3, [r0, #1320]	; 0x528
    7324:	ea43 0101 	orr.w	r1, r3, r1
    7328:	e003      	b.n	7332 <GPIOPadConfigSet+0xc4>
    732a:	f8d0 3528 	ldr.w	r3, [r0, #1320]	; 0x528
    732e:	ea23 0101 	bic.w	r1, r3, r1
    7332:	6011      	str	r1, [r2, #0]
    7334:	bd30      	pop	{r4, r5, pc}

00007336 <GPIOPinRead>:
    7336:	f850 0021 	ldr.w	r0, [r0, r1, lsl #2]
    733a:	4770      	bx	lr

0000733c <GPIOPinWrite>:
    733c:	f840 2021 	str.w	r2, [r0, r1, lsl #2]
    7340:	4770      	bx	lr

00007342 <GPIOPinTypeEthernetLED>:
    7342:	b570      	push	{r4, r5, r6, lr}
    7344:	2202      	movs	r2, #2
    7346:	4605      	mov	r5, r0
    7348:	460c      	mov	r4, r1
    734a:	f7ff ff79 	bl	7240 <GPIODirModeSet>
    734e:	4628      	mov	r0, r5
    7350:	4621      	mov	r1, r4
    7352:	2204      	movs	r2, #4
    7354:	2308      	movs	r3, #8
    7356:	e8bd 4070 	ldmia.w	sp!, {r4, r5, r6, lr}
    735a:	f7ff bf88 	b.w	726e <GPIOPadConfigSet>

0000735e <GPIOPinTypeGPIOOutput>:
    735e:	b570      	push	{r4, r5, r6, lr}
    7360:	2201      	movs	r2, #1
    7362:	2308      	movs	r3, #8
    7364:	4605      	mov	r5, r0
    7366:	460c      	mov	r4, r1
    7368:	f7ff ff81 	bl	726e <GPIOPadConfigSet>
    736c:	4628      	mov	r0, r5
    736e:	4621      	mov	r1, r4
    7370:	2201      	movs	r2, #1
    7372:	e8bd 4070 	ldmia.w	sp!, {r4, r5, r6, lr}
    7376:	f7ff bf63 	b.w	7240 <GPIODirModeSet>

0000737a <GPIOPinTypePWM>:
    737a:	b570      	push	{r4, r5, r6, lr}
    737c:	2202      	movs	r2, #2
    737e:	4605      	mov	r5, r0
    7380:	460c      	mov	r4, r1
    7382:	f7ff ff5d 	bl	7240 <GPIODirModeSet>
    7386:	4628      	mov	r0, r5
    7388:	4621      	mov	r1, r4
    738a:	2201      	movs	r2, #1
    738c:	2308      	movs	r3, #8
    738e:	e8bd 4070 	ldmia.w	sp!, {r4, r5, r6, lr}
    7392:	f7ff bf6c 	b.w	726e <GPIOPadConfigSet>

00007396 <GPIOPinTypeSSI>:
    7396:	b570      	push	{r4, r5, r6, lr}
    7398:	2202      	movs	r2, #2
    739a:	4605      	mov	r5, r0
    739c:	460c      	mov	r4, r1
    739e:	f7ff ff4f 	bl	7240 <GPIODirModeSet>
    73a2:	4628      	mov	r0, r5
    73a4:	4621      	mov	r1, r4
    73a6:	2201      	movs	r2, #1
    73a8:	2308      	movs	r3, #8
    73aa:	e8bd 4070 	ldmia.w	sp!, {r4, r5, r6, lr}
    73ae:	f7ff bf5e 	b.w	726e <GPIOPadConfigSet>

000073b2 <IntMasterEnable>:
    73b2:	b508      	push	{r3, lr}
    73b4:	f000 fab8 	bl	7928 <CPUcpsie>
    73b8:	b2c0      	uxtb	r0, r0
    73ba:	bd08      	pop	{r3, pc}

000073bc <IntMasterDisable>:
    73bc:	b508      	push	{r3, lr}
    73be:	f000 faaf 	bl	7920 <CPUcpsid>
    73c2:	b2c0      	uxtb	r0, r0
    73c4:	bd08      	pop	{r3, pc}
	...

000073c8 <IntEnable>:
    73c8:	2804      	cmp	r0, #4
    73ca:	d104      	bne.n	73d6 <IntEnable+0xe>
    73cc:	4b16      	ldr	r3, [pc, #88]	; (7428 <IntEnable+0x60>)
    73ce:	681a      	ldr	r2, [r3, #0]
    73d0:	f442 3280 	orr.w	r2, r2, #65536	; 0x10000
    73d4:	e005      	b.n	73e2 <IntEnable+0x1a>
    73d6:	2805      	cmp	r0, #5
    73d8:	d105      	bne.n	73e6 <IntEnable+0x1e>
    73da:	4b13      	ldr	r3, [pc, #76]	; (7428 <IntEnable+0x60>)
    73dc:	681a      	ldr	r2, [r3, #0]
    73de:	f442 3200 	orr.w	r2, r2, #131072	; 0x20000
    73e2:	601a      	str	r2, [r3, #0]
    73e4:	4770      	bx	lr
    73e6:	2806      	cmp	r0, #6
    73e8:	d104      	bne.n	73f4 <IntEnable+0x2c>
    73ea:	4b0f      	ldr	r3, [pc, #60]	; (7428 <IntEnable+0x60>)
    73ec:	681a      	ldr	r2, [r3, #0]
    73ee:	f442 2280 	orr.w	r2, r2, #262144	; 0x40000
    73f2:	e7f6      	b.n	73e2 <IntEnable+0x1a>
    73f4:	280f      	cmp	r0, #15
    73f6:	d104      	bne.n	7402 <IntEnable+0x3a>
    73f8:	4b0c      	ldr	r3, [pc, #48]	; (742c <IntEnable+0x64>)
    73fa:	681a      	ldr	r2, [r3, #0]
    73fc:	f042 0202 	orr.w	r2, r2, #2
    7400:	e7ef      	b.n	73e2 <IntEnable+0x1a>
    7402:	f1a0 0310 	sub.w	r3, r0, #16
    7406:	2b1f      	cmp	r3, #31
    7408:	d805      	bhi.n	7416 <IntEnable+0x4e>
    740a:	2201      	movs	r2, #1
    740c:	fa12 f303 	lsls.w	r3, r2, r3
    7410:	4a07      	ldr	r2, [pc, #28]	; (7430 <IntEnable+0x68>)
    7412:	6013      	str	r3, [r2, #0]
    7414:	4770      	bx	lr
    7416:	282f      	cmp	r0, #47	; 0x2f
    7418:	d905      	bls.n	7426 <IntEnable+0x5e>
    741a:	2301      	movs	r3, #1
    741c:	3830      	subs	r0, #48	; 0x30
    741e:	fa13 f000 	lsls.w	r0, r3, r0
    7422:	4b04      	ldr	r3, [pc, #16]	; (7434 <IntEnable+0x6c>)
    7424:	6018      	str	r0, [r3, #0]
    7426:	4770      	bx	lr
    7428:	e000ed24 	.word	0xe000ed24
    742c:	e000e010 	.word	0xe000e010
    7430:	e000e100 	.word	0xe000e100
    7434:	e000e104 	.word	0xe000e104

00007438 <PWMGenConfigure>:
    7438:	b530      	push	{r4, r5, lr}
    743a:	580d      	ldr	r5, [r1, r0]
    743c:	4c0a      	ldr	r4, [pc, #40]	; (7468 <PWMGenConfigure+0x30>)
    743e:	f012 0f02 	tst.w	r2, #2
    7442:	ea05 0404 	and.w	r4, r5, r4
    7446:	ea44 0402 	orr.w	r4, r4, r2
    744a:	eb01 0300 	add.w	r3, r1, r0
    744e:	500c      	str	r4, [r1, r0]
    7450:	d004      	beq.n	745c <PWMGenConfigure+0x24>
    7452:	22b0      	movs	r2, #176	; 0xb0
    7454:	621a      	str	r2, [r3, #32]
    7456:	f44f 6230 	mov.w	r2, #2816	; 0xb00
    745a:	e003      	b.n	7464 <PWMGenConfigure+0x2c>
    745c:	228c      	movs	r2, #140	; 0x8c
    745e:	621a      	str	r2, [r3, #32]
    7460:	f640 020c 	movw	r2, #2060	; 0x80c
    7464:	625a      	str	r2, [r3, #36]	; 0x24
    7466:	bd30      	pop	{r4, r5, pc}
    7468:	fff80001 	.word	0xfff80001

0000746c <PWMGenPeriodSet>:
    746c:	180b      	adds	r3, r1, r0
    746e:	5809      	ldr	r1, [r1, r0]
    7470:	f011 0f02 	tst.w	r1, #2
    7474:	d001      	beq.n	747a <PWMGenPeriodSet+0xe>
    7476:	0852      	lsrs	r2, r2, #1
    7478:	e000      	b.n	747c <PWMGenPeriodSet+0x10>
    747a:	3a01      	subs	r2, #1
    747c:	611a      	str	r2, [r3, #16]
    747e:	4770      	bx	lr

00007480 <PWMGenEnable>:
    7480:	580b      	ldr	r3, [r1, r0]
    7482:	f043 0301 	orr.w	r3, r3, #1
    7486:	500b      	str	r3, [r1, r0]
    7488:	4770      	bx	lr

0000748a <PWMPulseWidthSet>:
    748a:	b510      	push	{r4, lr}
    748c:	f021 043f 	bic.w	r4, r1, #63	; 0x3f
    7490:	1823      	adds	r3, r4, r0
    7492:	5820      	ldr	r0, [r4, r0]
    7494:	f010 0f02 	tst.w	r0, #2
    7498:	6918      	ldr	r0, [r3, #16]
    749a:	bf18      	it	ne
    749c:	0852      	lsrne	r2, r2, #1
    749e:	1a82      	subs	r2, r0, r2
    74a0:	f011 0f01 	tst.w	r1, #1
    74a4:	bf14      	ite	ne
    74a6:	61da      	strne	r2, [r3, #28]
    74a8:	619a      	streq	r2, [r3, #24]
    74aa:	bd10      	pop	{r4, pc}

000074ac <PWMOutputState>:
    74ac:	6883      	ldr	r3, [r0, #8]
    74ae:	2a01      	cmp	r2, #1
    74b0:	bf0c      	ite	eq
    74b2:	4319      	orreq	r1, r3
    74b4:	ea23 0101 	bicne.w	r1, r3, r1
    74b8:	6081      	str	r1, [r0, #8]
    74ba:	4770      	bx	lr

000074bc <SSIConfigSetExpClk>:
    74bc:	2b02      	cmp	r3, #2
    74be:	b510      	push	{r4, lr}
    74c0:	d002      	beq.n	74c8 <SSIConfigSetExpClk+0xc>
    74c2:	b123      	cbz	r3, 74ce <SSIConfigSetExpClk+0x12>
    74c4:	2300      	movs	r3, #0
    74c6:	e000      	b.n	74ca <SSIConfigSetExpClk+0xe>
    74c8:	2308      	movs	r3, #8
    74ca:	2404      	movs	r4, #4
    74cc:	e000      	b.n	74d0 <SSIConfigSetExpClk+0x14>
    74ce:	461c      	mov	r4, r3
    74d0:	4323      	orrs	r3, r4
    74d2:	6043      	str	r3, [r0, #4]
    74d4:	9b02      	ldr	r3, [sp, #8]
    74d6:	fbb1 f1f3 	udiv	r1, r1, r3
    74da:	2300      	movs	r3, #0
    74dc:	3302      	adds	r3, #2
    74de:	fbb1 f4f3 	udiv	r4, r1, r3
    74e2:	3c01      	subs	r4, #1
    74e4:	2cff      	cmp	r4, #255	; 0xff
    74e6:	d8f9      	bhi.n	74dc <SSIConfigSetExpClk+0x20>
    74e8:	6103      	str	r3, [r0, #16]
    74ea:	0193      	lsls	r3, r2, #6
    74ec:	f003 03ff 	and.w	r3, r3, #255	; 0xff
    74f0:	f002 0230 	and.w	r2, r2, #48	; 0x30
    74f4:	ea43 0202 	orr.w	r2, r3, r2
    74f8:	9b03      	ldr	r3, [sp, #12]
    74fa:	3b01      	subs	r3, #1
    74fc:	431a      	orrs	r2, r3
    74fe:	ea42 2404 	orr.w	r4, r2, r4, lsl #8
    7502:	6004      	str	r4, [r0, #0]
    7504:	bd10      	pop	{r4, pc}

00007506 <SSIEnable>:
    7506:	6843      	ldr	r3, [r0, #4]
    7508:	f043 0302 	orr.w	r3, r3, #2
    750c:	6043      	str	r3, [r0, #4]
    750e:	4770      	bx	lr

00007510 <SSIDisable>:
    7510:	6843      	ldr	r3, [r0, #4]
    7512:	f023 0302 	bic.w	r3, r3, #2
    7516:	6043      	str	r3, [r0, #4]
    7518:	4770      	bx	lr

0000751a <SSIDataPut>:
    751a:	68c3      	ldr	r3, [r0, #12]
    751c:	f013 0f02 	tst.w	r3, #2
    7520:	d0fb      	beq.n	751a <SSIDataPut>
    7522:	6081      	str	r1, [r0, #8]
    7524:	4770      	bx	lr

00007526 <SSIDataGetNonBlocking>:
    7526:	68c3      	ldr	r3, [r0, #12]
    7528:	f013 0304 	ands.w	r3, r3, #4
    752c:	d003      	beq.n	7536 <SSIDataGetNonBlocking+0x10>
    752e:	6883      	ldr	r3, [r0, #8]
    7530:	2001      	movs	r0, #1
    7532:	600b      	str	r3, [r1, #0]
    7534:	4770      	bx	lr
    7536:	4618      	mov	r0, r3
    7538:	4770      	bx	lr

0000753a <SSIBusy>:
    753a:	68c0      	ldr	r0, [r0, #12]
    753c:	f3c0 1000 	ubfx	r0, r0, #4, #1
    7540:	4770      	bx	lr
	...

00007544 <SysCtlPeripheralReset>:
    7544:	0f02      	lsrs	r2, r0, #28
    7546:	b281      	uxth	r1, r0
    7548:	f400 10f8 	and.w	r0, r0, #2031616	; 0x1f0000
    754c:	0c00      	lsrs	r0, r0, #16
    754e:	fa11 f000 	lsls.w	r0, r1, r0
    7552:	4b0b      	ldr	r3, [pc, #44]	; (7580 <SysCtlPeripheralReset+0x3c>)
    7554:	b082      	sub	sp, #8
    7556:	f853 3022 	ldr.w	r3, [r3, r2, lsl #2]
    755a:	681a      	ldr	r2, [r3, #0]
    755c:	ea40 0202 	orr.w	r2, r0, r2
    7560:	601a      	str	r2, [r3, #0]
    7562:	2200      	movs	r2, #0
    7564:	e001      	b.n	756a <SysCtlPeripheralReset+0x26>
    7566:	9a01      	ldr	r2, [sp, #4]
    7568:	3201      	adds	r2, #1
    756a:	9201      	str	r2, [sp, #4]
    756c:	9a01      	ldr	r2, [sp, #4]
    756e:	2a0f      	cmp	r2, #15
    7570:	d9f9      	bls.n	7566 <SysCtlPeripheralReset+0x22>
    7572:	681a      	ldr	r2, [r3, #0]
    7574:	ea22 0000 	bic.w	r0, r2, r0
    7578:	6018      	str	r0, [r3, #0]
    757a:	b002      	add	sp, #8
    757c:	4770      	bx	lr
    757e:	bf00      	nop
    7580:	0000a6c0 	.word	0x0000a6c0

00007584 <SysCtlPeripheralEnable>:
    7584:	0f02      	lsrs	r2, r0, #28
    7586:	b281      	uxth	r1, r0
    7588:	f400 10f8 	and.w	r0, r0, #2031616	; 0x1f0000
    758c:	0c00      	lsrs	r0, r0, #16
    758e:	fa11 f000 	lsls.w	r0, r1, r0
    7592:	4b03      	ldr	r3, [pc, #12]	; (75a0 <SysCtlPeripheralEnable+0x1c>)
    7594:	f853 3022 	ldr.w	r3, [r3, r2, lsl #2]
    7598:	681a      	ldr	r2, [r3, #0]
    759a:	4310      	orrs	r0, r2
    759c:	6018      	str	r0, [r3, #0]
    759e:	4770      	bx	lr
    75a0:	0000a6b4 	.word	0x0000a6b4

000075a4 <SysCtlDelay>:
    75a4:	3801      	subs	r0, #1
    75a6:	d1fd      	bne.n	75a4 <SysCtlDelay>
    75a8:	4770      	bx	lr
	...

000075ac <SysCtlClockSet>:
    75ac:	4b4b      	ldr	r3, [pc, #300]	; (76dc <SysCtlClockSet+0x130>)
    75ae:	b570      	push	{r4, r5, r6, lr}
    75b0:	681a      	ldr	r2, [r3, #0]
    75b2:	4604      	mov	r4, r0
    75b4:	f012 4fe0 	tst.w	r2, #1879048192	; 0x70000000
    75b8:	d006      	beq.n	75c8 <SysCtlClockSet+0x1c>
    75ba:	681a      	ldr	r2, [r3, #0]
    75bc:	4b48      	ldr	r3, [pc, #288]	; (76e0 <SysCtlClockSet+0x134>)
    75be:	ea02 0303 	and.w	r3, r2, r3
    75c2:	f1b3 5f80 	cmp.w	r3, #268435456	; 0x10000000
    75c6:	d102      	bne.n	75ce <SysCtlClockSet+0x22>
    75c8:	2c00      	cmp	r4, #0
    75ca:	f2c0 8086 	blt.w	76da <SysCtlClockSet+0x12e>
    75ce:	4945      	ldr	r1, [pc, #276]	; (76e4 <SysCtlClockSet+0x138>)
    75d0:	4a45      	ldr	r2, [pc, #276]	; (76e8 <SysCtlClockSet+0x13c>)
    75d2:	680b      	ldr	r3, [r1, #0]
    75d4:	6816      	ldr	r6, [r2, #0]
    75d6:	f443 6300 	orr.w	r3, r3, #2048	; 0x800
    75da:	f423 0580 	bic.w	r5, r3, #4194304	; 0x400000
    75de:	f446 6600 	orr.w	r6, r6, #2048	; 0x800
    75e2:	f013 0f02 	tst.w	r3, #2
    75e6:	600d      	str	r5, [r1, #0]
    75e8:	6016      	str	r6, [r2, #0]
    75ea:	d002      	beq.n	75f2 <SysCtlClockSet+0x46>
    75ec:	f014 0f02 	tst.w	r4, #2
    75f0:	d005      	beq.n	75fe <SysCtlClockSet+0x52>
    75f2:	f015 0f01 	tst.w	r5, #1
    75f6:	d01a      	beq.n	762e <SysCtlClockSet+0x82>
    75f8:	f014 0f01 	tst.w	r4, #1
    75fc:	d117      	bne.n	762e <SysCtlClockSet+0x82>
    75fe:	f064 0303 	orn	r3, r4, #3
    7602:	401d      	ands	r5, r3
    7604:	4b37      	ldr	r3, [pc, #220]	; (76e4 <SysCtlClockSet+0x138>)
    7606:	2e00      	cmp	r6, #0
    7608:	601d      	str	r5, [r3, #0]
    760a:	da05      	bge.n	7618 <SysCtlClockSet+0x6c>
    760c:	f006 0370 	and.w	r3, r6, #112	; 0x70
    7610:	2b30      	cmp	r3, #48	; 0x30
    7612:	d005      	beq.n	7620 <SysCtlClockSet+0x74>
    7614:	2b70      	cmp	r3, #112	; 0x70
    7616:	e002      	b.n	761e <SysCtlClockSet+0x72>
    7618:	f005 0330 	and.w	r3, r5, #48	; 0x30
    761c:	2b30      	cmp	r3, #48	; 0x30
    761e:	d102      	bne.n	7626 <SysCtlClockSet+0x7a>
    7620:	f44f 5080 	mov.w	r0, #4096	; 0x1000
    7624:	e001      	b.n	762a <SysCtlClockSet+0x7e>
    7626:	f44f 2000 	mov.w	r0, #524288	; 0x80000
    762a:	f7ff ffbb 	bl	75a4 <SysCtlDelay>
    762e:	f425 555e 	bic.w	r5, r5, #14208	; 0x3780
    7632:	f243 73f0 	movw	r3, #14320	; 0x37f0
    7636:	ea04 0303 	and.w	r3, r4, r3
    763a:	f025 0570 	bic.w	r5, r5, #112	; 0x70
    763e:	431d      	orrs	r5, r3
    7640:	4b2a      	ldr	r3, [pc, #168]	; (76ec <SysCtlClockSet+0x140>)
    7642:	4a2b      	ldr	r2, [pc, #172]	; (76f0 <SysCtlClockSet+0x144>)
    7644:	ea06 0303 	and.w	r3, r6, r3
    7648:	4e2a      	ldr	r6, [pc, #168]	; (76f4 <SysCtlClockSet+0x148>)
    764a:	2140      	movs	r1, #64	; 0x40
    764c:	ea04 0606 	and.w	r6, r4, r6
    7650:	431e      	orrs	r6, r3
    7652:	f004 0308 	and.w	r3, r4, #8
    7656:	ea56 06c3 	orrs.w	r6, r6, r3, lsl #3
    765a:	4b23      	ldr	r3, [pc, #140]	; (76e8 <SysCtlClockSet+0x13c>)
    765c:	6011      	str	r1, [r2, #0]
    765e:	f102 0208 	add.w	r2, r2, #8
    7662:	bf4b      	itete	mi
    7664:	601e      	strmi	r6, [r3, #0]
    7666:	6015      	strpl	r5, [r2, #0]
    7668:	6015      	strmi	r5, [r2, #0]
    766a:	601e      	strpl	r6, [r3, #0]
    766c:	2010      	movs	r0, #16
    766e:	f7ff ff99 	bl	75a4 <SysCtlDelay>
    7672:	4b21      	ldr	r3, [pc, #132]	; (76f8 <SysCtlClockSet+0x14c>)
    7674:	f025 65f8 	bic.w	r5, r5, #130023424	; 0x7c00000
    7678:	ea04 0303 	and.w	r3, r4, r3
    767c:	f025 0503 	bic.w	r5, r5, #3
    7680:	431d      	orrs	r5, r3
    7682:	f026 56fc 	bic.w	r6, r6, #528482304	; 0x1f800000
    7686:	f004 53fc 	and.w	r3, r4, #528482304	; 0x1f800000
    768a:	f014 4f80 	tst.w	r4, #1073741824	; 0x40000000
    768e:	ea46 0603 	orr.w	r6, r6, r3
    7692:	d008      	beq.n	76a6 <SysCtlClockSet+0xfa>
    7694:	4b19      	ldr	r3, [pc, #100]	; (76fc <SysCtlClockSet+0x150>)
    7696:	f426 0680 	bic.w	r6, r6, #4194304	; 0x400000
    769a:	ea04 0303 	and.w	r3, r4, r3
    769e:	f445 0580 	orr.w	r5, r5, #4194304	; 0x400000
    76a2:	431e      	orrs	r6, r3
    76a4:	e001      	b.n	76aa <SysCtlClockSet+0xfe>
    76a6:	f026 4680 	bic.w	r6, r6, #1073741824	; 0x40000000
    76aa:	f414 6f00 	tst.w	r4, #2048	; 0x800
    76ae:	d10c      	bne.n	76ca <SysCtlClockSet+0x11e>
    76b0:	f44f 4300 	mov.w	r3, #32768	; 0x8000
    76b4:	4a12      	ldr	r2, [pc, #72]	; (7700 <SysCtlClockSet+0x154>)
    76b6:	6812      	ldr	r2, [r2, #0]
    76b8:	f012 0f40 	tst.w	r2, #64	; 0x40
    76bc:	d101      	bne.n	76c2 <SysCtlClockSet+0x116>
    76be:	3b01      	subs	r3, #1
    76c0:	d1f8      	bne.n	76b4 <SysCtlClockSet+0x108>
    76c2:	f425 6500 	bic.w	r5, r5, #2048	; 0x800
    76c6:	f426 6600 	bic.w	r6, r6, #2048	; 0x800
    76ca:	4b06      	ldr	r3, [pc, #24]	; (76e4 <SysCtlClockSet+0x138>)
    76cc:	2010      	movs	r0, #16
    76ce:	601d      	str	r5, [r3, #0]
    76d0:	611e      	str	r6, [r3, #16]
    76d2:	e8bd 4070 	ldmia.w	sp!, {r4, r5, r6, lr}
    76d6:	f7ff bf65 	b.w	75a4 <SysCtlDelay>
    76da:	bd70      	pop	{r4, r5, r6, pc}
    76dc:	400fe000 	.word	0x400fe000
    76e0:	70ff0000 	.word	0x70ff0000
    76e4:	400fe060 	.word	0x400fe060
    76e8:	400fe070 	.word	0x400fe070
    76ec:	7fffdf8f 	.word	0x7fffdf8f
    76f0:	400fe058 	.word	0x400fe058
    76f4:	80002030 	.word	0x80002030
    76f8:	07c00003 	.word	0x07c00003
    76fc:	40400000 	.word	0x40400000
    7700:	400fe050 	.word	0x400fe050

00007704 <SysCtlClockGet>:
    7704:	4b69      	ldr	r3, [pc, #420]	; (78ac <SysCtlClockGet+0x1a8>)
    7706:	b570      	push	{r4, r5, r6, lr}
    7708:	681a      	ldr	r2, [r3, #0]
    770a:	3310      	adds	r3, #16
    770c:	681b      	ldr	r3, [r3, #0]
    770e:	2b00      	cmp	r3, #0
    7710:	bfb4      	ite	lt
    7712:	f003 0170 	andlt.w	r1, r3, #112	; 0x70
    7716:	f002 0130 	andge.w	r1, r2, #48	; 0x30
    771a:	2920      	cmp	r1, #32
    771c:	d03a      	beq.n	7794 <SysCtlClockGet+0x90>
    771e:	d804      	bhi.n	772a <SysCtlClockGet+0x26>
    7720:	b169      	cbz	r1, 773e <SysCtlClockGet+0x3a>
    7722:	2910      	cmp	r1, #16
    7724:	f040 80c0 	bne.w	78a8 <SysCtlClockGet+0x1a4>
    7728:	e010      	b.n	774c <SysCtlClockGet+0x48>
    772a:	2960      	cmp	r1, #96	; 0x60
    772c:	d05d      	beq.n	77ea <SysCtlClockGet+0xe6>
    772e:	2970      	cmp	r1, #112	; 0x70
    7730:	d058      	beq.n	77e4 <SysCtlClockGet+0xe0>
    7732:	2930      	cmp	r1, #48	; 0x30
    7734:	f040 80b8 	bne.w	78a8 <SysCtlClockGet+0x1a4>
    7738:	f247 5030 	movw	r0, #30000	; 0x7530
    773c:	e063      	b.n	7806 <SysCtlClockGet+0x102>
    773e:	f402 60f8 	and.w	r0, r2, #1984	; 0x7c0
    7742:	495b      	ldr	r1, [pc, #364]	; (78b0 <SysCtlClockGet+0x1ac>)
    7744:	0980      	lsrs	r0, r0, #6
    7746:	f851 0020 	ldr.w	r0, [r1, r0, lsl #2]
    774a:	e05c      	b.n	7806 <SysCtlClockGet+0x102>
    774c:	4959      	ldr	r1, [pc, #356]	; (78b4 <SysCtlClockGet+0x1b0>)
    774e:	6808      	ldr	r0, [r1, #0]
    7750:	f010 4fe0 	tst.w	r0, #1879048192	; 0x70000000
    7754:	d04c      	beq.n	77f0 <SysCtlClockGet+0xec>
    7756:	680c      	ldr	r4, [r1, #0]
    7758:	4857      	ldr	r0, [pc, #348]	; (78b8 <SysCtlClockGet+0x1b4>)
    775a:	ea04 0000 	and.w	r0, r4, r0
    775e:	f1b0 5f80 	cmp.w	r0, #268435456	; 0x10000000
    7762:	d045      	beq.n	77f0 <SysCtlClockGet+0xec>
    7764:	680c      	ldr	r4, [r1, #0]
    7766:	4854      	ldr	r0, [pc, #336]	; (78b8 <SysCtlClockGet+0x1b4>)
    7768:	ea04 0000 	and.w	r0, r4, r0
    776c:	4c53      	ldr	r4, [pc, #332]	; (78bc <SysCtlClockGet+0x1b8>)
    776e:	42a0      	cmp	r0, r4
    7770:	d103      	bne.n	777a <SysCtlClockGet+0x76>
    7772:	6809      	ldr	r1, [r1, #0]
    7774:	b289      	uxth	r1, r1
    7776:	2902      	cmp	r1, #2
    7778:	d03c      	beq.n	77f4 <SysCtlClockGet+0xf0>
    777a:	484e      	ldr	r0, [pc, #312]	; (78b4 <SysCtlClockGet+0x1b0>)
    777c:	494e      	ldr	r1, [pc, #312]	; (78b8 <SysCtlClockGet+0x1b4>)
    777e:	6804      	ldr	r4, [r0, #0]
    7780:	ea04 0101 	and.w	r1, r4, r1
    7784:	4c4e      	ldr	r4, [pc, #312]	; (78c0 <SysCtlClockGet+0x1bc>)
    7786:	42a1      	cmp	r1, r4
    7788:	d136      	bne.n	77f8 <SysCtlClockGet+0xf4>
    778a:	6800      	ldr	r0, [r0, #0]
    778c:	494d      	ldr	r1, [pc, #308]	; (78c4 <SysCtlClockGet+0x1c0>)
    778e:	b280      	uxth	r0, r0
    7790:	4c4d      	ldr	r4, [pc, #308]	; (78c8 <SysCtlClockGet+0x1c4>)
    7792:	e022      	b.n	77da <SysCtlClockGet+0xd6>
    7794:	4947      	ldr	r1, [pc, #284]	; (78b4 <SysCtlClockGet+0x1b0>)
    7796:	6808      	ldr	r0, [r1, #0]
    7798:	f010 4fe0 	tst.w	r0, #1879048192	; 0x70000000
    779c:	d02e      	beq.n	77fc <SysCtlClockGet+0xf8>
    779e:	680c      	ldr	r4, [r1, #0]
    77a0:	4845      	ldr	r0, [pc, #276]	; (78b8 <SysCtlClockGet+0x1b4>)
    77a2:	ea04 0000 	and.w	r0, r4, r0
    77a6:	f1b0 5f80 	cmp.w	r0, #268435456	; 0x10000000
    77aa:	d027      	beq.n	77fc <SysCtlClockGet+0xf8>
    77ac:	680c      	ldr	r4, [r1, #0]
    77ae:	4842      	ldr	r0, [pc, #264]	; (78b8 <SysCtlClockGet+0x1b4>)
    77b0:	ea04 0000 	and.w	r0, r4, r0
    77b4:	4c41      	ldr	r4, [pc, #260]	; (78bc <SysCtlClockGet+0x1b8>)
    77b6:	42a0      	cmp	r0, r4
    77b8:	d103      	bne.n	77c2 <SysCtlClockGet+0xbe>
    77ba:	6809      	ldr	r1, [r1, #0]
    77bc:	b289      	uxth	r1, r1
    77be:	2902      	cmp	r1, #2
    77c0:	d01e      	beq.n	7800 <SysCtlClockGet+0xfc>
    77c2:	483c      	ldr	r0, [pc, #240]	; (78b4 <SysCtlClockGet+0x1b0>)
    77c4:	493c      	ldr	r1, [pc, #240]	; (78b8 <SysCtlClockGet+0x1b4>)
    77c6:	6804      	ldr	r4, [r0, #0]
    77c8:	ea04 0101 	and.w	r1, r4, r1
    77cc:	4c3c      	ldr	r4, [pc, #240]	; (78c0 <SysCtlClockGet+0x1bc>)
    77ce:	42a1      	cmp	r1, r4
    77d0:	d118      	bne.n	7804 <SysCtlClockGet+0x100>
    77d2:	6800      	ldr	r0, [r0, #0]
    77d4:	493d      	ldr	r1, [pc, #244]	; (78cc <SysCtlClockGet+0x1c8>)
    77d6:	4c3e      	ldr	r4, [pc, #248]	; (78d0 <SysCtlClockGet+0x1cc>)
    77d8:	b280      	uxth	r0, r0
    77da:	2800      	cmp	r0, #0
    77dc:	bf0c      	ite	eq
    77de:	4620      	moveq	r0, r4
    77e0:	4608      	movne	r0, r1
    77e2:	e010      	b.n	7806 <SysCtlClockGet+0x102>
    77e4:	f44f 4000 	mov.w	r0, #32768	; 0x8000
    77e8:	e00d      	b.n	7806 <SysCtlClockGet+0x102>
    77ea:	f44f 0080 	mov.w	r0, #4194304	; 0x400000
    77ee:	e00a      	b.n	7806 <SysCtlClockGet+0x102>
    77f0:	4838      	ldr	r0, [pc, #224]	; (78d4 <SysCtlClockGet+0x1d0>)
    77f2:	e008      	b.n	7806 <SysCtlClockGet+0x102>
    77f4:	4834      	ldr	r0, [pc, #208]	; (78c8 <SysCtlClockGet+0x1c4>)
    77f6:	e006      	b.n	7806 <SysCtlClockGet+0x102>
    77f8:	4832      	ldr	r0, [pc, #200]	; (78c4 <SysCtlClockGet+0x1c0>)
    77fa:	e004      	b.n	7806 <SysCtlClockGet+0x102>
    77fc:	4836      	ldr	r0, [pc, #216]	; (78d8 <SysCtlClockGet+0x1d4>)
    77fe:	e002      	b.n	7806 <SysCtlClockGet+0x102>
    7800:	4833      	ldr	r0, [pc, #204]	; (78d0 <SysCtlClockGet+0x1cc>)
    7802:	e000      	b.n	7806 <SysCtlClockGet+0x102>
    7804:	4831      	ldr	r0, [pc, #196]	; (78cc <SysCtlClockGet+0x1c8>)
    7806:	2b00      	cmp	r3, #0
    7808:	da02      	bge.n	7810 <SysCtlClockGet+0x10c>
    780a:	f413 6f00 	tst.w	r3, #2048	; 0x800
    780e:	e001      	b.n	7814 <SysCtlClockGet+0x110>
    7810:	f412 6f00 	tst.w	r2, #2048	; 0x800
    7814:	d12a      	bne.n	786c <SysCtlClockGet+0x168>
    7816:	4931      	ldr	r1, [pc, #196]	; (78dc <SysCtlClockGet+0x1d8>)
    7818:	4d26      	ldr	r5, [pc, #152]	; (78b4 <SysCtlClockGet+0x1b0>)
    781a:	6809      	ldr	r1, [r1, #0]
    781c:	682c      	ldr	r4, [r5, #0]
    781e:	f014 4fe0 	tst.w	r4, #1879048192	; 0x70000000
    7822:	f643 74e0 	movw	r4, #16352	; 0x3fe0
    7826:	ea01 0404 	and.w	r4, r1, r4
    782a:	d006      	beq.n	783a <SysCtlClockGet+0x136>
    782c:	682e      	ldr	r6, [r5, #0]
    782e:	4d22      	ldr	r5, [pc, #136]	; (78b8 <SysCtlClockGet+0x1b4>)
    7830:	ea06 0505 	and.w	r5, r6, r5
    7834:	f1b5 5f80 	cmp.w	r5, #268435456	; 0x10000000
    7838:	d106      	bne.n	7848 <SysCtlClockGet+0x144>
    783a:	0964      	lsrs	r4, r4, #5
    783c:	3402      	adds	r4, #2
    783e:	f001 051f 	and.w	r5, r1, #31
    7842:	4360      	muls	r0, r4
    7844:	3502      	adds	r5, #2
    7846:	e005      	b.n	7854 <SysCtlClockGet+0x150>
    7848:	0964      	lsrs	r4, r4, #5
    784a:	4360      	muls	r0, r4
    784c:	f001 051f 	and.w	r5, r1, #31
    7850:	3501      	adds	r5, #1
    7852:	006d      	lsls	r5, r5, #1
    7854:	fbb0 f0f5 	udiv	r0, r0, r5
    7858:	f411 4f80 	tst.w	r1, #16384	; 0x4000
    785c:	bf18      	it	ne
    785e:	0840      	lsrne	r0, r0, #1
    7860:	f411 4f00 	tst.w	r1, #32768	; 0x8000
    7864:	bf18      	it	ne
    7866:	0880      	lsrne	r0, r0, #2
    7868:	f442 0280 	orr.w	r2, r2, #4194304	; 0x400000
    786c:	f412 0f80 	tst.w	r2, #4194304	; 0x400000
    7870:	d01b      	beq.n	78aa <SysCtlClockGet+0x1a6>
    7872:	2b00      	cmp	r3, #0
    7874:	da11      	bge.n	789a <SysCtlClockGet+0x196>
    7876:	f013 4f80 	tst.w	r3, #1073741824	; 0x40000000
    787a:	d007      	beq.n	788c <SysCtlClockGet+0x188>
    787c:	f413 6f00 	tst.w	r3, #2048	; 0x800
    7880:	d104      	bne.n	788c <SysCtlClockGet+0x188>
    7882:	f003 53fe 	and.w	r3, r3, #532676608	; 0x1fc00000
    7886:	0040      	lsls	r0, r0, #1
    7888:	0d9b      	lsrs	r3, r3, #22
    788a:	e002      	b.n	7892 <SysCtlClockGet+0x18e>
    788c:	f003 53fc 	and.w	r3, r3, #528482304	; 0x1f800000
    7890:	0ddb      	lsrs	r3, r3, #23
    7892:	3301      	adds	r3, #1
    7894:	fbb0 f0f3 	udiv	r0, r0, r3
    7898:	bd70      	pop	{r4, r5, r6, pc}
    789a:	f002 62f0 	and.w	r2, r2, #125829120	; 0x7800000
    789e:	0dd2      	lsrs	r2, r2, #23
    78a0:	3201      	adds	r2, #1
    78a2:	fbb0 f0f2 	udiv	r0, r0, r2
    78a6:	bd70      	pop	{r4, r5, r6, pc}
    78a8:	2000      	movs	r0, #0
    78aa:	bd70      	pop	{r4, r5, r6, pc}
    78ac:	400fe060 	.word	0x400fe060
    78b0:	0000a658 	.word	0x0000a658
    78b4:	400fe000 	.word	0x400fe000
    78b8:	70ff0000 	.word	0x70ff0000
    78bc:	10010000 	.word	0x10010000
    78c0:	10030000 	.word	0x10030000
    78c4:	00f42400 	.word	0x00f42400
    78c8:	00b71b00 	.word	0x00b71b00
    78cc:	003d0900 	.word	0x003d0900
    78d0:	002dc6c0 	.word	0x002dc6c0
    78d4:	00e4e1c0 	.word	0x00e4e1c0
    78d8:	00393870 	.word	0x00393870
    78dc:	400fe064 	.word	0x400fe064

000078e0 <SysCtlPWMClockSet>:
    78e0:	4b03      	ldr	r3, [pc, #12]	; (78f0 <SysCtlPWMClockSet+0x10>)
    78e2:	681a      	ldr	r2, [r3, #0]
    78e4:	f422 12f0 	bic.w	r2, r2, #1966080	; 0x1e0000
    78e8:	ea40 0202 	orr.w	r2, r0, r2
    78ec:	601a      	str	r2, [r3, #0]
    78ee:	4770      	bx	lr
    78f0:	400fe060 	.word	0x400fe060

000078f4 <SysTickEnable>:
    78f4:	4b02      	ldr	r3, [pc, #8]	; (7900 <SysTickEnable+0xc>)
    78f6:	681a      	ldr	r2, [r3, #0]
    78f8:	f042 0205 	orr.w	r2, r2, #5
    78fc:	601a      	str	r2, [r3, #0]
    78fe:	4770      	bx	lr
    7900:	e000e010 	.word	0xe000e010

00007904 <SysTickIntEnable>:
    7904:	4b02      	ldr	r3, [pc, #8]	; (7910 <SysTickIntEnable+0xc>)
    7906:	681a      	ldr	r2, [r3, #0]
    7908:	f042 0202 	orr.w	r2, r2, #2
    790c:	601a      	str	r2, [r3, #0]
    790e:	4770      	bx	lr
    7910:	e000e010 	.word	0xe000e010

00007914 <SysTickPeriodSet>:
    7914:	4b01      	ldr	r3, [pc, #4]	; (791c <SysTickPeriodSet+0x8>)
    7916:	3801      	subs	r0, #1
    7918:	6018      	str	r0, [r3, #0]
    791a:	4770      	bx	lr
    791c:	e000e014 	.word	0xe000e014

00007920 <CPUcpsid>:
    7920:	f3ef 8010 	mrs	r0, PRIMASK
    7924:	b672      	cpsid	i
    7926:	4770      	bx	lr

00007928 <CPUcpsie>:
    7928:	f3ef 8010 	mrs	r0, PRIMASK
    792c:	b662      	cpsie	i
    792e:	4770      	bx	lr

00007930 <memcpy>:
    7930:	e92d 4011 	stmdb	sp!, {r0, r4, lr}
    7934:	b087      	sub	sp, #28
    7936:	2a04      	cmp	r2, #4
    7938:	f0c0 814f 	bcc.w	7bda <memcpy+0x2aa>
    793c:	f1c1 0300 	rsb	r3, r1, #0
    7940:	f013 0303 	ands.w	r3, r3, #3
    7944:	d011      	beq.n	796a <memcpy+0x3a>
    7946:	ea5f 7cc3 	movs.w	ip, r3, lsl #31
    794a:	eba2 0203 	sub.w	r2, r2, r3
    794e:	bf44      	itt	mi
    7950:	f811 3b01 	ldrbmi.w	r3, [r1], #1
    7954:	f800 3b01 	strbmi.w	r3, [r0], #1
    7958:	bf21      	itttt	cs
    795a:	f811 4b01 	ldrbcs.w	r4, [r1], #1
    795e:	f811 cb01 	ldrbcs.w	ip, [r1], #1
    7962:	f800 4b01 	strbcs.w	r4, [r0], #1
    7966:	f800 cb01 	strbcs.w	ip, [r0], #1
    796a:	ea80 0c01 	eor.w	ip, r0, r1
    796e:	f01c 0f03 	tst.w	ip, #3
    7972:	d14e      	bne.n	7a12 <memcpy+0xe2>
    7974:	e88d 0fe0 	stmia.w	sp, {r5, r6, r7, r8, r9, sl, fp}
    7978:	f1c0 0300 	rsb	r3, r0, #0
    797c:	f013 031c 	ands.w	r3, r3, #28
    7980:	d016      	beq.n	79b0 <memcpy+0x80>
    7982:	4293      	cmp	r3, r2
    7984:	bf88      	it	hi
    7986:	f002 031c 	andhi.w	r3, r2, #28
    798a:	ea5f 7c03 	movs.w	ip, r3, lsl #28
    798e:	bf24      	itt	cs
    7990:	c9f0      	ldmiacs	r1!, {r4, r5, r6, r7}
    7992:	c0f0      	stmiacs	r0!, {r4, r5, r6, r7}
    7994:	bf44      	itt	mi
    7996:	e8b1 0300 	ldmiami.w	r1!, {r8, r9}
    799a:	e8a0 0300 	stmiami.w	r0!, {r8, r9}
    799e:	f013 0f04 	tst.w	r3, #4
    79a2:	bf1c      	itt	ne
    79a4:	f851 ab04 	ldrne.w	sl, [r1], #4
    79a8:	f840 ab04 	strne.w	sl, [r0], #4
    79ac:	eba2 0203 	sub.w	r2, r2, r3
    79b0:	3a20      	subs	r2, #32
    79b2:	d30b      	bcc.n	79cc <memcpy+0x9c>
    79b4:	f021 0c1f 	bic.w	ip, r1, #31
    79b8:	f10c 0c40 	add.w	ip, ip, #64	; 0x40
    79bc:	e8b1 0ff0 	ldmia.w	r1!, {r4, r5, r6, r7, r8, r9, sl, fp}
    79c0:	3a20      	subs	r2, #32
    79c2:	e8a0 0ff0 	stmia.w	r0!, {r4, r5, r6, r7, r8, r9, sl, fp}
    79c6:	d2f9      	bcs.n	79bc <memcpy+0x8c>
    79c8:	f102 0220 	add.w	r2, r2, #32
    79cc:	f012 0f1f 	tst.w	r2, #31
    79d0:	d01a      	beq.n	7a08 <memcpy+0xd8>
    79d2:	ea5f 7c02 	movs.w	ip, r2, lsl #28
    79d6:	bf24      	itt	cs
    79d8:	c9f0      	ldmiacs	r1!, {r4, r5, r6, r7}
    79da:	c0f0      	stmiacs	r0!, {r4, r5, r6, r7}
    79dc:	bf44      	itt	mi
    79de:	e8b1 0300 	ldmiami.w	r1!, {r8, r9}
    79e2:	e8a0 0300 	stmiami.w	r0!, {r8, r9}
    79e6:	ea5f 7c82 	movs.w	ip, r2, lsl #30
    79ea:	bf24      	itt	cs
    79ec:	f851 3b04 	ldrcs.w	r3, [r1], #4
    79f0:	f840 3b04 	strcs.w	r3, [r0], #4
    79f4:	bf44      	itt	mi
    79f6:	f831 4b02 	ldrhmi.w	r4, [r1], #2
    79fa:	f820 4b02 	strhmi.w	r4, [r0], #2
    79fe:	f012 0f01 	tst.w	r2, #1
    7a02:	bf1c      	itt	ne
    7a04:	780b      	ldrbne	r3, [r1, #0]
    7a06:	7003      	strbne	r3, [r0, #0]
    7a08:	e8bd 0fe0 	ldmia.w	sp!, {r5, r6, r7, r8, r9, sl, fp}
    7a0c:	e8bd 4011 	ldmia.w	sp!, {r0, r4, lr}
    7a10:	4770      	bx	lr
    7a12:	2a04      	cmp	r2, #4
    7a14:	f0c0 80e1 	bcc.w	7bda <memcpy+0x2aa>
    7a18:	e88d 0fe0 	stmia.w	sp, {r5, r6, r7, r8, r9, sl, fp}
    7a1c:	f1c0 0500 	rsb	r5, r0, #0
    7a20:	f005 0503 	and.w	r5, r5, #3
    7a24:	ea4f 0cc5 	mov.w	ip, r5, lsl #3
    7a28:	f1cc 0e20 	rsb	lr, ip, #32
    7a2c:	f851 3b04 	ldr.w	r3, [r1], #4
    7a30:	f1a2 0204 	sub.w	r2, r2, #4
    7a34:	07ed      	lsls	r5, r5, #31
    7a36:	bf44      	itt	mi
    7a38:	f800 3b01 	strbmi.w	r3, [r0], #1
    7a3c:	0a1b      	lsrmi	r3, r3, #8
    7a3e:	bf21      	itttt	cs
    7a40:	f800 3b01 	strbcs.w	r3, [r0], #1
    7a44:	0a1b      	lsrcs	r3, r3, #8
    7a46:	f800 3b01 	strbcs.w	r3, [r0], #1
    7a4a:	0a1b      	lsrcs	r3, r3, #8
    7a4c:	2a04      	cmp	r2, #4
    7a4e:	f0c0 80b6 	bcc.w	7bbe <memcpy+0x28e>
    7a52:	f010 0f1c 	tst.w	r0, #28
    7a56:	d00f      	beq.n	7a78 <memcpy+0x148>
    7a58:	f851 5b04 	ldr.w	r5, [r1], #4
    7a5c:	f1a2 0204 	sub.w	r2, r2, #4
    7a60:	fa05 f40e 	lsl.w	r4, r5, lr
    7a64:	ea43 0404 	orr.w	r4, r3, r4
    7a68:	fa25 f30c 	lsr.w	r3, r5, ip
    7a6c:	f840 4b04 	str.w	r4, [r0], #4
    7a70:	2a04      	cmp	r2, #4
    7a72:	d2ee      	bcs.n	7a52 <memcpy+0x122>
    7a74:	f0c0 80a3 	bcc.w	7bbe <memcpy+0x28e>
    7a78:	3a20      	subs	r2, #32
    7a7a:	f0c0 808c 	bcc.w	7b96 <memcpy+0x266>
    7a7e:	f1bc 0f18 	cmp.w	ip, #24
    7a82:	d05c      	beq.n	7b3e <memcpy+0x20e>
    7a84:	f1bc 0f08 	cmp.w	ip, #8
    7a88:	d02c      	beq.n	7ae4 <memcpy+0x1b4>
    7a8a:	f851 cb04 	ldr.w	ip, [r1], #4
    7a8e:	4664      	mov	r4, ip
    7a90:	e8b1 0fe0 	ldmia.w	r1!, {r5, r6, r7, r8, r9, sl, fp}
    7a94:	3a20      	subs	r2, #32
    7a96:	bf28      	it	cs
    7a98:	f851 cb04 	ldrcs.w	ip, [r1], #4
    7a9c:	ea43 4304 	orr.w	r3, r3, r4, lsl #16
    7aa0:	ea4f 4414 	mov.w	r4, r4, lsr #16
    7aa4:	ea44 4405 	orr.w	r4, r4, r5, lsl #16
    7aa8:	ea4f 4515 	mov.w	r5, r5, lsr #16
    7aac:	ea45 4506 	orr.w	r5, r5, r6, lsl #16
    7ab0:	ea4f 4616 	mov.w	r6, r6, lsr #16
    7ab4:	ea46 4607 	orr.w	r6, r6, r7, lsl #16
    7ab8:	ea4f 4717 	mov.w	r7, r7, lsr #16
    7abc:	ea47 4708 	orr.w	r7, r7, r8, lsl #16
    7ac0:	ea4f 4818 	mov.w	r8, r8, lsr #16
    7ac4:	ea48 4809 	orr.w	r8, r8, r9, lsl #16
    7ac8:	ea4f 4919 	mov.w	r9, r9, lsr #16
    7acc:	ea49 490a 	orr.w	r9, r9, sl, lsl #16
    7ad0:	ea4f 4a1a 	mov.w	sl, sl, lsr #16
    7ad4:	ea4a 4a0b 	orr.w	sl, sl, fp, lsl #16
    7ad8:	e8a0 07f8 	stmia.w	r0!, {r3, r4, r5, r6, r7, r8, r9, sl}
    7adc:	ea4f 431b 	mov.w	r3, fp, lsr #16
    7ae0:	d2d5      	bcs.n	7a8e <memcpy+0x15e>
    7ae2:	e058      	b.n	7b96 <memcpy+0x266>
    7ae4:	f851 cb04 	ldr.w	ip, [r1], #4
    7ae8:	4664      	mov	r4, ip
    7aea:	e8b1 0fe0 	ldmia.w	r1!, {r5, r6, r7, r8, r9, sl, fp}
    7aee:	3a20      	subs	r2, #32
    7af0:	bf28      	it	cs
    7af2:	f851 cb04 	ldrcs.w	ip, [r1], #4
    7af6:	ea43 6304 	orr.w	r3, r3, r4, lsl #24
    7afa:	ea4f 2414 	mov.w	r4, r4, lsr #8
    7afe:	ea44 6405 	orr.w	r4, r4, r5, lsl #24
    7b02:	ea4f 2515 	mov.w	r5, r5, lsr #8
    7b06:	ea45 6506 	orr.w	r5, r5, r6, lsl #24
    7b0a:	ea4f 2616 	mov.w	r6, r6, lsr #8
    7b0e:	ea46 6607 	orr.w	r6, r6, r7, lsl #24
    7b12:	ea4f 2717 	mov.w	r7, r7, lsr #8
    7b16:	ea47 6708 	orr.w	r7, r7, r8, lsl #24
    7b1a:	ea4f 2818 	mov.w	r8, r8, lsr #8
    7b1e:	ea48 6809 	orr.w	r8, r8, r9, lsl #24
    7b22:	ea4f 2919 	mov.w	r9, r9, lsr #8
    7b26:	ea49 690a 	orr.w	r9, r9, sl, lsl #24
    7b2a:	ea4f 2a1a 	mov.w	sl, sl, lsr #8
    7b2e:	ea4a 6a0b 	orr.w	sl, sl, fp, lsl #24
    7b32:	e8a0 07f8 	stmia.w	r0!, {r3, r4, r5, r6, r7, r8, r9, sl}
    7b36:	ea4f 231b 	mov.w	r3, fp, lsr #8
    7b3a:	d2d5      	bcs.n	7ae8 <memcpy+0x1b8>
    7b3c:	e02b      	b.n	7b96 <memcpy+0x266>
    7b3e:	f851 cb04 	ldr.w	ip, [r1], #4
    7b42:	4664      	mov	r4, ip
    7b44:	e8b1 0fe0 	ldmia.w	r1!, {r5, r6, r7, r8, r9, sl, fp}
    7b48:	3a20      	subs	r2, #32
    7b4a:	bf28      	it	cs
    7b4c:	f851 cb04 	ldrcs.w	ip, [r1], #4
    7b50:	ea43 2304 	orr.w	r3, r3, r4, lsl #8
    7b54:	ea4f 6414 	mov.w	r4, r4, lsr #24
    7b58:	ea44 2405 	orr.w	r4, r4, r5, lsl #8
    7b5c:	ea4f 6515 	mov.w	r5, r5, lsr #24
    7b60:	ea45 2506 	orr.w	r5, r5, r6, lsl #8
    7b64:	ea4f 6616 	mov.w	r6, r6, lsr #24
    7b68:	ea46 2607 	orr.w	r6, r6, r7, lsl #8
    7b6c:	ea4f 6717 	mov.w	r7, r7, lsr #24
    7b70:	ea47 2708 	orr.w	r7, r7, r8, lsl #8
    7b74:	ea4f 6818 	mov.w	r8, r8, lsr #24
    7b78:	ea48 2809 	orr.w	r8, r8, r9, lsl #8
    7b7c:	ea4f 6919 	mov.w	r9, r9, lsr #24
    7b80:	ea49 290a 	orr.w	r9, r9, sl, lsl #8
    7b84:	ea4f 6a1a 	mov.w	sl, sl, lsr #24
    7b88:	ea4a 2a0b 	orr.w	sl, sl, fp, lsl #8
    7b8c:	e8a0 07f8 	stmia.w	r0!, {r3, r4, r5, r6, r7, r8, r9, sl}
    7b90:	ea4f 631b 	mov.w	r3, fp, lsr #24
    7b94:	d2d5      	bcs.n	7b42 <memcpy+0x212>
    7b96:	f1ce 0c20 	rsb	ip, lr, #32
    7b9a:	f102 0220 	add.w	r2, r2, #32
    7b9e:	2a04      	cmp	r2, #4
    7ba0:	d30d      	bcc.n	7bbe <memcpy+0x28e>
    7ba2:	f851 5b04 	ldr.w	r5, [r1], #4
    7ba6:	f1a2 0204 	sub.w	r2, r2, #4
    7baa:	fa05 f40e 	lsl.w	r4, r5, lr
    7bae:	ea43 0404 	orr.w	r4, r3, r4
    7bb2:	fa25 f30c 	lsr.w	r3, r5, ip
    7bb6:	f840 4b04 	str.w	r4, [r0], #4
    7bba:	2a04      	cmp	r2, #4
    7bbc:	d2f1      	bcs.n	7ba2 <memcpy+0x272>
    7bbe:	ea5f 750e 	movs.w	r5, lr, lsl #28
    7bc2:	bf44      	itt	mi
    7bc4:	f800 3b01 	strbmi.w	r3, [r0], #1
    7bc8:	0a1b      	lsrmi	r3, r3, #8
    7bca:	bf22      	ittt	cs
    7bcc:	f800 3b01 	strbcs.w	r3, [r0], #1
    7bd0:	0a1b      	lsrcs	r3, r3, #8
    7bd2:	f800 3b01 	strbcs.w	r3, [r0], #1
    7bd6:	e89d 0fe0 	ldmia.w	sp, {r5, r6, r7, r8, r9, sl, fp}
    7bda:	07d2      	lsls	r2, r2, #31
    7bdc:	bf44      	itt	mi
    7bde:	f811 2b01 	ldrbmi.w	r2, [r1], #1
    7be2:	f800 2b01 	strbmi.w	r2, [r0], #1
    7be6:	bf21      	itttt	cs
    7be8:	f811 3b01 	ldrbcs.w	r3, [r1], #1
    7bec:	f891 c000 	ldrbcs.w	ip, [r1]
    7bf0:	f800 3b01 	strbcs.w	r3, [r0], #1
    7bf4:	f880 c000 	strbcs.w	ip, [r0]
    7bf8:	b007      	add	sp, #28
    7bfa:	e8bd 4011 	ldmia.w	sp!, {r0, r4, lr}
    7bfe:	4770      	bx	lr

00007c00 <memcmp>:
    7c00:	2a03      	cmp	r2, #3
    7c02:	b470      	push	{r4, r5, r6}
    7c04:	4604      	mov	r4, r0
    7c06:	460d      	mov	r5, r1
    7c08:	d925      	bls.n	7c56 <memcmp+0x56>
    7c0a:	ea41 0300 	orr.w	r3, r1, r0
    7c0e:	f013 0f03 	tst.w	r3, #3
    7c12:	d012      	beq.n	7c3a <memcmp+0x3a>
    7c14:	7820      	ldrb	r0, [r4, #0]
    7c16:	782b      	ldrb	r3, [r5, #0]
    7c18:	4298      	cmp	r0, r3
    7c1a:	d120      	bne.n	7c5e <memcmp+0x5e>
    7c1c:	4629      	mov	r1, r5
    7c1e:	e005      	b.n	7c2c <memcmp+0x2c>
    7c20:	f814 0f01 	ldrb.w	r0, [r4, #1]!
    7c24:	f811 3f01 	ldrb.w	r3, [r1, #1]!
    7c28:	4298      	cmp	r0, r3
    7c2a:	d118      	bne.n	7c5e <memcmp+0x5e>
    7c2c:	2a01      	cmp	r2, #1
    7c2e:	f102 32ff 	add.w	r2, r2, #4294967295
    7c32:	d1f5      	bne.n	7c20 <memcmp+0x20>
    7c34:	2000      	movs	r0, #0
    7c36:	bc70      	pop	{r4, r5, r6}
    7c38:	4770      	bx	lr
    7c3a:	460b      	mov	r3, r1
    7c3c:	4604      	mov	r4, r0
    7c3e:	f851 5b04 	ldr.w	r5, [r1], #4
    7c42:	f850 6b04 	ldr.w	r6, [r0], #4
    7c46:	42ae      	cmp	r6, r5
    7c48:	d104      	bne.n	7c54 <memcmp+0x54>
    7c4a:	3a04      	subs	r2, #4
    7c4c:	2a03      	cmp	r2, #3
    7c4e:	4604      	mov	r4, r0
    7c50:	460b      	mov	r3, r1
    7c52:	d8f2      	bhi.n	7c3a <memcmp+0x3a>
    7c54:	461d      	mov	r5, r3
    7c56:	2a00      	cmp	r2, #0
    7c58:	d1dc      	bne.n	7c14 <memcmp+0x14>
    7c5a:	4610      	mov	r0, r2
    7c5c:	e7eb      	b.n	7c36 <memcmp+0x36>
    7c5e:	1ac0      	subs	r0, r0, r3
    7c60:	e7e9      	b.n	7c36 <memcmp+0x36>
    7c62:	bf00      	nop

00007c64 <memset>:
    7c64:	2a03      	cmp	r2, #3
    7c66:	b4f0      	push	{r4, r5, r6, r7}
    7c68:	b2c9      	uxtb	r1, r1
    7c6a:	d808      	bhi.n	7c7e <memset+0x1a>
    7c6c:	b12a      	cbz	r2, 7c7a <memset+0x16>
    7c6e:	4603      	mov	r3, r0
    7c70:	1812      	adds	r2, r2, r0
    7c72:	f803 1b01 	strb.w	r1, [r3], #1
    7c76:	4293      	cmp	r3, r2
    7c78:	d1fb      	bne.n	7c72 <memset+0xe>
    7c7a:	bcf0      	pop	{r4, r5, r6, r7}
    7c7c:	4770      	bx	lr
    7c7e:	1882      	adds	r2, r0, r2
    7c80:	4604      	mov	r4, r0
    7c82:	e001      	b.n	7c88 <memset+0x24>
    7c84:	f804 1b01 	strb.w	r1, [r4], #1
    7c88:	f014 0f03 	tst.w	r4, #3
    7c8c:	d1fa      	bne.n	7c84 <memset+0x20>
    7c8e:	1b15      	subs	r5, r2, r4
    7c90:	f04f 3601 	mov.w	r6, #16843009	; 0x1010101
    7c94:	2d07      	cmp	r5, #7
    7c96:	fb06 f601 	mul.w	r6, r6, r1
    7c9a:	dd03      	ble.n	7ca4 <memset+0x40>
    7c9c:	e00a      	b.n	7cb4 <memset+0x50>
    7c9e:	f844 6b04 	str.w	r6, [r4], #4
    7ca2:	1b15      	subs	r5, r2, r4
    7ca4:	2d03      	cmp	r5, #3
    7ca6:	dcfa      	bgt.n	7c9e <memset+0x3a>
    7ca8:	e001      	b.n	7cae <memset+0x4a>
    7caa:	f804 1b01 	strb.w	r1, [r4], #1
    7cae:	42a2      	cmp	r2, r4
    7cb0:	d8fb      	bhi.n	7caa <memset+0x46>
    7cb2:	e7e2      	b.n	7c7a <memset+0x16>
    7cb4:	f014 0f07 	tst.w	r4, #7
    7cb8:	d002      	beq.n	7cc0 <memset+0x5c>
    7cba:	f844 6b04 	str.w	r6, [r4], #4
    7cbe:	e7f9      	b.n	7cb4 <memset+0x50>
    7cc0:	f04f 3301 	mov.w	r3, #16843009	; 0x1010101
    7cc4:	fb03 f301 	mul.w	r3, r3, r1
    7cc8:	1b17      	subs	r7, r2, r4
    7cca:	4625      	mov	r5, r4
    7ccc:	3480      	adds	r4, #128	; 0x80
    7cce:	2f7f      	cmp	r7, #127	; 0x7f
    7cd0:	dd40      	ble.n	7d54 <memset+0xf0>
    7cd2:	f844 3c80 	str.w	r3, [r4, #-128]
    7cd6:	f844 3c7c 	str.w	r3, [r4, #-124]
    7cda:	f844 3c78 	str.w	r3, [r4, #-120]
    7cde:	f844 3c74 	str.w	r3, [r4, #-116]
    7ce2:	f844 3c70 	str.w	r3, [r4, #-112]
    7ce6:	f844 3c6c 	str.w	r3, [r4, #-108]
    7cea:	f844 3c68 	str.w	r3, [r4, #-104]
    7cee:	f844 3c64 	str.w	r3, [r4, #-100]
    7cf2:	f844 3c60 	str.w	r3, [r4, #-96]
    7cf6:	f844 3c5c 	str.w	r3, [r4, #-92]
    7cfa:	f844 3c58 	str.w	r3, [r4, #-88]
    7cfe:	f844 3c54 	str.w	r3, [r4, #-84]
    7d02:	f844 3c50 	str.w	r3, [r4, #-80]
    7d06:	f844 3c4c 	str.w	r3, [r4, #-76]
    7d0a:	f844 3c48 	str.w	r3, [r4, #-72]
    7d0e:	f844 3c44 	str.w	r3, [r4, #-68]
    7d12:	f844 3c40 	str.w	r3, [r4, #-64]
    7d16:	f844 3c3c 	str.w	r3, [r4, #-60]
    7d1a:	f844 3c38 	str.w	r3, [r4, #-56]
    7d1e:	f844 3c34 	str.w	r3, [r4, #-52]
    7d22:	f844 3c30 	str.w	r3, [r4, #-48]
    7d26:	f844 3c2c 	str.w	r3, [r4, #-44]
    7d2a:	f844 3c28 	str.w	r3, [r4, #-40]
    7d2e:	f844 3c24 	str.w	r3, [r4, #-36]
    7d32:	f844 3c20 	str.w	r3, [r4, #-32]
    7d36:	f844 3c1c 	str.w	r3, [r4, #-28]
    7d3a:	f844 3c18 	str.w	r3, [r4, #-24]
    7d3e:	f844 3c14 	str.w	r3, [r4, #-20]
    7d42:	f844 3c10 	str.w	r3, [r4, #-16]
    7d46:	f844 3c0c 	str.w	r3, [r4, #-12]
    7d4a:	f844 3c08 	str.w	r3, [r4, #-8]
    7d4e:	f844 3c04 	str.w	r3, [r4, #-4]
    7d52:	e7b9      	b.n	7cc8 <memset+0x64>
    7d54:	1b57      	subs	r7, r2, r5
    7d56:	462c      	mov	r4, r5
    7d58:	3520      	adds	r5, #32
    7d5a:	2f1f      	cmp	r7, #31
    7d5c:	dd10      	ble.n	7d80 <memset+0x11c>
    7d5e:	f845 3c20 	str.w	r3, [r5, #-32]
    7d62:	f845 3c1c 	str.w	r3, [r5, #-28]
    7d66:	f845 3c18 	str.w	r3, [r5, #-24]
    7d6a:	f845 3c14 	str.w	r3, [r5, #-20]
    7d6e:	f845 3c10 	str.w	r3, [r5, #-16]
    7d72:	f845 3c0c 	str.w	r3, [r5, #-12]
    7d76:	f845 3c08 	str.w	r3, [r5, #-8]
    7d7a:	f845 3c04 	str.w	r3, [r5, #-4]
    7d7e:	e7e9      	b.n	7d54 <memset+0xf0>
    7d80:	1b15      	subs	r5, r2, r4
    7d82:	2d07      	cmp	r5, #7
    7d84:	dd8e      	ble.n	7ca4 <memset+0x40>
    7d86:	6023      	str	r3, [r4, #0]
    7d88:	6063      	str	r3, [r4, #4]
    7d8a:	3408      	adds	r4, #8
    7d8c:	e7f8      	b.n	7d80 <memset+0x11c>
    7d8e:	bf00      	nop

00007d90 <strchr>:
    7d90:	b2c9      	uxtb	r1, r1
    7d92:	b4f0      	push	{r4, r5, r6, r7}
    7d94:	2900      	cmp	r1, #0
    7d96:	d050      	beq.n	7e3a <strchr+0xaa>
    7d98:	f010 0f03 	tst.w	r0, #3
    7d9c:	d010      	beq.n	7dc0 <strchr+0x30>
    7d9e:	7803      	ldrb	r3, [r0, #0]
    7da0:	2b00      	cmp	r3, #0
    7da2:	d079      	beq.n	7e98 <strchr+0x108>
    7da4:	4299      	cmp	r1, r3
    7da6:	d046      	beq.n	7e36 <strchr+0xa6>
    7da8:	1c43      	adds	r3, r0, #1
    7daa:	e005      	b.n	7db8 <strchr+0x28>
    7dac:	f813 2b01 	ldrb.w	r2, [r3], #1
    7db0:	2a00      	cmp	r2, #0
    7db2:	d03f      	beq.n	7e34 <strchr+0xa4>
    7db4:	4291      	cmp	r1, r2
    7db6:	d03e      	beq.n	7e36 <strchr+0xa6>
    7db8:	f013 0f03 	tst.w	r3, #3
    7dbc:	4618      	mov	r0, r3
    7dbe:	d1f5      	bne.n	7dac <strchr+0x1c>
    7dc0:	6803      	ldr	r3, [r0, #0]
    7dc2:	ea41 2701 	orr.w	r7, r1, r1, lsl #8
    7dc6:	f1a3 3201 	sub.w	r2, r3, #16843009	; 0x1010101
    7dca:	ea22 0203 	bic.w	r2, r2, r3
    7dce:	f012 3f80 	tst.w	r2, #2155905152	; 0x80808080
    7dd2:	ea47 4707 	orr.w	r7, r7, r7, lsl #16
    7dd6:	4606      	mov	r6, r0
    7dd8:	d11d      	bne.n	7e16 <strchr+0x86>
    7dda:	ea87 0303 	eor.w	r3, r7, r3
    7dde:	f1a3 3201 	sub.w	r2, r3, #16843009	; 0x1010101
    7de2:	ea22 0303 	bic.w	r3, r2, r3
    7de6:	f013 3f80 	tst.w	r3, #2155905152	; 0x80808080
    7dea:	d114      	bne.n	7e16 <strchr+0x86>
    7dec:	3004      	adds	r0, #4
    7dee:	e002      	b.n	7df6 <strchr+0x66>
    7df0:	f012 3f80 	tst.w	r2, #2155905152	; 0x80808080
    7df4:	d10f      	bne.n	7e16 <strchr+0x86>
    7df6:	4606      	mov	r6, r0
    7df8:	f850 3b04 	ldr.w	r3, [r0], #4
    7dfc:	f1a3 3501 	sub.w	r5, r3, #16843009	; 0x1010101
    7e00:	ea87 0203 	eor.w	r2, r7, r3
    7e04:	ea25 0303 	bic.w	r3, r5, r3
    7e08:	f1a2 3401 	sub.w	r4, r2, #16843009	; 0x1010101
    7e0c:	f013 3f80 	tst.w	r3, #2155905152	; 0x80808080
    7e10:	ea24 0202 	bic.w	r2, r4, r2
    7e14:	d0ec      	beq.n	7df0 <strchr+0x60>
    7e16:	7833      	ldrb	r3, [r6, #0]
    7e18:	4630      	mov	r0, r6
    7e1a:	2b00      	cmp	r3, #0
    7e1c:	d03c      	beq.n	7e98 <strchr+0x108>
    7e1e:	4299      	cmp	r1, r3
    7e20:	d009      	beq.n	7e36 <strchr+0xa6>
    7e22:	1c73      	adds	r3, r6, #1
    7e24:	e001      	b.n	7e2a <strchr+0x9a>
    7e26:	4291      	cmp	r1, r2
    7e28:	d005      	beq.n	7e36 <strchr+0xa6>
    7e2a:	4618      	mov	r0, r3
    7e2c:	f813 2b01 	ldrb.w	r2, [r3], #1
    7e30:	2a00      	cmp	r2, #0
    7e32:	d1f8      	bne.n	7e26 <strchr+0x96>
    7e34:	4610      	mov	r0, r2
    7e36:	bcf0      	pop	{r4, r5, r6, r7}
    7e38:	4770      	bx	lr
    7e3a:	f010 0f03 	tst.w	r0, #3
    7e3e:	d00c      	beq.n	7e5a <strchr+0xca>
    7e40:	7803      	ldrb	r3, [r0, #0]
    7e42:	2b00      	cmp	r3, #0
    7e44:	d0f7      	beq.n	7e36 <strchr+0xa6>
    7e46:	1c43      	adds	r3, r0, #1
    7e48:	e003      	b.n	7e52 <strchr+0xc2>
    7e4a:	f813 2b01 	ldrb.w	r2, [r3], #1
    7e4e:	2a00      	cmp	r2, #0
    7e50:	d0f1      	beq.n	7e36 <strchr+0xa6>
    7e52:	f013 0f03 	tst.w	r3, #3
    7e56:	4618      	mov	r0, r3
    7e58:	d1f7      	bne.n	7e4a <strchr+0xba>
    7e5a:	6802      	ldr	r2, [r0, #0]
    7e5c:	4603      	mov	r3, r0
    7e5e:	f1a2 3101 	sub.w	r1, r2, #16843009	; 0x1010101
    7e62:	ea21 0202 	bic.w	r2, r1, r2
    7e66:	f012 3f80 	tst.w	r2, #2155905152	; 0x80808080
    7e6a:	d10a      	bne.n	7e82 <strchr+0xf2>
    7e6c:	3004      	adds	r0, #4
    7e6e:	4603      	mov	r3, r0
    7e70:	f850 2b04 	ldr.w	r2, [r0], #4
    7e74:	f1a2 3101 	sub.w	r1, r2, #16843009	; 0x1010101
    7e78:	ea21 0202 	bic.w	r2, r1, r2
    7e7c:	f012 3f80 	tst.w	r2, #2155905152	; 0x80808080
    7e80:	d0f5      	beq.n	7e6e <strchr+0xde>
    7e82:	781a      	ldrb	r2, [r3, #0]
    7e84:	4618      	mov	r0, r3
    7e86:	2a00      	cmp	r2, #0
    7e88:	d0d5      	beq.n	7e36 <strchr+0xa6>
    7e8a:	3301      	adds	r3, #1
    7e8c:	4618      	mov	r0, r3
    7e8e:	f813 2b01 	ldrb.w	r2, [r3], #1
    7e92:	2a00      	cmp	r2, #0
    7e94:	d1fa      	bne.n	7e8c <strchr+0xfc>
    7e96:	e7ce      	b.n	7e36 <strchr+0xa6>
    7e98:	4618      	mov	r0, r3
    7e9a:	e7cc      	b.n	7e36 <strchr+0xa6>

00007e9c <strcmp>:
    7e9c:	f810 2b01 	ldrb.w	r2, [r0], #1
    7ea0:	f811 3b01 	ldrb.w	r3, [r1], #1
    7ea4:	2a01      	cmp	r2, #1
    7ea6:	bf28      	it	cs
    7ea8:	429a      	cmpcs	r2, r3
    7eaa:	bf1c      	itt	ne
    7eac:	1ad0      	subne	r0, r2, r3
    7eae:	4770      	bxne	lr
    7eb0:	ea80 0201 	eor.w	r2, r0, r1
    7eb4:	f012 0f03 	tst.w	r2, #3
    7eb8:	d13a      	bne.n	7f30 <strcmp_unaligned>
    7eba:	f010 0203 	ands.w	r2, r0, #3
    7ebe:	f020 0003 	bic.w	r0, r0, #3
    7ec2:	f021 0103 	bic.w	r1, r1, #3
    7ec6:	f850 cb04 	ldr.w	ip, [r0], #4
    7eca:	bf08      	it	eq
    7ecc:	f851 3b04 	ldreq.w	r3, [r1], #4
    7ed0:	d00d      	beq.n	7eee <strcmp+0x52>
    7ed2:	f082 0203 	eor.w	r2, r2, #3
    7ed6:	ea4f 02c2 	mov.w	r2, r2, lsl #3
    7eda:	f06f 437f 	mvn.w	r3, #4278190080	; 0xff000000
    7ede:	fa23 f202 	lsr.w	r2, r3, r2
    7ee2:	f851 3b04 	ldr.w	r3, [r1], #4
    7ee6:	ea4c 0c02 	orr.w	ip, ip, r2
    7eea:	ea43 0302 	orr.w	r3, r3, r2
    7eee:	bf00      	nop
    7ef0:	f1ac 3201 	sub.w	r2, ip, #16843009	; 0x1010101
    7ef4:	459c      	cmp	ip, r3
    7ef6:	bf01      	itttt	eq
    7ef8:	ea22 020c 	biceq.w	r2, r2, ip
    7efc:	f012 3f80 	tsteq.w	r2, #2155905152	; 0x80808080
    7f00:	f850 cb04 	ldreq.w	ip, [r0], #4
    7f04:	f851 3b04 	ldreq.w	r3, [r1], #4
    7f08:	d0f2      	beq.n	7ef0 <strcmp+0x54>
    7f0a:	ea4f 600c 	mov.w	r0, ip, lsl #24
    7f0e:	ea4f 2c1c 	mov.w	ip, ip, lsr #8
    7f12:	2801      	cmp	r0, #1
    7f14:	bf28      	it	cs
    7f16:	ebb0 6f03 	cmpcs.w	r0, r3, lsl #24
    7f1a:	bf08      	it	eq
    7f1c:	0a1b      	lsreq	r3, r3, #8
    7f1e:	d0f4      	beq.n	7f0a <strcmp+0x6e>
    7f20:	f003 03ff 	and.w	r3, r3, #255	; 0xff
    7f24:	ea4f 6010 	mov.w	r0, r0, lsr #24
    7f28:	eba0 0003 	sub.w	r0, r0, r3
    7f2c:	4770      	bx	lr
    7f2e:	bf00      	nop

00007f30 <strcmp_unaligned>:
    7f30:	f010 0f03 	tst.w	r0, #3
    7f34:	d00a      	beq.n	7f4c <strcmp_unaligned+0x1c>
    7f36:	f810 2b01 	ldrb.w	r2, [r0], #1
    7f3a:	f811 3b01 	ldrb.w	r3, [r1], #1
    7f3e:	2a01      	cmp	r2, #1
    7f40:	bf28      	it	cs
    7f42:	429a      	cmpcs	r2, r3
    7f44:	d0f4      	beq.n	7f30 <strcmp_unaligned>
    7f46:	eba2 0003 	sub.w	r0, r2, r3
    7f4a:	4770      	bx	lr
    7f4c:	f84d 5d04 	str.w	r5, [sp, #-4]!
    7f50:	f84d 4d04 	str.w	r4, [sp, #-4]!
    7f54:	f04f 0201 	mov.w	r2, #1
    7f58:	ea42 2202 	orr.w	r2, r2, r2, lsl #8
    7f5c:	ea42 4202 	orr.w	r2, r2, r2, lsl #16
    7f60:	f001 0c03 	and.w	ip, r1, #3
    7f64:	f021 0103 	bic.w	r1, r1, #3
    7f68:	f850 4b04 	ldr.w	r4, [r0], #4
    7f6c:	f851 5b04 	ldr.w	r5, [r1], #4
    7f70:	f1bc 0f02 	cmp.w	ip, #2
    7f74:	d026      	beq.n	7fc4 <strcmp_unaligned+0x94>
    7f76:	d84b      	bhi.n	8010 <strcmp_unaligned+0xe0>
    7f78:	f024 4c7f 	bic.w	ip, r4, #4278190080	; 0xff000000
    7f7c:	ebbc 2f15 	cmp.w	ip, r5, lsr #8
    7f80:	eba4 0302 	sub.w	r3, r4, r2
    7f84:	ea23 0304 	bic.w	r3, r3, r4
    7f88:	d10d      	bne.n	7fa6 <strcmp_unaligned+0x76>
    7f8a:	ea13 13c2 	ands.w	r3, r3, r2, lsl #7
    7f8e:	bf08      	it	eq
    7f90:	f851 5b04 	ldreq.w	r5, [r1], #4
    7f94:	d10a      	bne.n	7fac <strcmp_unaligned+0x7c>
    7f96:	ea8c 0c04 	eor.w	ip, ip, r4
    7f9a:	ebbc 6f05 	cmp.w	ip, r5, lsl #24
    7f9e:	d10c      	bne.n	7fba <strcmp_unaligned+0x8a>
    7fa0:	f850 4b04 	ldr.w	r4, [r0], #4
    7fa4:	e7e8      	b.n	7f78 <strcmp_unaligned+0x48>
    7fa6:	ea4f 2515 	mov.w	r5, r5, lsr #8
    7faa:	e05c      	b.n	8066 <strcmp_unaligned+0x136>
    7fac:	f033 437f 	bics.w	r3, r3, #4278190080	; 0xff000000
    7fb0:	d152      	bne.n	8058 <strcmp_unaligned+0x128>
    7fb2:	780d      	ldrb	r5, [r1, #0]
    7fb4:	ea4f 6c14 	mov.w	ip, r4, lsr #24
    7fb8:	e055      	b.n	8066 <strcmp_unaligned+0x136>
    7fba:	ea4f 6c14 	mov.w	ip, r4, lsr #24
    7fbe:	f005 05ff 	and.w	r5, r5, #255	; 0xff
    7fc2:	e050      	b.n	8066 <strcmp_unaligned+0x136>
    7fc4:	ea4f 4c04 	mov.w	ip, r4, lsl #16
    7fc8:	eba4 0302 	sub.w	r3, r4, r2
    7fcc:	ea4f 4c1c 	mov.w	ip, ip, lsr #16
    7fd0:	ea23 0304 	bic.w	r3, r3, r4
    7fd4:	ebbc 4f15 	cmp.w	ip, r5, lsr #16
    7fd8:	d117      	bne.n	800a <strcmp_unaligned+0xda>
    7fda:	ea13 13c2 	ands.w	r3, r3, r2, lsl #7
    7fde:	bf08      	it	eq
    7fe0:	f851 5b04 	ldreq.w	r5, [r1], #4
    7fe4:	d107      	bne.n	7ff6 <strcmp_unaligned+0xc6>
    7fe6:	ea8c 0c04 	eor.w	ip, ip, r4
    7fea:	ebbc 4f05 	cmp.w	ip, r5, lsl #16
    7fee:	d108      	bne.n	8002 <strcmp_unaligned+0xd2>
    7ff0:	f850 4b04 	ldr.w	r4, [r0], #4
    7ff4:	e7e6      	b.n	7fc4 <strcmp_unaligned+0x94>
    7ff6:	041b      	lsls	r3, r3, #16
    7ff8:	d12e      	bne.n	8058 <strcmp_unaligned+0x128>
    7ffa:	880d      	ldrh	r5, [r1, #0]
    7ffc:	ea4f 4c14 	mov.w	ip, r4, lsr #16
    8000:	e031      	b.n	8066 <strcmp_unaligned+0x136>
    8002:	ea4f 4505 	mov.w	r5, r5, lsl #16
    8006:	ea4f 4c14 	mov.w	ip, r4, lsr #16
    800a:	ea4f 4515 	mov.w	r5, r5, lsr #16
    800e:	e02a      	b.n	8066 <strcmp_unaligned+0x136>
    8010:	f004 0cff 	and.w	ip, r4, #255	; 0xff
    8014:	ebbc 6f15 	cmp.w	ip, r5, lsr #24
    8018:	eba4 0302 	sub.w	r3, r4, r2
    801c:	ea23 0304 	bic.w	r3, r3, r4
    8020:	d10d      	bne.n	803e <strcmp_unaligned+0x10e>
    8022:	ea13 13c2 	ands.w	r3, r3, r2, lsl #7
    8026:	bf08      	it	eq
    8028:	f851 5b04 	ldreq.w	r5, [r1], #4
    802c:	d10a      	bne.n	8044 <strcmp_unaligned+0x114>
    802e:	ea8c 0c04 	eor.w	ip, ip, r4
    8032:	ebbc 2f05 	cmp.w	ip, r5, lsl #8
    8036:	d10a      	bne.n	804e <strcmp_unaligned+0x11e>
    8038:	f850 4b04 	ldr.w	r4, [r0], #4
    803c:	e7e8      	b.n	8010 <strcmp_unaligned+0xe0>
    803e:	ea4f 6515 	mov.w	r5, r5, lsr #24
    8042:	e010      	b.n	8066 <strcmp_unaligned+0x136>
    8044:	f014 0fff 	tst.w	r4, #255	; 0xff
    8048:	d006      	beq.n	8058 <strcmp_unaligned+0x128>
    804a:	f851 5b04 	ldr.w	r5, [r1], #4
    804e:	ea4f 2c14 	mov.w	ip, r4, lsr #8
    8052:	f025 457f 	bic.w	r5, r5, #4278190080	; 0xff000000
    8056:	e006      	b.n	8066 <strcmp_unaligned+0x136>
    8058:	f04f 0000 	mov.w	r0, #0
    805c:	f85d 4b04 	ldr.w	r4, [sp], #4
    8060:	f85d 5b04 	ldr.w	r5, [sp], #4
    8064:	4770      	bx	lr
    8066:	f00c 02ff 	and.w	r2, ip, #255	; 0xff
    806a:	f005 00ff 	and.w	r0, r5, #255	; 0xff
    806e:	2801      	cmp	r0, #1
    8070:	bf28      	it	cs
    8072:	4290      	cmpcs	r0, r2
    8074:	bf04      	itt	eq
    8076:	ea4f 2c1c 	moveq.w	ip, ip, lsr #8
    807a:	0a2d      	lsreq	r5, r5, #8
    807c:	d0f3      	beq.n	8066 <strcmp_unaligned+0x136>
    807e:	eba2 0000 	sub.w	r0, r2, r0
    8082:	f85d 4b04 	ldr.w	r4, [sp], #4
    8086:	f85d 5b04 	ldr.w	r5, [sp], #4
    808a:	4770      	bx	lr

0000808c <strlen>:
    808c:	f020 0103 	bic.w	r1, r0, #3
    8090:	f010 0003 	ands.w	r0, r0, #3
    8094:	f1c0 0000 	rsb	r0, r0, #0
    8098:	f851 3b04 	ldr.w	r3, [r1], #4
    809c:	f100 0c04 	add.w	ip, r0, #4
    80a0:	ea4f 0ccc 	mov.w	ip, ip, lsl #3
    80a4:	f06f 0200 	mvn.w	r2, #0
    80a8:	bf1c      	itt	ne
    80aa:	fa22 f20c 	lsrne.w	r2, r2, ip
    80ae:	4313      	orrne	r3, r2
    80b0:	f240 1c01 	movw	ip, #257	; 0x101
    80b4:	ea4c 4c0c 	orr.w	ip, ip, ip, lsl #16
    80b8:	eba3 020c 	sub.w	r2, r3, ip
    80bc:	ea22 0203 	bic.w	r2, r2, r3
    80c0:	ea12 12cc 	ands.w	r2, r2, ip, lsl #7
    80c4:	bf04      	itt	eq
    80c6:	f851 3b04 	ldreq.w	r3, [r1], #4
    80ca:	3004      	addeq	r0, #4
    80cc:	bf02      	ittt	eq
    80ce:	eba3 020c 	subeq.w	r2, r3, ip
    80d2:	439a      	biceq	r2, r3
    80d4:	ea12 12cc 	andseq.w	r2, r2, ip, lsl #7
    80d8:	bf04      	itt	eq
    80da:	f851 3b04 	ldreq.w	r3, [r1], #4
    80de:	3004      	addeq	r0, #4
    80e0:	d0ea      	beq.n	80b8 <strlen+0x2c>
    80e2:	fa92 f2a2 	rbit	r2, r2
    80e6:	fab2 f282 	clz	r2, r2
    80ea:	eb00 00d2 	add.w	r0, r0, r2, lsr #3
    80ee:	4770      	bx	lr

000080f0 <strncmp>:
    80f0:	b4f0      	push	{r4, r5, r6, r7}
    80f2:	2a00      	cmp	r2, #0
    80f4:	d044      	beq.n	8180 <strncmp+0x90>
    80f6:	ea41 0300 	orr.w	r3, r1, r0
    80fa:	f013 0303 	ands.w	r3, r3, #3
    80fe:	d12a      	bne.n	8156 <strncmp+0x66>
    8100:	2a03      	cmp	r2, #3
    8102:	4607      	mov	r7, r0
    8104:	460e      	mov	r6, r1
    8106:	d941      	bls.n	818c <strncmp+0x9c>
    8108:	6804      	ldr	r4, [r0, #0]
    810a:	680d      	ldr	r5, [r1, #0]
    810c:	42ac      	cmp	r4, r5
    810e:	d13d      	bne.n	818c <strncmp+0x9c>
    8110:	3a04      	subs	r2, #4
    8112:	d035      	beq.n	8180 <strncmp+0x90>
    8114:	f1a4 3501 	sub.w	r5, r4, #16843009	; 0x1010101
    8118:	ea25 0404 	bic.w	r4, r5, r4
    811c:	f014 3f80 	tst.w	r4, #2155905152	; 0x80808080
    8120:	d13a      	bne.n	8198 <strncmp+0xa8>
    8122:	1d04      	adds	r4, r0, #4
    8124:	1d0d      	adds	r5, r1, #4
    8126:	e00e      	b.n	8146 <strncmp+0x56>
    8128:	f854 3b04 	ldr.w	r3, [r4], #4
    812c:	f855 1b04 	ldr.w	r1, [r5], #4
    8130:	f1a3 3001 	sub.w	r0, r3, #16843009	; 0x1010101
    8134:	428b      	cmp	r3, r1
    8136:	ea20 0003 	bic.w	r0, r0, r3
    813a:	d127      	bne.n	818c <strncmp+0x9c>
    813c:	3a04      	subs	r2, #4
    813e:	d01f      	beq.n	8180 <strncmp+0x90>
    8140:	f010 3f80 	tst.w	r0, #2155905152	; 0x80808080
    8144:	d11e      	bne.n	8184 <strncmp+0x94>
    8146:	2a03      	cmp	r2, #3
    8148:	4627      	mov	r7, r4
    814a:	462e      	mov	r6, r5
    814c:	d8ec      	bhi.n	8128 <strncmp+0x38>
    814e:	4620      	mov	r0, r4
    8150:	4629      	mov	r1, r5
    8152:	2a00      	cmp	r2, #0
    8154:	d01d      	beq.n	8192 <strncmp+0xa2>
    8156:	7804      	ldrb	r4, [r0, #0]
    8158:	780d      	ldrb	r5, [r1, #0]
    815a:	3a01      	subs	r2, #1
    815c:	42ac      	cmp	r4, r5
    815e:	d10c      	bne.n	817a <strncmp+0x8a>
    8160:	b172      	cbz	r2, 8180 <strncmp+0x90>
    8162:	b18c      	cbz	r4, 8188 <strncmp+0x98>
    8164:	2300      	movs	r3, #0
    8166:	e002      	b.n	816e <strncmp+0x7e>
    8168:	4293      	cmp	r3, r2
    816a:	d00b      	beq.n	8184 <strncmp+0x94>
    816c:	b164      	cbz	r4, 8188 <strncmp+0x98>
    816e:	3301      	adds	r3, #1
    8170:	f810 4f01 	ldrb.w	r4, [r0, #1]!
    8174:	5ccd      	ldrb	r5, [r1, r3]
    8176:	42ac      	cmp	r4, r5
    8178:	d0f6      	beq.n	8168 <strncmp+0x78>
    817a:	1b60      	subs	r0, r4, r5
    817c:	bcf0      	pop	{r4, r5, r6, r7}
    817e:	4770      	bx	lr
    8180:	4610      	mov	r0, r2
    8182:	e7fb      	b.n	817c <strncmp+0x8c>
    8184:	2000      	movs	r0, #0
    8186:	e7f9      	b.n	817c <strncmp+0x8c>
    8188:	4620      	mov	r0, r4
    818a:	e7f7      	b.n	817c <strncmp+0x8c>
    818c:	4638      	mov	r0, r7
    818e:	4631      	mov	r1, r6
    8190:	e7e1      	b.n	8156 <strncmp+0x66>
    8192:	7824      	ldrb	r4, [r4, #0]
    8194:	782d      	ldrb	r5, [r5, #0]
    8196:	e7f0      	b.n	817a <strncmp+0x8a>
    8198:	4618      	mov	r0, r3
    819a:	e7ef      	b.n	817c <strncmp+0x8c>

0000819c <critical_factorization>:
    819c:	2301      	movs	r3, #1
    819e:	e92d 07f0 	stmdb	sp!, {r4, r5, r6, r7, r8, r9, sl}
    81a2:	461d      	mov	r5, r3
    81a4:	2600      	movs	r6, #0
    81a6:	f04f 37ff 	mov.w	r7, #4294967295
    81aa:	19ac      	adds	r4, r5, r6
    81ac:	428c      	cmp	r4, r1
    81ae:	eb00 0c07 	add.w	ip, r0, r7
    81b2:	d20d      	bcs.n	81d0 <critical_factorization+0x34>
    81b4:	f81c c005 	ldrb.w	ip, [ip, r5]
    81b8:	f810 8004 	ldrb.w	r8, [r0, r4]
    81bc:	45e0      	cmp	r8, ip
    81be:	d22e      	bcs.n	821e <critical_factorization+0x82>
    81c0:	2501      	movs	r5, #1
    81c2:	4626      	mov	r6, r4
    81c4:	1be3      	subs	r3, r4, r7
    81c6:	19ac      	adds	r4, r5, r6
    81c8:	428c      	cmp	r4, r1
    81ca:	eb00 0c07 	add.w	ip, r0, r7
    81ce:	d3f1      	bcc.n	81b4 <critical_factorization+0x18>
    81d0:	f04f 0901 	mov.w	r9, #1
    81d4:	6013      	str	r3, [r2, #0]
    81d6:	464d      	mov	r5, r9
    81d8:	2600      	movs	r6, #0
    81da:	f04f 3cff 	mov.w	ip, #4294967295
    81de:	19ac      	adds	r4, r5, r6
    81e0:	42a1      	cmp	r1, r4
    81e2:	eb00 080c 	add.w	r8, r0, ip
    81e6:	d90e      	bls.n	8206 <critical_factorization+0x6a>
    81e8:	f818 8005 	ldrb.w	r8, [r8, r5]
    81ec:	f810 a004 	ldrb.w	sl, [r0, r4]
    81f0:	45c2      	cmp	sl, r8
    81f2:	d91a      	bls.n	822a <critical_factorization+0x8e>
    81f4:	2501      	movs	r5, #1
    81f6:	4626      	mov	r6, r4
    81f8:	ebcc 0904 	rsb	r9, ip, r4
    81fc:	19ac      	adds	r4, r5, r6
    81fe:	42a1      	cmp	r1, r4
    8200:	eb00 080c 	add.w	r8, r0, ip
    8204:	d8f0      	bhi.n	81e8 <critical_factorization+0x4c>
    8206:	f10c 0001 	add.w	r0, ip, #1
    820a:	3701      	adds	r7, #1
    820c:	42b8      	cmp	r0, r7
    820e:	bf3c      	itt	cc
    8210:	4699      	movcc	r9, r3
    8212:	4638      	movcc	r0, r7
    8214:	f8c2 9000 	str.w	r9, [r2]
    8218:	e8bd 07f0 	ldmia.w	sp!, {r4, r5, r6, r7, r8, r9, sl}
    821c:	4770      	bx	lr
    821e:	d00b      	beq.n	8238 <critical_factorization+0x9c>
    8220:	2301      	movs	r3, #1
    8222:	4637      	mov	r7, r6
    8224:	461d      	mov	r5, r3
    8226:	18f6      	adds	r6, r6, r3
    8228:	e7bf      	b.n	81aa <critical_factorization+0xe>
    822a:	d009      	beq.n	8240 <critical_factorization+0xa4>
    822c:	f04f 0901 	mov.w	r9, #1
    8230:	46b4      	mov	ip, r6
    8232:	464d      	mov	r5, r9
    8234:	444e      	add	r6, r9
    8236:	e7d2      	b.n	81de <critical_factorization+0x42>
    8238:	429d      	cmp	r5, r3
    823a:	d005      	beq.n	8248 <critical_factorization+0xac>
    823c:	3501      	adds	r5, #1
    823e:	e7b4      	b.n	81aa <critical_factorization+0xe>
    8240:	454d      	cmp	r5, r9
    8242:	d005      	beq.n	8250 <critical_factorization+0xb4>
    8244:	3501      	adds	r5, #1
    8246:	e7ca      	b.n	81de <critical_factorization+0x42>
    8248:	462b      	mov	r3, r5
    824a:	4626      	mov	r6, r4
    824c:	2501      	movs	r5, #1
    824e:	e7ac      	b.n	81aa <critical_factorization+0xe>
    8250:	46a9      	mov	r9, r5
    8252:	4626      	mov	r6, r4
    8254:	2501      	movs	r5, #1
    8256:	e7c2      	b.n	81de <critical_factorization+0x42>

00008258 <two_way_long_needle>:
    8258:	e92d 4ff0 	stmdb	sp!, {r4, r5, r6, r7, r8, r9, sl, fp, lr}
    825c:	f5ad 6d82 	sub.w	sp, sp, #1040	; 0x410
    8260:	b081      	sub	sp, #4
    8262:	4614      	mov	r4, r2
    8264:	4607      	mov	r7, r0
    8266:	4610      	mov	r0, r2
    8268:	f50d 6280 	add.w	r2, sp, #1024	; 0x400
    826c:	320c      	adds	r2, #12
    826e:	468b      	mov	fp, r1
    8270:	4619      	mov	r1, r3
    8272:	461d      	mov	r5, r3
    8274:	f7ff ff92 	bl	819c <critical_factorization>
    8278:	ae04      	add	r6, sp, #16
    827a:	a903      	add	r1, sp, #12
    827c:	9000      	str	r0, [sp, #0]
    827e:	1f0b      	subs	r3, r1, #4
    8280:	f506 727e 	add.w	r2, r6, #1016	; 0x3f8
    8284:	f843 5f04 	str.w	r5, [r3, #4]!
    8288:	4293      	cmp	r3, r2
    828a:	d1fb      	bne.n	8284 <two_way_long_needle+0x2c>
    828c:	b14d      	cbz	r5, 82a2 <two_way_long_needle+0x4a>
    828e:	1e68      	subs	r0, r5, #1
    8290:	2300      	movs	r3, #0
    8292:	5ce2      	ldrb	r2, [r4, r3]
    8294:	1ac1      	subs	r1, r0, r3
    8296:	3301      	adds	r3, #1
    8298:	ae03      	add	r6, sp, #12
    829a:	42ab      	cmp	r3, r5
    829c:	f846 1022 	str.w	r1, [r6, r2, lsl #2]
    82a0:	d1f7      	bne.n	8292 <two_way_long_needle+0x3a>
    82a2:	f8dd 140c 	ldr.w	r1, [sp, #1036]	; 0x40c
    82a6:	4620      	mov	r0, r4
    82a8:	1861      	adds	r1, r4, r1
    82aa:	9a00      	ldr	r2, [sp, #0]
    82ac:	f7ff fca8 	bl	7c00 <memcmp>
    82b0:	2800      	cmp	r0, #0
    82b2:	d177      	bne.n	83a4 <two_way_long_needle+0x14c>
    82b4:	9900      	ldr	r1, [sp, #0]
    82b6:	4681      	mov	r9, r0
    82b8:	f1c1 0201 	rsb	r2, r1, #1
    82bc:	9201      	str	r2, [sp, #4]
    82be:	465a      	mov	r2, fp
    82c0:	46ab      	mov	fp, r5
    82c2:	f105 38ff 	add.w	r8, r5, #4294967295
    82c6:	eb09 050b 	add.w	r5, r9, fp
    82ca:	4606      	mov	r6, r0
    82cc:	f101 3aff 	add.w	sl, r1, #4294967295
    82d0:	18b8      	adds	r0, r7, r2
    82d2:	2100      	movs	r1, #0
    82d4:	1aaa      	subs	r2, r5, r2
    82d6:	f000 f9df 	bl	8698 <memchr>
    82da:	2800      	cmp	r0, #0
    82dc:	d14f      	bne.n	837e <two_way_long_needle+0x126>
    82de:	2d00      	cmp	r5, #0
    82e0:	f000 80bf 	beq.w	8462 <two_way_long_needle+0x20a>
    82e4:	197b      	adds	r3, r7, r5
    82e6:	f813 3c01 	ldrb.w	r3, [r3, #-1]
    82ea:	a903      	add	r1, sp, #12
    82ec:	f851 3023 	ldr.w	r3, [r1, r3, lsl #2]
    82f0:	2b00      	cmp	r3, #0
    82f2:	d14c      	bne.n	838e <two_way_long_needle+0x136>
    82f4:	9b00      	ldr	r3, [sp, #0]
    82f6:	429e      	cmp	r6, r3
    82f8:	bf28      	it	cs
    82fa:	4633      	movcs	r3, r6
    82fc:	4598      	cmp	r8, r3
    82fe:	d90f      	bls.n	8320 <two_way_long_needle+0xc8>
    8300:	eb03 0209 	add.w	r2, r3, r9
    8304:	5cb9      	ldrb	r1, [r7, r2]
    8306:	5ce0      	ldrb	r0, [r4, r3]
    8308:	18ba      	adds	r2, r7, r2
    830a:	4288      	cmp	r0, r1
    830c:	d005      	beq.n	831a <two_way_long_needle+0xc2>
    830e:	e038      	b.n	8382 <two_way_long_needle+0x12a>
    8310:	f812 1f01 	ldrb.w	r1, [r2, #1]!
    8314:	5ce0      	ldrb	r0, [r4, r3]
    8316:	4288      	cmp	r0, r1
    8318:	d133      	bne.n	8382 <two_way_long_needle+0x12a>
    831a:	3301      	adds	r3, #1
    831c:	4598      	cmp	r8, r3
    831e:	d8f7      	bhi.n	8310 <two_way_long_needle+0xb8>
    8320:	9a00      	ldr	r2, [sp, #0]
    8322:	4296      	cmp	r6, r2
    8324:	f080 80a3 	bcs.w	846e <two_way_long_needle+0x216>
    8328:	eb07 0309 	add.w	r3, r7, r9
    832c:	f813 200a 	ldrb.w	r2, [r3, sl]
    8330:	f814 100a 	ldrb.w	r1, [r4, sl]
    8334:	4653      	mov	r3, sl
    8336:	4291      	cmp	r1, r2
    8338:	f040 8099 	bne.w	846e <two_way_long_needle+0x216>
    833c:	eb0a 0109 	add.w	r1, sl, r9
    8340:	1879      	adds	r1, r7, r1
    8342:	e006      	b.n	8352 <two_way_long_needle+0xfa>
    8344:	f814 c002 	ldrb.w	ip, [r4, r2]
    8348:	f811 0d01 	ldrb.w	r0, [r1, #-1]!
    834c:	4584      	cmp	ip, r0
    834e:	d103      	bne.n	8358 <two_way_long_needle+0x100>
    8350:	4613      	mov	r3, r2
    8352:	1e5a      	subs	r2, r3, #1
    8354:	42b3      	cmp	r3, r6
    8356:	d1f5      	bne.n	8344 <two_way_long_needle+0xec>
    8358:	3601      	adds	r6, #1
    835a:	429e      	cmp	r6, r3
    835c:	f200 808c 	bhi.w	8478 <two_way_long_needle+0x220>
    8360:	f8dd 640c 	ldr.w	r6, [sp, #1036]	; 0x40c
    8364:	462a      	mov	r2, r5
    8366:	44b1      	add	r9, r6
    8368:	ebc6 060b 	rsb	r6, r6, fp
    836c:	eb09 050b 	add.w	r5, r9, fp
    8370:	18b8      	adds	r0, r7, r2
    8372:	2100      	movs	r1, #0
    8374:	1aaa      	subs	r2, r5, r2
    8376:	f000 f98f 	bl	8698 <memchr>
    837a:	2800      	cmp	r0, #0
    837c:	d0af      	beq.n	82de <two_way_long_needle+0x86>
    837e:	2000      	movs	r0, #0
    8380:	e070      	b.n	8464 <two_way_long_needle+0x20c>
    8382:	9a01      	ldr	r2, [sp, #4]
    8384:	2600      	movs	r6, #0
    8386:	4491      	add	r9, r2
    8388:	4499      	add	r9, r3
    838a:	462a      	mov	r2, r5
    838c:	e7ee      	b.n	836c <two_way_long_needle+0x114>
    838e:	b136      	cbz	r6, 839e <two_way_long_needle+0x146>
    8390:	f8dd 240c 	ldr.w	r2, [sp, #1036]	; 0x40c
    8394:	4293      	cmp	r3, r2
    8396:	bf3c      	itt	cc
    8398:	ebc2 030b 	rsbcc	r3, r2, fp
    839c:	4606      	movcc	r6, r0
    839e:	4499      	add	r9, r3
    83a0:	462a      	mov	r2, r5
    83a2:	e7e3      	b.n	836c <two_way_long_needle+0x114>
    83a4:	9e00      	ldr	r6, [sp, #0]
    83a6:	9900      	ldr	r1, [sp, #0]
    83a8:	1bab      	subs	r3, r5, r6
    83aa:	42b3      	cmp	r3, r6
    83ac:	bf38      	it	cc
    83ae:	4633      	movcc	r3, r6
    83b0:	f1c1 0201 	rsb	r2, r1, #1
    83b4:	3301      	adds	r3, #1
    83b6:	9201      	str	r2, [sp, #4]
    83b8:	f8cd 340c 	str.w	r3, [sp, #1036]	; 0x40c
    83bc:	465a      	mov	r2, fp
    83be:	f04f 0800 	mov.w	r8, #0
    83c2:	1e6e      	subs	r6, r5, #1
    83c4:	f101 3aff 	add.w	sl, r1, #4294967295
    83c8:	4689      	mov	r9, r1
    83ca:	46ab      	mov	fp, r5
    83cc:	eb08 050b 	add.w	r5, r8, fp
    83d0:	18b8      	adds	r0, r7, r2
    83d2:	2100      	movs	r1, #0
    83d4:	1aaa      	subs	r2, r5, r2
    83d6:	f000 f95f 	bl	8698 <memchr>
    83da:	2800      	cmp	r0, #0
    83dc:	d1cf      	bne.n	837e <two_way_long_needle+0x126>
    83de:	2d00      	cmp	r5, #0
    83e0:	d03f      	beq.n	8462 <two_way_long_needle+0x20a>
    83e2:	197b      	adds	r3, r7, r5
    83e4:	f813 3c01 	ldrb.w	r3, [r3, #-1]
    83e8:	a903      	add	r1, sp, #12
    83ea:	f851 3023 	ldr.w	r3, [r1, r3, lsl #2]
    83ee:	2b00      	cmp	r3, #0
    83f0:	d12e      	bne.n	8450 <two_way_long_needle+0x1f8>
    83f2:	45b1      	cmp	r9, r6
    83f4:	d211      	bcs.n	841a <two_way_long_needle+0x1c2>
    83f6:	eb08 0209 	add.w	r2, r8, r9
    83fa:	5cbb      	ldrb	r3, [r7, r2]
    83fc:	f814 1009 	ldrb.w	r1, [r4, r9]
    8400:	18ba      	adds	r2, r7, r2
    8402:	4299      	cmp	r1, r3
    8404:	d127      	bne.n	8456 <two_way_long_needle+0x1fe>
    8406:	464b      	mov	r3, r9
    8408:	e004      	b.n	8414 <two_way_long_needle+0x1bc>
    840a:	f812 1f01 	ldrb.w	r1, [r2, #1]!
    840e:	5ce0      	ldrb	r0, [r4, r3]
    8410:	4288      	cmp	r0, r1
    8412:	d121      	bne.n	8458 <two_way_long_needle+0x200>
    8414:	3301      	adds	r3, #1
    8416:	42b3      	cmp	r3, r6
    8418:	d3f7      	bcc.n	840a <two_way_long_needle+0x1b2>
    841a:	f1ba 3fff 	cmp.w	sl, #4294967295
    841e:	4653      	mov	r3, sl
    8420:	d02d      	beq.n	847e <two_way_long_needle+0x226>
    8422:	eb07 0c08 	add.w	ip, r7, r8
    8426:	f814 100a 	ldrb.w	r1, [r4, sl]
    842a:	f81c 200a 	ldrb.w	r2, [ip, sl]
    842e:	4291      	cmp	r1, r2
    8430:	d10c      	bne.n	844c <two_way_long_needle+0x1f4>
    8432:	eb0a 0208 	add.w	r2, sl, r8
    8436:	18ba      	adds	r2, r7, r2
    8438:	e004      	b.n	8444 <two_way_long_needle+0x1ec>
    843a:	5ce0      	ldrb	r0, [r4, r3]
    843c:	f812 1d01 	ldrb.w	r1, [r2, #-1]!
    8440:	4288      	cmp	r0, r1
    8442:	d103      	bne.n	844c <two_way_long_needle+0x1f4>
    8444:	3b01      	subs	r3, #1
    8446:	d2f8      	bcs.n	843a <two_way_long_needle+0x1e2>
    8448:	4660      	mov	r0, ip
    844a:	e00b      	b.n	8464 <two_way_long_needle+0x20c>
    844c:	f8dd 340c 	ldr.w	r3, [sp, #1036]	; 0x40c
    8450:	4498      	add	r8, r3
    8452:	462a      	mov	r2, r5
    8454:	e7ba      	b.n	83cc <two_way_long_needle+0x174>
    8456:	464b      	mov	r3, r9
    8458:	9901      	ldr	r1, [sp, #4]
    845a:	462a      	mov	r2, r5
    845c:	4488      	add	r8, r1
    845e:	4498      	add	r8, r3
    8460:	e7b4      	b.n	83cc <two_way_long_needle+0x174>
    8462:	4628      	mov	r0, r5
    8464:	b005      	add	sp, #20
    8466:	f50d 6d80 	add.w	sp, sp, #1024	; 0x400
    846a:	e8bd 8ff0 	ldmia.w	sp!, {r4, r5, r6, r7, r8, r9, sl, fp, pc}
    846e:	9b00      	ldr	r3, [sp, #0]
    8470:	3601      	adds	r6, #1
    8472:	429e      	cmp	r6, r3
    8474:	f67f af74 	bls.w	8360 <two_way_long_needle+0x108>
    8478:	eb07 0009 	add.w	r0, r7, r9
    847c:	e7f2      	b.n	8464 <two_way_long_needle+0x20c>
    847e:	eb07 0c08 	add.w	ip, r7, r8
    8482:	4660      	mov	r0, ip
    8484:	e7ee      	b.n	8464 <two_way_long_needle+0x20c>
    8486:	bf00      	nop

00008488 <strstr>:
    8488:	e92d 4ff0 	stmdb	sp!, {r4, r5, r6, r7, r8, r9, sl, fp, lr}
    848c:	7803      	ldrb	r3, [r0, #0]
    848e:	b085      	sub	sp, #20
    8490:	4683      	mov	fp, r0
    8492:	460c      	mov	r4, r1
    8494:	2b00      	cmp	r3, #0
    8496:	f000 80f1 	beq.w	867c <strstr+0x1f4>
    849a:	780a      	ldrb	r2, [r1, #0]
    849c:	b19a      	cbz	r2, 84c6 <strstr+0x3e>
    849e:	3101      	adds	r1, #1
    84a0:	2601      	movs	r6, #1
    84a2:	e002      	b.n	84aa <strstr+0x22>
    84a4:	f811 2b01 	ldrb.w	r2, [r1], #1
    84a8:	b18a      	cbz	r2, 84ce <strstr+0x46>
    84aa:	4293      	cmp	r3, r2
    84ac:	bf14      	ite	ne
    84ae:	2600      	movne	r6, #0
    84b0:	f006 0601 	andeq.w	r6, r6, #1
    84b4:	f810 3f01 	ldrb.w	r3, [r0, #1]!
    84b8:	460d      	mov	r5, r1
    84ba:	2b00      	cmp	r3, #0
    84bc:	d1f2      	bne.n	84a4 <strstr+0x1c>
    84be:	782b      	ldrb	r3, [r5, #0]
    84c0:	b12b      	cbz	r3, 84ce <strstr+0x46>
    84c2:	f04f 0b00 	mov.w	fp, #0
    84c6:	4658      	mov	r0, fp
    84c8:	b005      	add	sp, #20
    84ca:	e8bd 8ff0 	ldmia.w	sp!, {r4, r5, r6, r7, r8, r9, sl, fp, pc}
    84ce:	2e00      	cmp	r6, #0
    84d0:	d1f9      	bne.n	84c6 <strstr+0x3e>
    84d2:	f10b 0001 	add.w	r0, fp, #1
    84d6:	7821      	ldrb	r1, [r4, #0]
    84d8:	f7ff fc5a 	bl	7d90 <strchr>
    84dc:	4607      	mov	r7, r0
    84de:	2800      	cmp	r0, #0
    84e0:	f000 80d1 	beq.w	8686 <strstr+0x1fe>
    84e4:	1b2d      	subs	r5, r5, r4
    84e6:	2d01      	cmp	r5, #1
    84e8:	d066      	beq.n	85b8 <strstr+0x130>
    84ea:	eb0b 0805 	add.w	r8, fp, r5
    84ee:	4540      	cmp	r0, r8
    84f0:	bf94      	ite	ls
    84f2:	ebc0 0808 	rsbls	r8, r0, r8
    84f6:	f04f 0801 	movhi.w	r8, #1
    84fa:	2d1f      	cmp	r5, #31
    84fc:	d906      	bls.n	850c <strstr+0x84>
    84fe:	4641      	mov	r1, r8
    8500:	4622      	mov	r2, r4
    8502:	462b      	mov	r3, r5
    8504:	f7ff fea8 	bl	8258 <two_way_long_needle>
    8508:	4683      	mov	fp, r0
    850a:	e7dc      	b.n	84c6 <strstr+0x3e>
    850c:	4629      	mov	r1, r5
    850e:	aa03      	add	r2, sp, #12
    8510:	4620      	mov	r0, r4
    8512:	f7ff fe43 	bl	819c <critical_factorization>
    8516:	9903      	ldr	r1, [sp, #12]
    8518:	4681      	mov	r9, r0
    851a:	1861      	adds	r1, r4, r1
    851c:	4620      	mov	r0, r4
    851e:	464a      	mov	r2, r9
    8520:	f7ff fb6e 	bl	7c00 <memcmp>
    8524:	2800      	cmp	r0, #0
    8526:	d049      	beq.n	85bc <strstr+0x134>
    8528:	ebc9 0305 	rsb	r3, r9, r5
    852c:	454b      	cmp	r3, r9
    852e:	bf38      	it	cc
    8530:	464b      	movcc	r3, r9
    8532:	3301      	adds	r3, #1
    8534:	9303      	str	r3, [sp, #12]
    8536:	f1c9 0301 	rsb	r3, r9, #1
    853a:	4642      	mov	r2, r8
    853c:	2600      	movs	r6, #0
    853e:	f109 3aff 	add.w	sl, r9, #4294967295
    8542:	4698      	mov	r8, r3
    8544:	eb06 0b05 	add.w	fp, r6, r5
    8548:	18b8      	adds	r0, r7, r2
    854a:	2100      	movs	r1, #0
    854c:	ebc2 020b 	rsb	r2, r2, fp
    8550:	f000 f8a2 	bl	8698 <memchr>
    8554:	2800      	cmp	r0, #0
    8556:	d1b4      	bne.n	84c2 <strstr+0x3a>
    8558:	f1bb 0f00 	cmp.w	fp, #0
    855c:	d0b3      	beq.n	84c6 <strstr+0x3e>
    855e:	454d      	cmp	r5, r9
    8560:	d911      	bls.n	8586 <strstr+0xfe>
    8562:	eb06 0209 	add.w	r2, r6, r9
    8566:	5cbb      	ldrb	r3, [r7, r2]
    8568:	f814 1009 	ldrb.w	r1, [r4, r9]
    856c:	18ba      	adds	r2, r7, r2
    856e:	4299      	cmp	r1, r3
    8570:	d17b      	bne.n	866a <strstr+0x1e2>
    8572:	464b      	mov	r3, r9
    8574:	e004      	b.n	8580 <strstr+0xf8>
    8576:	f812 1f01 	ldrb.w	r1, [r2, #1]!
    857a:	5ce0      	ldrb	r0, [r4, r3]
    857c:	4288      	cmp	r0, r1
    857e:	d175      	bne.n	866c <strstr+0x1e4>
    8580:	3301      	adds	r3, #1
    8582:	429d      	cmp	r5, r3
    8584:	d1f7      	bne.n	8576 <strstr+0xee>
    8586:	f1ba 3fff 	cmp.w	sl, #4294967295
    858a:	4653      	mov	r3, sl
    858c:	d07d      	beq.n	868a <strstr+0x202>
    858e:	eb07 0c06 	add.w	ip, r7, r6
    8592:	f814 100a 	ldrb.w	r1, [r4, sl]
    8596:	f81c 200a 	ldrb.w	r2, [ip, sl]
    859a:	4291      	cmp	r1, r2
    859c:	d16a      	bne.n	8674 <strstr+0x1ec>
    859e:	eb0a 0206 	add.w	r2, sl, r6
    85a2:	18ba      	adds	r2, r7, r2
    85a4:	e004      	b.n	85b0 <strstr+0x128>
    85a6:	5ce0      	ldrb	r0, [r4, r3]
    85a8:	f812 1d01 	ldrb.w	r1, [r2, #-1]!
    85ac:	4288      	cmp	r0, r1
    85ae:	d161      	bne.n	8674 <strstr+0x1ec>
    85b0:	3b01      	subs	r3, #1
    85b2:	d2f8      	bcs.n	85a6 <strstr+0x11e>
    85b4:	46e3      	mov	fp, ip
    85b6:	e786      	b.n	84c6 <strstr+0x3e>
    85b8:	4683      	mov	fp, r0
    85ba:	e784      	b.n	84c6 <strstr+0x3e>
    85bc:	f1c9 0201 	rsb	r2, r9, #1
    85c0:	f109 33ff 	add.w	r3, r9, #4294967295
    85c4:	9201      	str	r2, [sp, #4]
    85c6:	4606      	mov	r6, r0
    85c8:	4642      	mov	r2, r8
    85ca:	4682      	mov	sl, r0
    85cc:	46c8      	mov	r8, r9
    85ce:	4699      	mov	r9, r3
    85d0:	eb0a 0b05 	add.w	fp, sl, r5
    85d4:	18b8      	adds	r0, r7, r2
    85d6:	2100      	movs	r1, #0
    85d8:	ebc2 020b 	rsb	r2, r2, fp
    85dc:	f000 f85c 	bl	8698 <memchr>
    85e0:	2800      	cmp	r0, #0
    85e2:	f47f af6e 	bne.w	84c2 <strstr+0x3a>
    85e6:	f1bb 0f00 	cmp.w	fp, #0
    85ea:	f43f af6c 	beq.w	84c6 <strstr+0x3e>
    85ee:	4546      	cmp	r6, r8
    85f0:	bf2c      	ite	cs
    85f2:	4633      	movcs	r3, r6
    85f4:	4643      	movcc	r3, r8
    85f6:	429d      	cmp	r5, r3
    85f8:	d90f      	bls.n	861a <strstr+0x192>
    85fa:	eb03 020a 	add.w	r2, r3, sl
    85fe:	5cb9      	ldrb	r1, [r7, r2]
    8600:	5ce0      	ldrb	r0, [r4, r3]
    8602:	18ba      	adds	r2, r7, r2
    8604:	4288      	cmp	r0, r1
    8606:	d005      	beq.n	8614 <strstr+0x18c>
    8608:	e029      	b.n	865e <strstr+0x1d6>
    860a:	f812 1f01 	ldrb.w	r1, [r2, #1]!
    860e:	5ce0      	ldrb	r0, [r4, r3]
    8610:	4288      	cmp	r0, r1
    8612:	d124      	bne.n	865e <strstr+0x1d6>
    8614:	3301      	adds	r3, #1
    8616:	429d      	cmp	r5, r3
    8618:	d1f7      	bne.n	860a <strstr+0x182>
    861a:	45b0      	cmp	r8, r6
    861c:	d931      	bls.n	8682 <strstr+0x1fa>
    861e:	eb07 030a 	add.w	r3, r7, sl
    8622:	f813 2009 	ldrb.w	r2, [r3, r9]
    8626:	f814 1009 	ldrb.w	r1, [r4, r9]
    862a:	464b      	mov	r3, r9
    862c:	4291      	cmp	r1, r2
    862e:	d128      	bne.n	8682 <strstr+0x1fa>
    8630:	eb09 010a 	add.w	r1, r9, sl
    8634:	1879      	adds	r1, r7, r1
    8636:	46ac      	mov	ip, r5
    8638:	e005      	b.n	8646 <strstr+0x1be>
    863a:	5ca5      	ldrb	r5, [r4, r2]
    863c:	f811 0d01 	ldrb.w	r0, [r1, #-1]!
    8640:	4285      	cmp	r5, r0
    8642:	d103      	bne.n	864c <strstr+0x1c4>
    8644:	4613      	mov	r3, r2
    8646:	1e5a      	subs	r2, r3, #1
    8648:	42b3      	cmp	r3, r6
    864a:	d1f6      	bne.n	863a <strstr+0x1b2>
    864c:	4665      	mov	r5, ip
    864e:	3601      	adds	r6, #1
    8650:	429e      	cmp	r6, r3
    8652:	d81e      	bhi.n	8692 <strstr+0x20a>
    8654:	9e03      	ldr	r6, [sp, #12]
    8656:	465a      	mov	r2, fp
    8658:	44b2      	add	sl, r6
    865a:	1bae      	subs	r6, r5, r6
    865c:	e7b8      	b.n	85d0 <strstr+0x148>
    865e:	9a01      	ldr	r2, [sp, #4]
    8660:	2600      	movs	r6, #0
    8662:	4492      	add	sl, r2
    8664:	449a      	add	sl, r3
    8666:	465a      	mov	r2, fp
    8668:	e7b2      	b.n	85d0 <strstr+0x148>
    866a:	464b      	mov	r3, r9
    866c:	4446      	add	r6, r8
    866e:	18f6      	adds	r6, r6, r3
    8670:	465a      	mov	r2, fp
    8672:	e767      	b.n	8544 <strstr+0xbc>
    8674:	9b03      	ldr	r3, [sp, #12]
    8676:	465a      	mov	r2, fp
    8678:	18f6      	adds	r6, r6, r3
    867a:	e763      	b.n	8544 <strstr+0xbc>
    867c:	460d      	mov	r5, r1
    867e:	2601      	movs	r6, #1
    8680:	e71d      	b.n	84be <strstr+0x36>
    8682:	4643      	mov	r3, r8
    8684:	e7e3      	b.n	864e <strstr+0x1c6>
    8686:	46b3      	mov	fp, r6
    8688:	e71d      	b.n	84c6 <strstr+0x3e>
    868a:	eb07 0c06 	add.w	ip, r7, r6
    868e:	46e3      	mov	fp, ip
    8690:	e719      	b.n	84c6 <strstr+0x3e>
    8692:	eb07 0b0a 	add.w	fp, r7, sl
    8696:	e716      	b.n	84c6 <strstr+0x3e>

00008698 <memchr>:
    8698:	f010 0f03 	tst.w	r0, #3
    869c:	b470      	push	{r4, r5, r6}
    869e:	4603      	mov	r3, r0
    86a0:	b2c9      	uxtb	r1, r1
    86a2:	d011      	beq.n	86c8 <memchr+0x30>
    86a4:	2a00      	cmp	r2, #0
    86a6:	d022      	beq.n	86ee <memchr+0x56>
    86a8:	7803      	ldrb	r3, [r0, #0]
    86aa:	428b      	cmp	r3, r1
    86ac:	d01d      	beq.n	86ea <memchr+0x52>
    86ae:	3a01      	subs	r2, #1
    86b0:	3001      	adds	r0, #1
    86b2:	e005      	b.n	86c0 <memchr+0x28>
    86b4:	b1da      	cbz	r2, 86ee <memchr+0x56>
    86b6:	f810 4b01 	ldrb.w	r4, [r0], #1
    86ba:	3a01      	subs	r2, #1
    86bc:	428c      	cmp	r4, r1
    86be:	d018      	beq.n	86f2 <memchr+0x5a>
    86c0:	f010 0f03 	tst.w	r0, #3
    86c4:	4603      	mov	r3, r0
    86c6:	d1f5      	bne.n	86b4 <memchr+0x1c>
    86c8:	2a03      	cmp	r2, #3
    86ca:	d814      	bhi.n	86f6 <memchr+0x5e>
    86cc:	b17a      	cbz	r2, 86ee <memchr+0x56>
    86ce:	7818      	ldrb	r0, [r3, #0]
    86d0:	4288      	cmp	r0, r1
    86d2:	d00e      	beq.n	86f2 <memchr+0x5a>
    86d4:	1e54      	subs	r4, r2, #1
    86d6:	1c5d      	adds	r5, r3, #1
    86d8:	e003      	b.n	86e2 <memchr+0x4a>
    86da:	f815 6b01 	ldrb.w	r6, [r5], #1
    86de:	428e      	cmp	r6, r1
    86e0:	d003      	beq.n	86ea <memchr+0x52>
    86e2:	3c01      	subs	r4, #1
    86e4:	4628      	mov	r0, r5
    86e6:	d2f8      	bcs.n	86da <memchr+0x42>
    86e8:	2000      	movs	r0, #0
    86ea:	bc70      	pop	{r4, r5, r6}
    86ec:	4770      	bx	lr
    86ee:	4610      	mov	r0, r2
    86f0:	e7fb      	b.n	86ea <memchr+0x52>
    86f2:	4618      	mov	r0, r3
    86f4:	e7f9      	b.n	86ea <memchr+0x52>
    86f6:	ea41 2601 	orr.w	r6, r1, r1, lsl #8
    86fa:	ea46 4606 	orr.w	r6, r6, r6, lsl #16
    86fe:	4618      	mov	r0, r3
    8700:	f853 4b04 	ldr.w	r4, [r3], #4
    8704:	ea86 0404 	eor.w	r4, r6, r4
    8708:	f1a4 3501 	sub.w	r5, r4, #16843009	; 0x1010101
    870c:	ea25 0404 	bic.w	r4, r5, r4
    8710:	f014 3f80 	tst.w	r4, #2155905152	; 0x80808080
    8714:	d103      	bne.n	871e <memchr+0x86>
    8716:	3a04      	subs	r2, #4
    8718:	2a03      	cmp	r2, #3
    871a:	4618      	mov	r0, r3
    871c:	d8ef      	bhi.n	86fe <memchr+0x66>
    871e:	4603      	mov	r3, r0
    8720:	e7d4      	b.n	86cc <memchr+0x34>
    8722:	bf00      	nop
    8724:	7265702f 	.word	0x7265702f
    8728:	2e726f72 	.word	0x2e726f72
    872c:	006d7468 	.word	0x006d7468
    8730:	5f6f692f 	.word	0x5f6f692f
    8734:	2e696763 	.word	0x2e696763
    8738:	00697373 	.word	0x00697373
    873c:	70736944 	.word	0x70736944
    8740:	74786554 	.word	0x74786554
    8744:	09090900 	.word	0x09090900
    8748:	20200909 	.word	0x20200909
    874c:	44454c00 	.word	0x44454c00
    8750:	50006e4f 	.word	0x50006e4f
    8754:	6e4f4d57 	.word	0x6e4f4d57
    8758:	4d575000 	.word	0x4d575000
    875c:	79747544 	.word	0x79747544
    8760:	6c637943 	.word	0x6c637943
    8764:	57500065 	.word	0x57500065
    8768:	6572464d 	.word	0x6572464d
    876c:	6e657571 	.word	0x6e657571
    8770:	25007963 	.word	0x25007963
    8774:	3d737073 	.word	0x3d737073
    8778:	0a3b6425 	.word	0x0a3b6425
    877c:	253d736c 	.word	0x253d736c
    8780:	700a3b64 	.word	0x700a3b64
    8784:	64253d66 	.word	0x64253d66
    8788:	64700a3b 	.word	0x64700a3b
    878c:	3b64253d 	.word	0x3b64253d
    8790:	0073250a 	.word	0x0073250a
    8794:	7263733c 	.word	0x7263733c
    8798:	20747069 	.word	0x20747069
    879c:	65707974 	.word	0x65707974
    87a0:	6574273d 	.word	0x6574273d
    87a4:	6a2f7478 	.word	0x6a2f7478
    87a8:	73617661 	.word	0x73617661
    87ac:	70697263 	.word	0x70697263
    87b0:	6c202774 	.word	0x6c202774
    87b4:	75676e61 	.word	0x75676e61
    87b8:	3d656761 	.word	0x3d656761
    87bc:	76614a27 	.word	0x76614a27
    87c0:	72635361 	.word	0x72635361
    87c4:	27747069 	.word	0x27747069
    87c8:	2d213c3e 	.word	0x2d213c3e
    87cc:	2f000a2d 	.word	0x2f000a2d
    87d0:	3e2d2d2f 	.word	0x3e2d2d2f
    87d4:	63732f3c 	.word	0x63732f3c
    87d8:	74706972 	.word	0x74706972
    87dc:	3f000a3e 	.word	0x3f000a3e
    87e0:	6425003f 	.word	0x6425003f
    87e4:	2e64252e 	.word	0x2e64252e
    87e8:	252e6425 	.word	0x252e6425
    87ec:	3e200064 	.word	0x3e200064
    87f0:	00203c00 	.word	0x00203c00
    87f4:	09002a20 	.word	0x09002a20
    87f8:	09090909 	.word	0x09090909
    87fc:	00202020 	.word	0x00202020
    8800:	203a5049 	.word	0x203a5049
    8804:	4d002020 	.word	0x4d002020
    8808:	3a4b5341 	.word	0x3a4b5341
    880c:	57470020 	.word	0x57470020
    8810:	2020203a 	.word	0x2020203a
    8814:	62655700 	.word	0x62655700
    8818:	7361422d 	.word	0x7361422d
    881c:	49206465 	.word	0x49206465
    8820:	43204f2f 	.word	0x43204f2f
    8824:	72746e6f 	.word	0x72746e6f
    8828:	42006c6f 	.word	0x42006c6f
    882c:	73776f72 	.word	0x73776f72
    8830:	4d207265 	.word	0x4d207265
    8834:	61737365 	.word	0x61737365
    8838:	003a6567 	.word	0x003a6567
    883c:	4c2d4b45 	.word	0x4c2d4b45
    8840:	3853334d 	.word	0x3853334d
    8844:	20323639 	.word	0x20323639
    8848:	74656e65 	.word	0x74656e65
    884c:	006f695f 	.word	0x006f695f
    8850:	7444454c 	.word	0x7444454c
    8854:	50007478 	.word	0x50007478
    8858:	78744d57 	.word	0x78744d57
    885c:	57500074 	.word	0x57500074
    8860:	6572664d 	.word	0x6572664d
    8864:	57500071 	.word	0x57500071
    8868:	7475644d 	.word	0x7475644d
    886c:	6f460079 	.word	0x6f460079
    8870:	61566d72 	.word	0x61566d72
    8874:	2f007372 	.word	0x2f007372
    8878:	6f636f69 	.word	0x6f636f69
    887c:	6f72746e 	.word	0x6f72746e
    8880:	67632e6c 	.word	0x67632e6c
    8884:	732f0069 	.word	0x732f0069
    8888:	78747465 	.word	0x78747465
    888c:	67632e74 	.word	0x67632e74
    8890:	00000069 	.word	0x00000069

00008894 <g_psConfigCGIURIs>:
    8894:	00008877 000001b9 00008886 00000155     w...........U...

000088a4 <pucCommand2.4108>:
    88a4:	007f0075                                         u..

000088a7 <g_pucFont>:
    88a7:	00000000 4f000000 07000000 14000700     .......O........
    88b7:	147f147f 2a7f2a24 08132312 49366264     ....$*.*.#..db6I
    88c7:	00502255 00000305 41221c00 22410000     U"P......."A..A"
    88d7:	0814001c 0814083e 08083e08 00305000     ....>....>...P0.
    88e7:	08080800 60000808 20000060 02040810     .......``.. ....
    88f7:	4549513e 7f42003e 61420040 21464951     >QIE>.B.@.BaQIF!
    8907:	314b4541 7f121418 45452710 4a3c3945     AEK1.....'EEE9<J
    8917:	01304949 03050971 49494936 49490636     II0.q...6III6.II
    8927:	36001e29 00000036 00003656 41221408     )..66...V6...."A
    8937:	14141400 41001414 02081422 06095101     .......A"....Q..
    8947:	41794932 11117e3e 497f7e11 3e364949     2IyA>~...~.III6>
    8957:	22414141 2241417f 49497f1c 097f4149     AAA".AA"..IIIA..
    8967:	3e010909 7a494941 0808087f 7f41007f     ...>AIIz......A.
    8977:	40200041 7f013f41 41221408 4040407f     A. @A?...."A.@@@
    8987:	0c027f40 047f7f02 3e7f1008 3e414141     @..........>AAA>
    8997:	0909097f 51413e06 097f5e21 46462919     .....>AQ!^...)FF
    89a7:	31494949 017f0101 40403f01 201f3f40     III1.....?@@@?. 
    89b7:	3f1f2040 3f403840 14081463 70080763     @ .?@8@?c...c..p
    89c7:	51610708 00434549 0041417f 10080402     ..aQIEC..AA.....
    89d7:	41410020 0204007f 40040201 40404040      .AA.......@@@@@
    89e7:	04020100 54542000 487f7854 38384444     ..... TTTx.HDD88
    89f7:	20444444 48444438 5454387f 7e081854     DDD 8DDH.8TTT..~
    8a07:	0c020109 3e525252 0404087f 7d440078     ....RRR>....x.D}
    8a17:	40200040 7f003d44 00442810 407f4100     @. @D=...(D..A.@
    8a27:	18047c00 087c7804 38780404 38444444     .|...x|...x8DDD8
    8a37:	1414147c 14140808 087c7c18 48080404     |........||....H
    8a47:	20545454 40443f04 40403c20 201c7c20     TTT .?D@ <@@ |. 
    8a57:	3c1c2040 3c403040 28102844 50500c44     @ .<@0@<D(.(D.PP
    8a67:	64443c50 00444c54 00413608 007f0000     P<DdTLD..6A.....
    8a77:	36410000 01020008 00020402 00000000     ..A6............

00008a87 <g_pucRIT128x96x4HorizontalInc>:
    8a87:	56a052a0                                         .R

00008a89 <g_pucRIT128x96x4VerticalInc>:
    8a89:	001556a0                                         .V

00008a8b <pucCommand1.4107>:
    8a8b:	033f0015                                         ..?

00008a8e <g_pucRIT128x96x4Init>:
    8a8e:	e312fd03 03e3ae02 03e30094 03e35fa8     ............._..
    8a9e:	03e3b781 03e33f82 03e352a0 03e300a1     .....?...R......
    8aae:	02e300a2 b103e3a4 b203e311 b303e323     ............#...
    8abe:	b811e3e2 04030201 0a080605 13100e0c     ................
    8ace:	e31e1a16 e301bb03 e33fbc03 3ce3af02     ..........?....<
    8ade:	2a2a3e62 4b4e552a 4e574f4e 47415420     b>***UNKNOWN TAG
    8aee:	2a732520 2f3c2a2a 3c003e62 232d2d21      %s***</b>.<!--#
    8afe:	3e2d2d00 30342f00 74682e34 2f006c6d     .-->./404.html./
    8b0e:	2e343034 006d7468 20544547 34303400     404.htm.GET .404
    8b1e:	6e692f00 2e786564 6d746873 692f006c     ./index.shtml./i
    8b2e:	7865646e 6973732e 6e692f00 2e786564     ndex.ssi./index.
    8b3e:	6d746873 6e692f00 2e786564 6c6d7468     shtm./index.html
    8b4e:	6e692f00 2e786564 006d7468 6c6d782e     ./index.htm..xml
    8b5e:	6e6f4300 746e6574 7079742d 74203a65     .Content-type: t
    8b6e:	2f747865 6c6d7468 0a0d0a0d 6e6f4300     ext/html.....Con
    8b7e:	746e6574 7079742d 74203a65 2f747865     tent-type: text/
    8b8e:	6c6d7468 78450a0d 65726970 46203a73     html..Expires: F
    8b9e:	202c6972 41203031 32207270 20383030     ri, 10 Apr 2008 
    8bae:	303a3431 30303a30 544d4720 72500a0d     14:00:00 GMT..Pr
    8bbe:	616d6761 6f6e203a 6361632d 0a0d6568     agma: no-cache..
    8bce:	43000a0d 65746e6f 742d746e 3a657079     ...Content-type:
    8bde:	616d6920 672f6567 0a0d6669 43000a0d      image/gif.....C
    8bee:	65746e6f 742d746e 3a657079 616d6920     ontent-type: ima
    8bfe:	702f6567 0a0d676e 43000a0d 65746e6f     ge/png.....Conte
    8c0e:	742d746e 3a657079 616d6920 6a2f6567     nt-type: image/j
    8c1e:	0d676570 000a0d0a 746e6f43 2d746e65     peg.....Content-
    8c2e:	65707974 6d69203a 2f656761 0d706d62     type: image/bmp.
    8c3e:	000a0d0a 746e6f43 2d746e65 65707974     ....Content-type
    8c4e:	6d69203a 2f656761 63692d78 0a0d6e6f     : image/x-icon..
    8c5e:	43000a0d 65746e6f 742d746e 3a657079     ...Content-type:
    8c6e:	70706120 6163696c 6e6f6974 74636f2f      application/oct
    8c7e:	732d7465 61657274 0d0a0d6d 6f43000a     et-stream.....Co
    8c8e:	6e65746e 79742d74 203a6570 6c707061     ntent-type: appl
    8c9e:	74616369 2f6e6f69 616a2d78 63736176     ication/x-javasc
    8cae:	74706972 0a0d0a0d 6e6f4300 746e6574     ript.....Content
    8cbe:	7079742d 61203a65 6f696475 702d782f     -type: audio/x-p
    8cce:	65722d6e 75616c61 0d6f6964 000a0d0a     n-realaudio.....
    8cde:	746e6f43 2d746e65 65707974 6574203a     Content-type: te
    8cee:	632f7478 0a0d7373 43000a0d 65746e6f     xt/css.....Conte
    8cfe:	742d746e 3a657079 70706120 6163696c     nt-type: applica
    8d0e:	6e6f6974 732d782f 6b636f68 65766177     tion/x-shockwave
    8d1e:	616c662d 0a0d6873 43000a0d 65746e6f     -flash.....Conte
    8d2e:	742d746e 3a657079 78657420 6d782f74     nt-type: text/xm
    8d3e:	0d0a0d6c 6f43000a 6e65746e 79742d74     l.....Content-ty
    8d4e:	203a6570 74786574 616c702f 0a0d6e69     pe: text/plain..
    8d5e:	48000a0d 2f505454 20302e31 20303032     ...HTTP/1.0 200 
    8d6e:	0a0d4b4f 54544800 2e312f50 30342030     OK...HTTP/1.0 40
    8d7e:	69462034 6e20656c 6620746f 646e756f     4 File not found
    8d8e:	53000a0d 65767265 6c203a72 2f504977     ...Server: lwIP/
    8d9e:	2e332e31 68282032 3a707474 77772f2f     1.3.2 (http://ww
    8dae:	69732e77 732e7363 617e2f65 2f6d6164     w.sics.se/~adam/
    8dbe:	7069776c 0a0d292f 3c0a0d00 6c6d7468     lwip/).....<html
    8dce:	6f623c3e 3c3e7964 343e3268 203a3430     ><body><h2>404: 
    8dde:	20656854 75716572 65747365 69662064     The requested fi
    8dee:	6320656c 6f6e6e61 65622074 756f6620     le cannot be fou
    8dfe:	3c2e646e 3e32682f 6f622f3c 3c3e7964     nd.</h2></body><
    8e0e:	6d74682f 0a0d3e6c 66696700 676e7000     /html>...gif.png
    8e1e:	67706a00 706d6200 6f636900 616c6300     .jpg.bmp.ico.cla
    8e2e:	63007373 6a00736c 61720073 7363006d     ss.cls.js.ram.cs
    8e3e:	77730073 8b1f0066                                s.swf.

00008e44 <g_psDefaultFilenames>:
    8e44:	00008b1f 00000001 00008b2c 00000001     ........,.......
    8e54:	00008b37 00000001 00008b43 00000000     7.......C.......
    8e64:	00008b4f 00000000 4f004e4f 2f004646     O.......ON.OFF./
    8e74:	2d696763 2f6e6962 67676f74 6c5f656c     cgi-bin/toggle_l
    8e84:	2f006465 2d696763 2f6e6962 5f6d7770     ed./cgi-bin/pwm_
    8e94:	666f6e6f 702f0066 665f6d77 3f716572     onoff./pwm_freq?
    8ea4:	756c6176 2f003d65 5f6d7770 79747564     value=./pwm_duty
    8eb4:	6c637963 61763f65 3d65756c 656c2f00     cycle?value=./le
    8ec4:	61747364 693f6574 702f0064 74736d77     dstate?id./pwmst
    8ed4:	3f657461 2f006469 666d7770 67716572     ate?id./pwmfreqg
    8ee4:	693f7465 702f0064 75646d77 79637974     et?id./pwmdutycy
    8ef4:	67656c63 693f7465 692f0064                       cleget?id.

00008efe <data_io_cgi_ssi>:
    8efe:	5f6f692f 2e696763 00697373 50545448     /io_cgi.ssi.HTTP
    8f0e:	302e312f 30303220 0d4b4f20 7265530a     /1.0 200 OK..Ser
    8f1e:	3a726576 49776c20 2e312f50 20322e33     ver: lwIP/1.3.2 
    8f2e:	74746828 2f2f3a70 2e777777 73636973     (http://www.sics
    8f3e:	2f65732e 6164617e 776c2f6d 292f7069     .se/~adam/lwip/)
    8f4e:	6f430a0d 6e65746e 79742d74 203a6570     ..Content-type: 
    8f5e:	74786574 6d74682f 450a0d6c 72697078     text/html..Expir
    8f6e:	203a7365 2c697246 20303120 20727041     es: Fri, 10 Apr 
    8f7e:	38303032 3a343120 303a3030 4d472030     2008 14:00:00 GM
    8f8e:	500a0d54 6d676172 6e203a61 61632d6f     T..Pragma: no-ca
    8f9e:	0d656863 3c0a0d0a 434f4421 45505954     che....<!DOCTYPE
    8fae:	4d544820 5550204c 43494c42 2f2d2220      HTML PUBLIC "-/
    8fbe:	4333572f 54442f2f 54482044 34204c4d     /W3C//DTD HTML 4
    8fce:	2031302e 6e617254 69746973 6c616e6f     .01 Transitional
    8fde:	4e452f2f 0a0d3e22 2d2d213c 706f4320     //EN">..<!-- Cop
    8fee:	67697279 28207468 32202963 2d393030     yright (c) 2009-
    8ffe:	31313032 78655420 49207361 7274736e     2011 Texas Instr
    900e:	6e656d75 49207374 726f636e 61726f70     uments Incorpora
    901e:	2e646574 6c412020 6972206c 73746867     ted.  All rights
    902e:	73657220 65767265 2d202e64 213c3e2d      reserved. --><!
    903e:	46232d2d 566d726f 2d737261 0a0d3e2d     --#FormVars-->..
    904e:	6d74683c 683c3e6c 3e646165 6d3c0a0d     <html><head>..<m
    905e:	20617465 746e6f63 3d746e65 78657422     eta content="tex
    906e:	74682f74 633b6c6d 73726168 493d7465     t/html;charset=I
    907e:	382d4f53 2d393638 68202231 2d707474     SO-8869-1" http-
    908e:	69757165 63223d76 65746e6f 742d746e     equiv="content-t
    909e:	22657079 69743c3e 3e656c74 204f2f49     ype"><title>I/O 
    90ae:	746e6f43 206c6f72 6f6d6544 2f3c3220     Control Demo 2</
    90be:	6c746974 0a0d3e65 733c0a0d 70697263     title>....<scrip
    90ce:	79742074 223d6570 74786574 76616a2f     t type="text/jav
    90de:	72637361 22747069 3c0a0d3e 0d2d2d21     ascript">..<!--.
    90ee:	6e75660a 6f697463 6553206e 726f4674     .function SetFor
    90fe:	6665446d 746c7561 0d292873 0a0d7b0a     mDefaults()..{..
    910e:	75636f64 746e656d 636f692e 72746e6f     document.iocontr
    911e:	4c2e6c6f 6e4f4445 6568632e 64656b63     ol.LEDOn.checked
    912e:	6c203d20 0a0d3b73 75636f64 746e656d      = ls;..document
    913e:	636f692e 72746e6f 502e6c6f 6e4f4d57     .iocontrol.PWMOn
    914e:	6568632e 64656b63 70203d20 0a0d3b73     .checked = ps;..
    915e:	75636f64 746e656d 636f692e 72746e6f     document.iocontr
    916e:	502e6c6f 72464d57 65757165 2e79636e     ol.PWMFrequency.
    917e:	756c6176 203d2065 0d3b6670 636f640a     value = pf;..doc
    918e:	6e656d75 6f692e74 746e6f63 2e6c6f72     ument.iocontrol.
    919e:	444d5750 43797475 656c6379 6c61762e     PWMDutyCycle.val
    91ae:	3d206575 3b647020 0d7d0a0d 2d2f2f0a     ue = pd;..}..//-
    91be:	0a0d3e2d 63732f3c 74706972 3c0a0d3e     ->..</script>..<
    91ce:	6c797473 79742065 223d6570 74786574     style type="text
    91de:	7373632f 0a0d3e22 79646f62 0d7b0a0d     /css">..body..{.
    91ee:	6e6f660a 61662d74 796c696d 7241203a     .font-family: Ar
    91fe:	3b6c6169 61620a0d 72676b63 646e756f     ial;..background
    920e:	6c6f632d 203a726f 74696877 0a0d3b65     -color: white;..
    921e:	6772616d 203a6e69 78703031 700a0d3b     margin: 10px;..p
    922e:	69646461 203a676e 0d787030 0a0d7d0a     adding: 0px..}..
    923e:	0a0d3168 630a0d7b 726f6c6f 3723203a     h1..{..color: #7
    924e:	36333743 0a0d3b39 746e6f66 6d61662d     C7369;..font-fam
    925e:	3a796c69 69724120 0d3b6c61 6e6f660a     ily: Arial;..fon
    926e:	69732d74 203a657a 74703432 660a0d3b     t-size: 24pt;..f
    927e:	2d746e6f 6c797473 69203a65 696c6174     ont-style: itali
    928e:	0a0d3b63 680a0d7d 7b0a0d32 6f630a0d     c;..}..h2..{..co
    929e:	3a726f6c 30302320 30303030 660a0d3b     lor: #000000;..f
    92ae:	2d746e6f 696d6166 203a796c 61697241     ont-family: Aria
    92be:	0a0d3b6c 746e6f66 7a69732d 31203a65     l;..font-size: 1
    92ce:	3b747038 6f660a0d 732d746e 656c7974     8pt;..font-style
    92de:	6f62203a 0d3b646c 0a0d7d0a 0a0d3368     : bold;..}..h3..
    92ee:	630a0d7b 726f6c6f 3723203a 36333743     {..color: #7C736
    92fe:	0a0d3b39 746e6f66 6d61662d 3a796c69     9;..font-family:
    930e:	69724120 0d3b6c61 6e6f660a 69732d74      Arial;..font-si
    931e:	203a657a 74703231 660a0d3b 2d746e6f     ze: 12pt;..font-
    932e:	6c797473 62203a65 3b646c6f 0d7d0a0d     style: bold;..}.
    933e:	732f3c0a 656c7974 3c0a0d3e 6165682f     .</style>..</hea
    934e:	0a0d3e64 646f623c 6e6f2079 64616f6c     d>..<body onload
    935e:	6553223d 726f4674 6665446d 746c7561     ="SetFormDefault
    936e:	22292873 3c0a0d3e 6c626174 69772065     s()">..<table wi
    937e:	3d687464 30303122 62202225 6564726f     dth="100%" borde
    938e:	30223d72 65632022 70736c6c 6e696361     r="0" cellspacin
    939e:	30223d67 65632022 61706c6c 6e696464     g="0" cellpaddin
    93ae:	30223d67 0a0d3e22 3e72743c 743c0a0d     g="0">..<tr>..<t
    93be:	6c612064 3d6e6769 66656c22 20202274     d align="left"  
    93ce:	696c6176 223d6e67 746e6563 3e227265     valign="center">
    93de:	693c0a0d 7320676d 223d6372 6d692f2e     ..<img src="./im
    93ee:	73656761 5f69742f 6f676f6c 6669672e     ages/ti_logo.gif
    93fe:	0a0d3e22 64742f3c 3c0a0d3e 61206474     ">..</td>..<td a
    940e:	6e67696c 6563223d 7265746e 61762022     lign="center" va
    941e:	6e67696c 6563223d 7265746e 0a0d3e22     lign="center">..
    942e:	3e31683c 6c657453 6972616c 6d733c73     <h1>Stellaris<sm
    943e:	3e6c6c61 7075733c 6572263e 2f3c3b67     all><sup>&reg;</
    944e:	3e707573 6d732f3c 3e6c6c61 334d4c20     sup></small> LM3
    945e:	36393853 76452032 61756c61 6e6f6974     S8962 Evaluation
    946e:	74694b20 31682f3c 3c0a0d3e 3e64742f      Kit</h1>..</td>
    947e:	2f3c0a0d 0d3e7274 742f3c0a 656c6261     ..</tr>..</table
    948e:	3c0a0d3e 6c626174 69772065 3d687464     >..<table width=
    949e:	30303122 0d3e2225 62743c0a 3e79646f     "100%">..<tbody>
    94ae:	743c0a0d 0a0d3e72 2064743c 67696c61     ..<tr>..<td alig
    94be:	6c223d6e 22746665 6c617620 3d6e6769     n="left" valign=
    94ce:	706f7422 69772022 3d687464 25353222     "top" width="25%
    94de:	0a0d3e22 3e72623c 753c0a0d 0a0d3e6c     ">..<br>..<ul>..
    94ee:	2f3c0a0d 2f3c3e61 0d3e696c 752f3c0a     ..</a></li>..</u
    94fe:	0a0d3e6c 64742f3c 3c0a0d3e 61206474     l>..</td>..<td a
    950e:	6e67696c 656c223d 20227466 696c6176     lign="left" vali
    951e:	223d6e67 22706f74 64697720 223d6874     gn="top" width="
    952e:	22253537 3c0a0d3e 746e6563 0d3e7265     75%">..<center>.
    953e:	32683c0a 696c6120 223d6e67 746e6563     .<h2 align="cent
    954e:	3e227265 204f2f49 746e6f43 206c6f72     er">I/O Control 
    955e:	6f6d6544 2f3c3220 0d3e3268 632f3c0a     Demo 2</h2>..</c
    956e:	65746e65 0a0d3e72 2072683c 657a6973     enter>..<hr size
    957e:	2232223d 64697720 223d6874 25303031     ="2" width="100%
    958e:	0a0d3e22 3e6c753c 2f3c0a0d 0d3e6c75     ">..<ul>..</ul>.
    959e:	3c0a0d0a 6c626174 6c612065 3d6e6769     ...<table align=
    95ae:	6e656322 22726574 726f6220 3d726564     "center" border=
    95be:	20223122 74646977 38223d68 3e222530     "1" width="80%">
    95ce:	743c0a0d 79646f62 3c0a0d3e 0d3e7274     ..<tbody>..<tr>.
    95de:	64743c0a 3c0a0d3e 6d726f66 74656d20     .<td>..<form met
    95ee:	3d646f68 74656722 63612022 6e6f6974     hod="get" action
    95fe:	6f69223d 746e6f63 2e6c6f72 22696763     ="iocontrol.cgi"
    960e:	6d616e20 69223d65 6e6f636f 6c6f7274      name="iocontrol
    961e:	0a0d3e22 6261743c 6120656c 6e67696c     ">..<table align
    962e:	6563223d 7265746e 6f622022 72656472     ="center" border
    963e:	2230223d 6c656320 6461706c 676e6964     ="0" cellpadding
    964e:	2232223d 6c656320 6170736c 676e6963     ="2" cellspacing
    965e:	2232223d 64697720 223d6874 25303031     ="2" width="100%
    966e:	0a0d3e22 6f62743c 0d3e7964 72743c0a     ">..<tbody>..<tr
    967e:	3c0a0d3e 61206474 6e67696c 656c223d     >..<td align="le
    968e:	20227466 696c6176 223d6e67 22706f74     ft" valign="top"
    969e:	3e623c3e 746e6f43 3c6c6f72 3c3e622f     ><b>Control</b><
    96ae:	3e64742f 743c0a0d 6c612064 3d6e6769     /td>..<td align=
    96be:	6e656322 22726574 6c617620 3d6e6769     "center" valign=
    96ce:	706f7422 623c3e22 7275433e 746e6572     "top"><b>Current
    96de:	3e622f3c 64742f3c 3c0a0d3e 61206474     </b></td>..<td a
    96ee:	6e67696c 6563223d 7265746e 61762022     lign="center" va
    96fe:	6e67696c 6f74223d 3c3e2270 654e3e62     lign="top"><b>Ne
    970e:	622f3c77 742f3c3e 0a0d3e64 72742f3c     w</b></td>..</tr
    971e:	3c0a0d3e 0d3e7274 64743c0a 696c6120     >..<tr>..<td ali
    972e:	223d6e67 7466656c 61762022 6e67696c     gn="left" valign
    973e:	6f74223d 4c3e2270 0a0d4445 74617453     ="top">LED..Stat
    974e:	742f3c65 0a0d3e64 2064743c 67696c61     e</td>..<td alig
    975e:	63223d6e 65746e65 76202272 67696c61     n="center" valig
    976e:	74223d6e 3e22706f 2d2d213c 44454c23     n="top"><!--#LED
    977e:	2d747874 2f3c3e2d 0d3e6474 64743c0a     txt--></td>..<td
    978e:	696c6120 223d6e67 746e6563 20227265      align="center" 
    979e:	696c6176 223d6e67 22706f74 6e693c3e     valign="top"><in
    97ae:	20747570 656d616e 454c223d 226e4f44     put name="LEDOn"
    97be:	6c617620 223d6575 74202231 3d657079      value="1" type=
    97ce:	65686322 6f626b63 3c3e2278 3e64742f     "checkbox"></td>
    97de:	2f3c0a0d 0d3e7274 72743c0a 3c0a0d3e     ..</tr>..<tr>..<
    97ee:	61206474 6e67696c 656c223d 20227466     td align="left" 
    97fe:	696c6176 223d6e67 22706f74 4d57503e     valign="top">PWM
    980e:	74530a0d 3c657461 3e64742f 743c0a0d     ..State</td>..<t
    981e:	6c612064 3d6e6769 6e656322 22726574     d align="center"
    982e:	6c617620 3d6e6769 706f7422 213c3e22      valign="top"><!
    983e:	50232d2d 78744d57 3e2d2d74 64742f3c     --#PWMtxt--></td
    984e:	3c0a0d3e 61206474 6e67696c 6563223d     >..<td align="ce
    985e:	7265746e 61762022 6e67696c 6f74223d     nter" valign="to
    986e:	3c3e2270 75706e69 616e2074 223d656d     p"><input name="
    987e:	4f4d5750 7620226e 65756c61 2231223d     PWMOn" value="1"
    988e:	70797420 63223d65 6b636568 22786f62      type="checkbox"
    989e:	742f3c3e 0a0d3e64 72742f3c 3c0a0d3e     ></td>..</tr>..<
    98ae:	0d3e7274 64743c0a 696c6120 223d6e67     tr>..<td align="
    98be:	7466656c 61762022 6e67696c 6f74223d     left" valign="to
    98ce:	503e2270 0a0d4d57 71657246 636e6575     p">PWM..Frequenc
    98de:	48282079 2f3c297a 0d3e6474 64743c0a     y (Hz)</td>..<td
    98ee:	696c6120 223d6e67 746e6563 20227265      align="center" 
    98fe:	696c6176 223d6e67 22706f74 2d213c3e     valign="top"><!-
    990e:	5750232d 6572664d 3e2d2d71 64742f3c     -#PWMfreq--></td
    991e:	3c0a0d3e 61206474 6e67696c 6563223d     >..<td align="ce
    992e:	7265746e 61762022 6e67696c 6f74223d     nter" valign="to
    993e:	3c3e2270 75706e69 616d2074 6e656c78     p"><input maxlen
    994e:	3d687467 20223422 657a6973 2234223d     gth="4" size="4"
    995e:	6d616e20 50223d65 72464d57 65757165      name="PWMFreque
    996e:	2279636e 6c617620 223d6575 2f3c3e22     ncy" value=""></
    997e:	0d3e6474 742f3c0a 0a0d3e72 3e72743c     td>..</tr>..<tr>
    998e:	743c0a0d 6c612064 3d6e6769 66656c22     ..<td align="lef
    999e:	76202274 67696c61 74223d6e 3e22706f     t" valign="top">
    99ae:	0d4d5750 7475440a 79432079 20656c63     PWM..Duty Cycle 
    99be:	3c292528 3e64742f 743c0a0d 6c612064     (%)</td>..<td al
    99ce:	3d6e6769 6e656322 22726574 6c617620     ign="center" val
    99de:	3d6e6769 706f7422 213c3e22 50232d2d     ign="top"><!--#P
    99ee:	75644d57 2d2d7974 742f3c3e 0a0d3e64     WMduty--></td>..
    99fe:	2064743c 67696c61 63223d6e 65746e65     <td align="cente
    9a0e:	76202272 67696c61 74223d6e 3e22706f     r" valign="top">
    9a1e:	706e693c 6d207475 656c7861 6874676e     <input maxlength
    9a2e:	2233223d 7a697320 33223d65 616e2022     ="3" size="3" na
    9a3e:	223d656d 444d5750 43797475 656c6379     me="PWMDutyCycle
    9a4e:	61762022 3d65756c 3c3e2222 3e64742f     " value=""></td>
    9a5e:	2f3c0a0d 0d3e7274 72743c0a 3c0a0d3e     ..</tr>..<tr>..<
    9a6e:	63206474 70736c6f 223d6e61 72202233     td colspan="3" r
    9a7e:	7073776f 223d6e61 61202231 6e67696c     owspan="1" align
    9a8e:	6563223d 7265746e 61762022 6e67696c     ="center" valign
    9a9e:	696d223d 656c6464 0a0d3e22 706e693c     ="middle">..<inp
    9aae:	6e207475 3d656d61 64705522 22657461     ut name="Update"
    9abe:	6c617620 223d6575 61647055 53206574      value="Update S
    9ace:	69747465 2273676e 70797420 73223d65     ettings" type="s
    9ade:	696d6275 3c3e2274 3e64742f 2f3c0a0d     ubmit"></td>..</
    9aee:	0d3e7274 742f3c0a 79646f62 3c0a0d3e     tr>..</tbody>..<
    9afe:	6261742f 0d3e656c 662f3c0a 3e6d726f     /table>..</form>
    9b0e:	2f3c0a0d 0d3e6474 742f3c0a 0a0d3e72     ..</td>..</tr>..
    9b1e:	62742f3c 3e79646f 2f3c0a0d 6c626174     </tbody>..</tabl
    9b2e:	0a0d3e65 3e6c753c 2f3c0a0d 0d3e6c75     e>..<ul>..</ul>.
    9b3e:	72623c0a 3c0a0d3e 6c626174 6c612065     .<br>..<table al
    9b4e:	3d6e6769 6e656322 22726574 726f6220     ign="center" bor
    9b5e:	3d726564 20223122 6c6c6563 64646170     der="1" cellpadd
    9b6e:	3d676e69 20223222 6c6c6563 63617073     ing="2" cellspac
    9b7e:	3d676e69 20223222 74646977 38223d68     ing="2" width="8
    9b8e:	3e222530 743c0a0d 79646f62 3c0a0d3e     0%">..<tbody>..<
    9b9e:	0d3e7274 64743c0a 696c6120 223d6e67     tr>..<td align="
    9bae:	7466656c 61762022 6e67696c 6f74223d     left" valign="to
    9bbe:	0d3e2270 6f663c0a 6d206d72 6f687465     p">..<form metho
    9bce:	67223d64 20227465 69746361 223d6e6f     d="get" action="
    9bde:	74746573 632e7478 20226967 656d616e     settxt.cgi" name
    9bee:	6573223d 74787474 0a0d3e22 6261743c     ="settxt">..<tab
    9bfe:	6220656c 6564726f 30223d72 65632022     le border="0" ce
    9c0e:	61706c6c 6e696464 32223d67 65632022     llpadding="2" ce
    9c1e:	70736c6c 6e696361 32223d67 69772022     llspacing="2" wi
    9c2e:	3d687464 30303122 0d3e2225 62743c0a     dth="100%">..<tb
    9c3e:	3e79646f 743c0a0d 6c612072 3d6e6769     ody>..<tr align=
    9c4e:	6e656322 22726574 3c0a0d3e 76206474     "center">..<td v
    9c5e:	67696c61 74223d6e 3e22706f 443e623c     align="top"><b>D
    9c6e:	6c707369 74207961 0d736968 7865740a     isplay this..tex
    9c7e:	6e6f2074 65687420 72637320 3a6e6565     t on the screen:
    9c8e:	3e72623c 2f3c0a0d 693c3e62 7475706e     <br>..</b><input
    9c9e:	78616d20 676e656c 223d6874 20223032      maxlength="20" 
    9cae:	657a6973 3032223d 616e2022 223d656d     size="20" name="
    9cbe:	70736944 74786554 3c203e22 75706e69     DispText"> <inpu
    9cce:	616e2074 223d656d 70736944 2279616c     t name="Display"
    9cde:	6c617620 223d6575 646e6553 78655420      value="Send Tex
    9cee:	74202274 3d657079 62757322 2274696d     t" type="submit"
    9cfe:	742f3c3e 0a0d3e64 72742f3c 3c0a0d3e     ></td>..</tr>..<
    9d0e:	6f62742f 0d3e7964 742f3c0a 656c6261     /tbody>..</table
    9d1e:	3c0a0d3e 726f662f 0a0d3e6d 64742f3c     >..</form>..</td
    9d2e:	3c0a0d3e 3e72742f 2f3c0a0d 646f6274     >..</tr>..</tbod
    9d3e:	0a0d3e79 61742f3c 3e656c62 623c0a0d     y>..</table>..<b
    9d4e:	0a0d3e72 64742f3c 3c0a0d3e 3e72742f     r>..</td>..</tr>
    9d5e:	2f3c0a0d 646f6274 0a0d3e79 61742f3c     ..</tbody>..</ta
    9d6e:	3e656c62 743c0a0d 656c6261 726f6220     ble>..<table bor
    9d7e:	3d726564 20223022 6c6c6563 64646170     der="0" cellpadd
    9d8e:	3d676e69 20223022 6c6c6563 63617073     ing="0" cellspac
    9d9e:	3d676e69 20223022 74646977 31223d68     ing="0" width="1
    9dae:	22253030 3c0a0d3e 646f6274 0a0d3e79     00%">..<tbody>..
    9dbe:	3e72743c 743c0a0d 6c612064 3d6e6769     <tr>..<td align=
    9dce:	67697222 20227468 696c6176 223d6e67     "right" valign="
    9dde:	746e6563 3e227265 683c0a0d 623c3e31     center">..<h1><b
    9dee:	0a0d3e72 31682f3c 3c0a0d3e 3e64742f     r>..</h1>..</td>
    9dfe:	743c0a0d 6c612064 3d6e6769 67697222     ..<td align="rig
    9e0e:	20227468 696c6176 223d6e67 746e6563     ht" valign="cent
    9e1e:	3e227265 683c0a0d 6f433e33 69727970     er">..<h3>Copyri
    9e2e:	20746867 706f6326 32203b79 2d393030     ght &copy; 2009-
    9e3e:	31313032 78655420 49207361 7274736e     2011 Texas Instr
    9e4e:	6e656d75 49207374 726f636e 61726f70     uments Incorpora
    9e5e:	2e646574 6c412020 6972206c 73746867     ted.  All rights
    9e6e:	73657220 65767265 2f3c2e64 0d3e3368      reserved.</h3>.
    9e7e:	742f3c0a 0a0d3e64 72742f3c 3c0a0d3e     .</td>..</tr>..<
    9e8e:	6f62742f 0d3e7964 742f3c0a 656c6261     /tbody>..</table
    9e9e:	3c0a0d3e 646f622f 2f3c3e79 6c6d7468     >..</body></html
    9eae:	2f0a0d3e                                         >..

00009eb1 <data_favicon_ico>:
    9eb1:	7661662f 6e6f6369 6f63692e 54544800     /favicon.ico.HTT
    9ec1:	2e312f50 30322030 4b4f2030 65530a0d     P/1.0 200 OK..Se
    9ed1:	72657672 776c203a 312f5049 322e332e     rver: lwIP/1.3.2
    9ee1:	74682820 2f3a7074 7777772f 6369732e      (http://www.sic
    9ef1:	65732e73 64617e2f 6c2f6d61 2f706977     s.se/~adam/lwip/
    9f01:	430a0d29 65746e6f 742d746e 3a657079     )..Content-type:
    9f11:	616d6920 782f6567 6f63692d 0d0a0d6e      image/x-icon...
    9f21:	0100000a 10000200 00001010 28000000     ...............(
    9f31:	26000001 10000000 00000010 68000000     ...&...........h
    9f41:	4e000005 28000001 10000000 20000000     ...N...(....... 
    9f51:	01000000 00000400 c0000000 00000000     ................
	...
    9f75:	00008000 00000080 80008080 80000000     ................
    9f85:	80008000 c0000080 8000c0c0 00008080     ................
    9f95:	0000ff00 000000ff ff00ffff ff000000     ................
    9fa5:	ff00ff00 ff0000ff 0000ffff 07000000     ................
    9fb5:	00000008 70000000 00000007 00070000     .......p........
    9fc5:	00000008 00000000 00007000 07707707     .........p...wp.
    9fd5:	00000778 77000000 00708077 70000070     x......ww.p.p..p
    9fe5:	07070007 70000000 70000007 70070000     .......p...p...p
    9ff5:	00007007 70070000 00077008 88000000     .p.....p.p......
    a005:	00000008 08000000 00000077 07000000     ........w.......
    a015:	00000000 70000000 00000000 00000000     .......p........
	...
    a02d:	ff000000 ff00008f fe00000f fe00000f     ................
    a03d:	e0000007 e0000003 c0000001 80000000     ................
	...
    a055:	f0000000 f0000001 f0000001 f000000f     ................
    a065:	f000004f f00000ff 280000ff 10000000     O..........(....
    a075:	20000000 01000000 00000800 40000000     ... ...........@
    a085:	00000001 00000000 00000000 00000001     ................
	...
    a09d:	00008000 00000080 80008080 80000000     ................
    a0ad:	80008000 c0000080 c000c0c0 f000c0dc     ................
    a0bd:	d400a6ca b100fff0 8e00ffe2 6b00ffd4     ...............k
    a0cd:	4800ffc6 2500ffb8 0000ffaa 0000ffaa     ...H...%........
    a0dd:	0000dc92 0000b97a 00009662 0000734a     ....z...b...Js..
    a0ed:	d4005032 b100ffe3 8e00ffc7 6b00ffab     2P.............k
    a0fd:	4800ff8f 2500ff73 0000ff57 0000ff55     ...Hs..%W...U...
    a10d:	0000dc49 0000b93d 00009631 00007325     I...=...1...%s..
    a11d:	d4005019 b100ffd4 8e00ffb1 6b00ff8e     .P.............k
    a12d:	4800ff6b 2500ff48 0000ff25 0000ff00     k..HH..%%.......
    a13d:	0000dc00 0000b900 00009600 00007300     .............s..
    a14d:	e3005000 c700ffd4 ab00ffb1 8f00ff8e     .P..............
    a15d:	7300ff6b 5700ff48 5500ff25 4900ff00     k..sH..W%..U...I
    a16d:	3d00dc00 3100b900 25009600 19007300     ...=...1...%.s..
    a17d:	f0005000 e200ffd4 d400ffb1 c600ff8e     .P..............
    a18d:	b800ff6b aa00ff48 aa00ff25 9200ff00     k...H...%.......
    a19d:	7a00dc00 6200b900 4a009600 32007300     ...z...b...J.s.2
    a1ad:	ff005000 ff00ffd4 ff00ffb1 ff00ff8e     .P..............
    a1bd:	ff00ff6b ff00ff48 ff00ff25 dc00ff00     k...H...%.......
    a1cd:	b900dc00 9600b900 73009600 50007300     ...........s.s.P
    a1dd:	ff005000 ff00f0d4 ff00e2b1 ff00d48e     .P..............
    a1ed:	ff00c66b ff00b848 ff00aa25 dc00aa00     k...H...%.......
    a1fd:	b9009200 96007a00 73006200 50004a00     .....z...b.s.J.P
    a20d:	ff003200 ff00e3d4 ff00c7b1 ff00ab8e     .2..............
    a21d:	ff008f6b ff007348 ff005725 dc005500     k...Hs..%W...U..
    a22d:	b9004900 96003d00 73003100 50002500     .I...=...1.s.%.P
    a23d:	ff001900 ff00d4d4 ff00b1b1 ff008e8e     ................
    a24d:	ff006b6b ff004848 ff002525 dc000000     kk..HH..%%......
    a25d:	b9000000 96000000 73000000 50000000     ...........s...P
    a26d:	ff000000 ff00d4e3 ff00b1c7 ff008eab     ................
    a27d:	ff006b8f ff004873 ff002557 dc000055     .k..sH..W%..U...
    a28d:	b9000049 9600003d 73000031 50000025     I...=...1..s%..P
    a29d:	ff000019 ff00d4f0 ff00b1e2 ff008ed4     ................
    a2ad:	ff006bc6 ff0048b8 ff0025aa dc0000aa     .k...H...%......
    a2bd:	b9000092 9600007a 73000062 5000004a     ....z...b..sJ..P
    a2cd:	ff000032 ff00d4ff ff00b1ff ff008eff     2...............
    a2dd:	ff006bff ff0048ff ff0025ff dc0000ff     .k...H...%......
    a2ed:	b90000dc 960000b9 73000096 50000073     ...........ss..P
    a2fd:	f0000050 e200d4ff d400b1ff c6008eff     P...............
    a30d:	b8006bff aa0048ff aa0025ff 920000ff     .k...H...%......
    a31d:	7a0000dc 620000b9 4a000096 32000073     ...z...b...Js..2
    a32d:	e3000050 c700d4ff ab00b1ff 8f008eff     P...............
    a33d:	73006bff 570048ff 550025ff 490000ff     .k.s.H.W.%.U...I
    a34d:	3d0000dc 310000b9 25000096 19000073     ...=...1...%s...
    a35d:	d4000050 b100d4ff 8e00b1ff 6b008eff     P..............k
    a36d:	48006bff 250048ff 000025ff 000000ff     .k.H.H.%.%......
    a37d:	000000dc 000000b9 00000096 00000073     ............s...
    a38d:	d4000050 b100e3ff 8e00c7ff 6b00abff     P..............k
    a39d:	48008fff 250073ff 000057ff 000055ff     ...H.s.%.W...U..
    a3ad:	000049dc 00003db9 00003196 00002573     .I...=...1..s%..
    a3bd:	d4001950 b100f0ff 8e00e2ff 6b00d4ff     P..............k
    a3cd:	4800c6ff 2500b8ff 0000aaff 0000aaff     ...H...%........
    a3dd:	000092dc 00007ab9 00006296 00004a73     .....z...b..sJ..
    a3ed:	d4003250 b100ffff 8e00ffff 6b00ffff     P2.............k
    a3fd:	4800ffff 2500ffff 0000ffff 0000ffff     ...H...%........
    a40d:	0000dcdc 0000b9b9 00009696 00007373     ............ss..
    a41d:	f2005050 e600f2f2 da00e6e6 ce00dada     PP..............
    a42d:	c200cece b600c2c2 aa00b6b6 9e00aaaa     ................
    a43d:	92009e9e 86009292 7a008686 6e007a7a     ...........zzz.n
    a44d:	62006e6e 56006262 4a005656 3e004a4a     nn.bbb.VVV.JJJ.>
    a45d:	32003e3e 26003232 1a002626 0e001a1a     >>.222.&&&......
    a46d:	f0000e0e a400fffb 8000a0a0 00008080     ................
    a47d:	0000ff00 000000ff ff00ffff ff000000     ................
    a48d:	ff00ff00 ff0000ff 0000ffff 00000000     ................
    a49d:	00000000 00f800f7 00000000 00000000     ................
    a4ad:	f7000000 00f70000 00000000 00000000     ................
    a4bd:	00f70000 00f80000 00000000 00000000     ................
    a4cd:	00000000 f7000000 00000000 f7f70000     ................
    a4dd:	0000f7f7 00f8e6e6 000000f7 00000000     ................
    a4ed:	f7000000 f8e6f7f7 0000f700 0000f700     ................
    a4fd:	f7000000 00e60000 00f70000 000000f7     ................
    a50d:	f7000000 00e60000 f7000000 00000000     ................
    a51d:	e6e60000 e6e60000 00000000 00000000     ................
    a52d:	e6e60000 e6f80000 00f70000 00000000     ................
    a53d:	f8000000 00f800f8 00000000 00000000     ................
    a54d:	00000000 00e6e6f8 00000000 00000000     ................
    a55d:	00000000 000000f7 00000000 00000000     ................
    a56d:	f7000000 00000000 00000000 00000000     ................
	...
    a595:	ff000000 ffffff8f feffff0f feffff0f     ................
    a5a5:	e0ffff07 e0ffff03 c0ffff01 80ffff00     ................
    a5b5:	00ffff00 00ffff00 f0ffff00 f0ffff01     ................
    a5c5:	f0ffff01 f0ffff0f f0ffff4f f0ffffff     ........O.......
    a5d5:	e8ffffff                                         ...

0000a5d8 <file_io_cgi_ssi>:
    a5d8:	0000a5e8 00008efe 00008f0a 00000fa7     ................

0000a5e8 <file_favicon_ico>:
    a5e8:	00000000 00009eb1 00009ebe 0000071a     ................

0000a5f8 <ip_addr_any>:
    a5f8:	00000000                                ....

0000a5fc <ethzero>:
    a5fc:	00000000 00040000                                ......

0000a602 <memp_num>:
    a602:	00040004 00080008 001e0014 00100014     ................

0000a612 <memp_sizes>:
    a612:	0020001c 002000a4 00080014 01100010     .. ... .........

0000a622 <tcp_backoff>:
    a622:	04030201 07070605 07070707 0c060307              .............

0000a62f <tcp_persist_backoff>:
    a62f:	180c0603 ff786030                                ....0`x

0000a636 <ethbroadcast>:
    a636:	ffffffff ffffffff                                ......

0000a63c <ip_addr_broadcast>:
    a63c:	ffffffff 33323130 37363534 62613938     ....0123456789ab
    a64c:	66656463 52524500 0000524f              cdef.ERROR..

0000a658 <g_pulXtals>:
    a658:	000f4240 001c2000 001e8480 00258000     @B... ........%.
    a668:	00369e99 00384000 003d0900 003e8000     ..6..@8...=...>.
    a678:	004b0000 004c4b40 004e2000 005b8d80     ..K.@KL.. N...[.
    a688:	005dc000 00708000 007a1200 007d0000     ..]...p...z...}.
    a698:	00989680 00b71b00 00bb8000 00cee8c0     ................
    a6a8:	00da7a64 00f42400 00fa0000              dz...$......

0000a6b4 <g_pulRCGCRegs>:
    a6b4:	400fe100 400fe104 400fe108              ...@...@...@

0000a6c0 <g_pulSRCRRegs>:
    a6c0:	400fe040 400fe044 400fe048              @..@D..@H..@
